ARM GAS  C:\Users\CHUCK~1.ERH\AppData\Local\Temp\cceXLlop.s 			page 1


   1              		.cpu cortex-m0
   2              		.fpu softvfp
   3              		.eabi_attribute 20, 1
   4              		.eabi_attribute 21, 1
   5              		.eabi_attribute 23, 3
   6              		.eabi_attribute 24, 1
   7              		.eabi_attribute 25, 1
   8              		.eabi_attribute 26, 1
   9              		.eabi_attribute 30, 6
  10              		.eabi_attribute 34, 0
  11              		.eabi_attribute 18, 4
  12              		.code	16
  13              		.file	"main.c"
  14              		.text
  15              	.Ltext0:
  16              		.cfi_sections	.debug_frame
  17              		.section	.rodata
  18              		.align	2
  19              	.LC0:
  20 0000 1B5B324A 		.ascii	"\033[2JHello From E2ForLife.com\015\012\000"
  20      48656C6C 
  20      6F204672 
  20      6F6D2045 
  20      32466F72 
  21 001f 00       		.section	.text.main,"ax",%progbits
  22              		.align	2
  23              		.global	main
  24              		.code	16
  25              		.thumb_func
  26              		.type	main, %function
  27              	main:
  28              	.LFB33:
  29              		.file 1 ".\\main.c"
   1:.\main.c      **** /* ========================================
   2:.\main.c      ****  *
   3:.\main.c      ****  * Copyright YOUR COMPANY, THE YEAR
   4:.\main.c      ****  * All Rights Reserved
   5:.\main.c      ****  * UNPUBLISHED, LICENSED SOFTWARE.
   6:.\main.c      ****  *
   7:.\main.c      ****  * CONFIDENTIAL AND PROPRIETARY INFORMATION
   8:.\main.c      ****  * WHICH IS THE PROPERTY OF your company.
   9:.\main.c      ****  *
  10:.\main.c      ****  * ========================================
  11:.\main.c      **** */
  12:.\main.c      **** #include <project.h>
  13:.\main.c      **** 
  14:.\main.c      **** int main()
  15:.\main.c      **** {
  30              		.loc 1 15 0
  31              		.cfi_startproc
  32 0000 90B5     		push	{r4, r7, lr}
  33              	.LCFI0:
  34              		.cfi_def_cfa_offset 12
  35              		.cfi_offset 4, -12
  36              		.cfi_offset 7, -8
  37              		.cfi_offset 14, -4
  38 0002 83B0     		sub	sp, sp, #12
ARM GAS  C:\Users\CHUCK~1.ERH\AppData\Local\Temp\cceXLlop.s 			page 2


  39              	.LCFI1:
  40              		.cfi_def_cfa_offset 24
  41 0004 00AF     		add	r7, sp, #0
  42              	.LCFI2:
  43              		.cfi_def_cfa_register 7
  16:.\main.c      **** 	uint8 tcpSocket;
  17:.\main.c      **** 	/*
  18:.\main.c      **** 	 * First the SPI perepheral must be initialized so that the
  19:.\main.c      **** 	 * W5100 driver has hardware to use for the chip initialization
  20:.\main.c      **** 	 * that will occur next
  21:.\main.c      **** 	 */
  22:.\main.c      **** 	SPI_Start();
  44              		.loc 1 22 0
  45 0006 FFF7FEFF 		bl	SPI_Start
  23:.\main.c      ****   	/*
  24:.\main.c      **** 	 * The next section initialized the W5100 to default settings
  25:.\main.c      **** 	 * setup in the component confiuration dialog.
  26:.\main.c      **** 	 */
  27:.\main.c      **** 	W5100_Start();
  46              		.loc 1 27 0
  47 000a FFF7FEFF 		bl	W5100_Start
  48 000e 00E0     		b	.L3
  49              	.L4:
  28:.\main.c      ****     for(;;)
  29:.\main.c      ****     {
  30:.\main.c      ****         /*
  31:.\main.c      **** 		 * Now that the W5100 is initialized and configured,
  32:.\main.c      **** 		 * open a socket, then start a server and wait for connections
  33:.\main.c      **** 		 */
  34:.\main.c      **** 		tcpSocket = W5100_TcpOpen( 23 );
  35:.\main.c      **** 		/*
  36:.\main.c      **** 		 * If the socket was opened the socket number will be 0 - 3
  37:.\main.c      **** 		 * to reflect the socket that was used within the W5100
  38:.\main.c      **** 		 */
  39:.\main.c      **** 		if (tcpSocket < 4) {
  40:.\main.c      **** 			/* Wait for server connections */
  41:.\main.c      **** 			W5100_TcpStartServerWait( tcpSocket );
  42:.\main.c      **** 			/* Send the string to the remote terminal */
  43:.\main.c      **** 			W5100_TcpPrint(tcpSocket,"\x1b[2JHello From E2ForLife.com\r\n");
  44:.\main.c      **** 			/* Wait for string to transmit over the network before closing */
  45:.\main.c      **** 			CyDelay(10);
  46:.\main.c      **** 			/* Disconnect from client (drop connection) */
  47:.\main.c      **** 			W5100_TcpDisconnect(tcpSocket);
  48:.\main.c      **** 			/* Close the socket */
  49:.\main.c      **** 			CyDelay(50);
  50:.\main.c      **** 			W5100_SocketClose(tcpSocket);
  51:.\main.c      **** 		}
  52:.\main.c      ****     }
  50              		.loc 1 52 0
  51 0010 C046     		mov	r8, r8
  52              	.L3:
  34:.\main.c      **** 		tcpSocket = W5100_TcpOpen( 23 );
  53              		.loc 1 34 0
  54 0012 FC1D     		add	r4, r7, #7
  55 0014 1720     		mov	r0, #23
  56 0016 FFF7FEFF 		bl	W5100_TcpOpen
  57 001a 031C     		mov	r3, r0
ARM GAS  C:\Users\CHUCK~1.ERH\AppData\Local\Temp\cceXLlop.s 			page 3


  58 001c 2370     		strb	r3, [r4]
  39:.\main.c      **** 		if (tcpSocket < 4) {
  59              		.loc 1 39 0
  60 001e FB1D     		add	r3, r7, #7
  61 0020 1B78     		ldrb	r3, [r3]
  62 0022 032B     		cmp	r3, #3
  63 0024 F4D8     		bhi	.L4
  41:.\main.c      **** 			W5100_TcpStartServerWait( tcpSocket );
  64              		.loc 1 41 0
  65 0026 FB1D     		add	r3, r7, #7
  66 0028 1B78     		ldrb	r3, [r3]
  67 002a 181C     		mov	r0, r3
  68 002c FFF7FEFF 		bl	W5100_TcpStartServerWait
  43:.\main.c      **** 			W5100_TcpPrint(tcpSocket,"\x1b[2JHello From E2ForLife.com\r\n");
  69              		.loc 1 43 0
  70 0030 FB1D     		add	r3, r7, #7
  71 0032 1A78     		ldrb	r2, [r3]
  72 0034 0A4B     		ldr	r3, .L5
  73 0036 101C     		mov	r0, r2
  74 0038 191C     		mov	r1, r3
  75 003a FFF7FEFF 		bl	W5100_TcpPrint
  45:.\main.c      **** 			CyDelay(10);
  76              		.loc 1 45 0
  77 003e 0A20     		mov	r0, #10
  78 0040 FFF7FEFF 		bl	CyDelay
  47:.\main.c      **** 			W5100_TcpDisconnect(tcpSocket);
  79              		.loc 1 47 0
  80 0044 FB1D     		add	r3, r7, #7
  81 0046 1B78     		ldrb	r3, [r3]
  82 0048 181C     		mov	r0, r3
  83 004a FFF7FEFF 		bl	W5100_TcpDisconnect
  49:.\main.c      **** 			CyDelay(50);
  84              		.loc 1 49 0
  85 004e 3220     		mov	r0, #50
  86 0050 FFF7FEFF 		bl	CyDelay
  50:.\main.c      **** 			W5100_SocketClose(tcpSocket);
  87              		.loc 1 50 0
  88 0054 FB1D     		add	r3, r7, #7
  89 0056 1B78     		ldrb	r3, [r3]
  90 0058 181C     		mov	r0, r3
  91 005a FFF7FEFF 		bl	W5100_SocketClose
  92              		.loc 1 52 0
  93 005e D7E7     		b	.L4
  94              	.L6:
  95              		.align	2
  96              	.L5:
  97 0060 00000000 		.word	.LC0
  98              		.cfi_endproc
  99              	.LFE33:
 100              		.size	main, .-main
 101              		.text
 102              	.Letext0:
 103              		.file 2 "./Generated_Source/PSoC4/cytypes.h"