ARM GAS  C:\Users\CHUCK~1.ERH\AppData\Local\Temp\cc506n3q.s 			page 1


   1              		.cpu cortex-m0
   2              		.fpu softvfp
   3              		.eabi_attribute 20, 1
   4              		.eabi_attribute 21, 1
   5              		.eabi_attribute 23, 3
   6              		.eabi_attribute 24, 1
   7              		.eabi_attribute 25, 1
   8              		.eabi_attribute 26, 1
   9              		.eabi_attribute 30, 4
  10              		.eabi_attribute 34, 0
  11              		.eabi_attribute 18, 4
  12              		.code	16
  13              		.file	"W5100.c"
  14              		.text
  15              	.Ltext0:
  16              		.cfi_sections	.debug_frame
  17              		.section	.text.W5100_W51_Write,"ax",%progbits
  18              		.align	1
  19              		.global	W5100_W51_Write
  20              		.code	16
  21              		.thumb_func
  22              		.type	W5100_W51_Write, %function
  23              	W5100_W51_Write:
  24              	.LFB1:
  25              		.file 1 ".\\Generated_Source\\PSoC4\\W5100.c"
   1:.\Generated_Source\PSoC4/W5100.c **** /**
   2:.\Generated_Source\PSoC4/W5100.c ****  * \addtogroup w5100
   3:.\Generated_Source\PSoC4/W5100.c ****  * @{
   4:.\Generated_Source\PSoC4/W5100.c ****  */
   5:.\Generated_Source\PSoC4/W5100.c **** 
   6:.\Generated_Source\PSoC4/W5100.c **** /**
   7:.\Generated_Source\PSoC4/W5100.c ****  * \file Driver implementation for interfacing with the W5100 device
   8:.\Generated_Source\PSoC4/W5100.c ****  * \author Chuck Erhardt (chuck@e2forlife.com)
   9:.\Generated_Source\PSoC4/W5100.c ****  *
  10:.\Generated_Source\PSoC4/W5100.c ****  * This file contains the main driver implementation for control
  11:.\Generated_Source\PSoC4/W5100.c ****  * of the W5100 device.
  12:.\Generated_Source\PSoC4/W5100.c **** */
  13:.\Generated_Source\PSoC4/W5100.c **** 
  14:.\Generated_Source\PSoC4/W5100.c **** /*
  15:.\Generated_Source\PSoC4/W5100.c ****  * Change Log:
  16:.\Generated_Source\PSoC4/W5100.c ****  * 
  17:.\Generated_Source\PSoC4/W5100.c ****  * V1.1
  18:.\Generated_Source\PSoC4/W5100.c ****  * - Modified the SPI access function to remove hard wait for READ_WRITE_DELAY  <CE>
  19:.\Generated_Source\PSoC4/W5100.c ****  * - Removed READ_WRITE_DELAY Parameter <CE>
  20:.\Generated_Source\PSoC4/W5100.c ****  * - Added validator to SS_NUM parameter to ensure that the value is the range 0-3 <CE>
  21:.\Generated_Source\PSoC4/W5100.c ****  * - Removed "inline" keywords from interal register access function to promote
  22:.\Generated_Source\PSoC4/W5100.c ****  *   compatibility with Keil PSoC3 compilers that don't support them. <CE>
  23:.\Generated_Source\PSoC4/W5100.c ****  * - Fixed bug in _ProcessRxData() that caused the read pointer not to be updated without
  24:.\Generated_Source\PSoC4/W5100.c ****  *   the lookahead flag being set. <CE>
  25:.\Generated_Source\PSoC4/W5100.c ****  * V1.2
  26:.\Generated_Source\PSoC4/W5100.c ****  * - Added _STS_SPI_IDLE flag to _SpiDone conditions to prevent deadlocking that
  27:.\Generated_Source\PSoC4/W5100.c ****  *   was occuring during the first read or write using the SPI device (SPIM moded) <CE>
  28:.\Generated_Source\PSoC4/W5100.c ****  * - Removed the check for SOCKET_ESTABLISHED at the start of the TcpReceive
  29:.\Generated_Source\PSoC4/W5100.c ****  *   function to allow for reading received socket data after the socket was dropped
  30:.\Generated_Source\PSoC4/W5100.c ****  *   by the remote server.  It was brought to my attention that this occurs when
  31:.\Generated_Source\PSoC4/W5100.c ****  *   operating with client connection to HTTP servers. <CE>
  32:.\Generated_Source\PSoC4/W5100.c ****  * - Added a MAC address parser and MAC to String Converter. <CE>
ARM GAS  C:\Users\CHUCK~1.ERH\AppData\Local\Temp\cc506n3q.s 			page 2


  33:.\Generated_Source\PSoC4/W5100.c ****  */
  34:.\Generated_Source\PSoC4/W5100.c **** 
  35:.\Generated_Source\PSoC4/W5100.c **** /* Cypress library includes */
  36:.\Generated_Source\PSoC4/W5100.c **** #include <cytypes.h>
  37:.\Generated_Source\PSoC4/W5100.c **** #include <cylib.h>
  38:.\Generated_Source\PSoC4/W5100.c **** 
  39:.\Generated_Source\PSoC4/W5100.c **** /*  include functions and types for the driver */
  40:.\Generated_Source\PSoC4/W5100.c **** #include "W5100.h"
  41:.\Generated_Source\PSoC4/W5100.c **** /* include the serial interface functions */
  42:.\Generated_Source\PSoC4/W5100.c **** #include <SPI.h>
  43:.\Generated_Source\PSoC4/W5100.c **** 
  44:.\Generated_Source\PSoC4/W5100.c **** extern uint8 SPI_initVar;
  45:.\Generated_Source\PSoC4/W5100.c **** 
  46:.\Generated_Source\PSoC4/W5100.c **** typedef struct
  47:.\Generated_Source\PSoC4/W5100.c **** {
  48:.\Generated_Source\PSoC4/W5100.c **** 	uint8  Protocol;
  49:.\Generated_Source\PSoC4/W5100.c **** 	uint8  SocketFlags;
  50:.\Generated_Source\PSoC4/W5100.c **** 	uint16 SourcePort;
  51:.\Generated_Source\PSoC4/W5100.c **** 	uint8  ServerFlag;
  52:.\Generated_Source\PSoC4/W5100.c **** } W5100_SOCKET;
  53:.\Generated_Source\PSoC4/W5100.c **** 
  54:.\Generated_Source\PSoC4/W5100.c **** #define W5100_SOCKET_TX_BASE(s)    ( 0x4000 + (s<<15) )
  55:.\Generated_Source\PSoC4/W5100.c **** #define W5100_SOCKET_RX_BASE(s)    ( 0x6000 + (s<<15) )
  56:.\Generated_Source\PSoC4/W5100.c **** 
  57:.\Generated_Source\PSoC4/W5100.c **** static W5100_SOCKET W5100_SocketConfig[4];
  58:.\Generated_Source\PSoC4/W5100.c **** static uint32 W5100_SubnetMask;
  59:.\Generated_Source\PSoC4/W5100.c **** 
  60:.\Generated_Source\PSoC4/W5100.c **** static uint8 W5100_MAC[6]; /* V1.2: removed = {00-DE-AD-BE-EF-00}; */
  61:.\Generated_Source\PSoC4/W5100.c **** 
  62:.\Generated_Source\PSoC4/W5100.c **** /* ------------------------------------------------------------------------ */
  63:.\Generated_Source\PSoC4/W5100.c **** /* V1.2 HEX digit conversion tools for MAC Address parsing */
  64:.\Generated_Source\PSoC4/W5100.c **** #define W5100_ISXDIGIT(x) \
  65:.\Generated_Source\PSoC4/W5100.c **** ( ((x>='0')&&(x<='9'))||((x>='a')&&(x<='f'))||((x>='A')&&(x<='F')) )
  66:.\Generated_Source\PSoC4/W5100.c **** /* ------------------------------------------------------------------------ */
  67:.\Generated_Source\PSoC4/W5100.c **** #define W5100_HEX2BIN(x) \
  68:.\Generated_Source\PSoC4/W5100.c **** ( ((x>='0')&&(x<='9'))? (x-'0') : \
  69:.\Generated_Source\PSoC4/W5100.c ****   ((x>='a')&&(x<='f'))? ((x-'a')+10) : \
  70:.\Generated_Source\PSoC4/W5100.c ****   ((x>='A')&&(x<='F'))? ((x-'A')+10) : 0 )
  71:.\Generated_Source\PSoC4/W5100.c **** /* ------------------------------------------------------------------------ */
  72:.\Generated_Source\PSoC4/W5100.c **** #define W5100_BIN2HEX(x) \
  73:.\Generated_Source\PSoC4/W5100.c **** ( (x>9)? ((x-10)+'A') : (x + '0'))
  74:.\Generated_Source\PSoC4/W5100.c **** /* END V1.2 defines */
  75:.\Generated_Source\PSoC4/W5100.c **** /* ------------------------------------------------------------------------ */
  76:.\Generated_Source\PSoC4/W5100.c **** 
  77:.\Generated_Source\PSoC4/W5100.c **** /* ======================================================================== */
  78:.\Generated_Source\PSoC4/W5100.c **** /* Generic SPI Functions */
  79:.\Generated_Source\PSoC4/W5100.c **** /*
  80:.\Generated_Source\PSoC4/W5100.c ****  * NOTE: when using the SPIM, there must be a buffer length of at least 4
  81:.\Generated_Source\PSoC4/W5100.c ****  * bytes to allow the transfer/receive cycle for each read/write operation
  82:.\Generated_Source\PSoC4/W5100.c ****  * to be contained within the FIFO buffer.
  83:.\Generated_Source\PSoC4/W5100.c ****  */
  84:.\Generated_Source\PSoC4/W5100.c **** #if !defined(CY_SCB_SPI_H)
  85:.\Generated_Source\PSoC4/W5100.c **** /* ------------------------------------------------------------------------ */	
  86:.\Generated_Source\PSoC4/W5100.c **** /* V1.1 : Macro definition for the SpiDone flag. */
  87:.\Generated_Source\PSoC4/W5100.c **** /*  
  88:.\Generated_Source\PSoC4/W5100.c **** 	V1.2 : Added SPI_IDLE flag to the condition for done to eliminate
  89:.\Generated_Source\PSoC4/W5100.c **** 	deadlocking when IDLE but not done.  This seems to occur during the
ARM GAS  C:\Users\CHUCK~1.ERH\AppData\Local\Temp\cc506n3q.s 			page 3


  90:.\Generated_Source\PSoC4/W5100.c **** 	initial write/read to/from the SPI port.
  91:.\Generated_Source\PSoC4/W5100.c **** */
  92:.\Generated_Source\PSoC4/W5100.c **** /**
  93:.\Generated_Source\PSoC4/W5100.c ****  * \brief Macro to determine the state of the spi done
  94:.\Generated_Source\PSoC4/W5100.c ****  * This macro reads the status register of the transmitter and masks off the doen bit.
  95:.\Generated_Source\PSoC4/W5100.c ****  */
  96:.\Generated_Source\PSoC4/W5100.c **** #define W5100_SpiDone     (SPI_ReadTxStatus() & (SPI_STS_SPI_DONE | SPI_STS_SPI_IDLE))
  97:.\Generated_Source\PSoC4/W5100.c **** /* ------------------------------------------------------------------------ */
  98:.\Generated_Source\PSoC4/W5100.c **** /**
  99:.\Generated_Source\PSoC4/W5100.c ****  * \brief Select the active SCB chip select connected to the W51
 100:.\Generated_Source\PSoC4/W5100.c ****  *
 101:.\Generated_Source\PSoC4/W5100.c ****  * this fucntion will set the active SS line within the SCB to select and
 102:.\Generated_Source\PSoC4/W5100.c ****  * communicate with the W5100 device.
 103:.\Generated_Source\PSoC4/W5100.c ****  * \note this functions requires that the device chip select is originating
 104:.\Generated_Source\PSoC4/W5100.c ****  *  from the SPI device.
 105:.\Generated_Source\PSoC4/W5100.c ****  */
 106:.\Generated_Source\PSoC4/W5100.c **** static void W5100_W51_Select( void )
 107:.\Generated_Source\PSoC4/W5100.c **** {
 108:.\Generated_Source\PSoC4/W5100.c **** 	/*
 109:.\Generated_Source\PSoC4/W5100.c **** 	 * User code for setting the chip select enable.  This is called once
 110:.\Generated_Source\PSoC4/W5100.c **** 	 * at the beginning of each tranfer to/from the W5100, so we recommend
 111:.\Generated_Source\PSoC4/W5100.c **** 	 * either doing nothing (SPIM SS straight out), or to switch the demux
 112:.\Generated_Source\PSoC4/W5100.c **** 	 * component to select the correct output for the SS routing.  This
 113:.\Generated_Source\PSoC4/W5100.c **** 	 * should probably not drive a pin directly since there is no return
 114:.\Generated_Source\PSoC4/W5100.c **** 	 * call from the driver that would allow an enable/disable type of
 115:.\Generated_Source\PSoC4/W5100.c **** 	 * implementation for CSN control.
 116:.\Generated_Source\PSoC4/W5100.c **** 	 */
 117:.\Generated_Source\PSoC4/W5100.c **** 	/* `#START CHIP_SELECT_GENERATION` */
 118:.\Generated_Source\PSoC4/W5100.c **** 
 119:.\Generated_Source\PSoC4/W5100.c **** 	/* `#END` */
 120:.\Generated_Source\PSoC4/W5100.c **** }
 121:.\Generated_Source\PSoC4/W5100.c **** /* ------------------------------------------------------------------------ */
 122:.\Generated_Source\PSoC4/W5100.c **** /**
 123:.\Generated_Source\PSoC4/W5100.c ****  * \brief write Data to the W5100 at the specified address
 124:.\Generated_Source\PSoC4/W5100.c ****  * \param addr Address of register or memory buffer
 125:.\Generated_Source\PSoC4/W5100.c ****  * \param dat Data to write to the device
 126:.\Generated_Source\PSoC4/W5100.c ****  *
 127:.\Generated_Source\PSoC4/W5100.c ****  * This function will send the WRITE opcode, address and data to the W5100
 128:.\Generated_Source\PSoC4/W5100.c ****  * in order to write the data to the specified register.
 129:.\Generated_Source\PSoC4/W5100.c ****  */
 130:.\Generated_Source\PSoC4/W5100.c **** void W5100_W51_Write(uint16 addr, uint8 dat)
 131:.\Generated_Source\PSoC4/W5100.c **** {
 132:.\Generated_Source\PSoC4/W5100.c **** 	/* V1.1: Wait for SPI operation to complete */
 133:.\Generated_Source\PSoC4/W5100.c **** 	while( W5100_SpiDone == 0) {
 134:.\Generated_Source\PSoC4/W5100.c **** 		CyDelayUs(1);
 135:.\Generated_Source\PSoC4/W5100.c **** 	}
 136:.\Generated_Source\PSoC4/W5100.c **** 	/* V1.1: End change */
 137:.\Generated_Source\PSoC4/W5100.c **** 	
 138:.\Generated_Source\PSoC4/W5100.c **** 	/* Using internal device SS generation */
 139:.\Generated_Source\PSoC4/W5100.c **** 	W5100_W51_Select();
 140:.\Generated_Source\PSoC4/W5100.c **** 	/*
 141:.\Generated_Source\PSoC4/W5100.c **** 	 * The first thing to do is to clear the Rx Buffer of any lingering
 142:.\Generated_Source\PSoC4/W5100.c **** 	 * data left from other transfers.  Then send the data per the W5100
 143:.\Generated_Source\PSoC4/W5100.c **** 	 * datasheet p.62
 144:.\Generated_Source\PSoC4/W5100.c **** 	 */
 145:.\Generated_Source\PSoC4/W5100.c **** 	SPI_ClearRxBuffer();
 146:.\Generated_Source\PSoC4/W5100.c **** 	/* Begin transfer of data to device */
ARM GAS  C:\Users\CHUCK~1.ERH\AppData\Local\Temp\cc506n3q.s 			page 4


 147:.\Generated_Source\PSoC4/W5100.c **** 	SPI_WriteTxData(W5100_WRITE_OP);
 148:.\Generated_Source\PSoC4/W5100.c **** 	SPI_WriteTxData((addr>>8)&0x00FF);
 149:.\Generated_Source\PSoC4/W5100.c **** 	SPI_WriteTxData(addr&0x00FF);
 150:.\Generated_Source\PSoC4/W5100.c **** 	SPI_WriteTxData(dat);
 151:.\Generated_Source\PSoC4/W5100.c **** 
 152:.\Generated_Source\PSoC4/W5100.c **** }
 153:.\Generated_Source\PSoC4/W5100.c **** 
 154:.\Generated_Source\PSoC4/W5100.c **** /* ------------------------------------------------------------------------ */
 155:.\Generated_Source\PSoC4/W5100.c **** /**
 156:.\Generated_Source\PSoC4/W5100.c ****  * \brief Read data from the W5100 at the spsecified address
 157:.\Generated_Source\PSoC4/W5100.c ****  * \param addr Address from which to read
 158:.\Generated_Source\PSoC4/W5100.c ****  * \returns the data read from the address
 159:.\Generated_Source\PSoC4/W5100.c ****  *
 160:.\Generated_Source\PSoC4/W5100.c ****  * this fucntion will access a W5100 memory location and read the contents
 161:.\Generated_Source\PSoC4/W5100.c ****  * using the serial protocol specified on P.61 of the datasheet.
 162:.\Generated_Source\PSoC4/W5100.c ****  */
 163:.\Generated_Source\PSoC4/W5100.c **** uint8 W5100_W51_Read(uint16 addr)
 164:.\Generated_Source\PSoC4/W5100.c **** {
 165:.\Generated_Source\PSoC4/W5100.c **** 	uint32 dat;
 166:.\Generated_Source\PSoC4/W5100.c **** 	uint32 count;
 167:.\Generated_Source\PSoC4/W5100.c **** 	
 168:.\Generated_Source\PSoC4/W5100.c **** 	/* V1.1: Wait for SPI operation to complete */
 169:.\Generated_Source\PSoC4/W5100.c **** 	while( W5100_SpiDone == 0) {
 170:.\Generated_Source\PSoC4/W5100.c **** 		CyDelayUs(1);
 171:.\Generated_Source\PSoC4/W5100.c **** 	}
 172:.\Generated_Source\PSoC4/W5100.c **** 	/* V1.1: End change */
 173:.\Generated_Source\PSoC4/W5100.c **** 
 174:.\Generated_Source\PSoC4/W5100.c **** 	/* Using internal device SS generation */
 175:.\Generated_Source\PSoC4/W5100.c **** 	W5100_W51_Select();
 176:.\Generated_Source\PSoC4/W5100.c **** 	/*
 177:.\Generated_Source\PSoC4/W5100.c **** 	 * First, clear the Rx Buffer of any waiting data.  Then begin the
 178:.\Generated_Source\PSoC4/W5100.c **** 	 * read operation by sending the op code, followed byte the address
 179:.\Generated_Source\PSoC4/W5100.c **** 	 * from which the read will be executed, then send a dummy byte
 180:.\Generated_Source\PSoC4/W5100.c **** 	 * of zeros to read the data from the device.
 181:.\Generated_Source\PSoC4/W5100.c **** 	 */
 182:.\Generated_Source\PSoC4/W5100.c **** 	SPI_ClearRxBuffer();
 183:.\Generated_Source\PSoC4/W5100.c **** 	/* Begin data read */
 184:.\Generated_Source\PSoC4/W5100.c **** 	SPI_WriteTxData(W5100_READ_OP);
 185:.\Generated_Source\PSoC4/W5100.c **** 	SPI_WriteTxData(addr>>8);
 186:.\Generated_Source\PSoC4/W5100.c **** 	SPI_WriteTxData(addr&0x00FF);
 187:.\Generated_Source\PSoC4/W5100.c **** 	SPI_WriteTxData( 0 );
 188:.\Generated_Source\PSoC4/W5100.c **** 	
 189:.\Generated_Source\PSoC4/W5100.c **** 	/* Wait for operations to complete. */
 190:.\Generated_Source\PSoC4/W5100.c **** 	/* V1.1: Wait for SPI operation to complete */
 191:.\Generated_Source\PSoC4/W5100.c **** 	while( W5100_SpiDone == 0) {
 192:.\Generated_Source\PSoC4/W5100.c **** 		CyDelayUs(1);
 193:.\Generated_Source\PSoC4/W5100.c **** 	}
 194:.\Generated_Source\PSoC4/W5100.c **** 	/* V1.1: End change */
 195:.\Generated_Source\PSoC4/W5100.c **** 
 196:.\Generated_Source\PSoC4/W5100.c **** 	count = SPI_GetRxBufferSize();
 197:.\Generated_Source\PSoC4/W5100.c **** 	while( count > 0 )
 198:.\Generated_Source\PSoC4/W5100.c **** 	{
 199:.\Generated_Source\PSoC4/W5100.c **** 		dat = SPI_ReadRxData(); 
 200:.\Generated_Source\PSoC4/W5100.c **** 		count = SPI_GetRxBufferSize();
 201:.\Generated_Source\PSoC4/W5100.c **** 	}
 202:.\Generated_Source\PSoC4/W5100.c **** 	
 203:.\Generated_Source\PSoC4/W5100.c **** 	return( dat&0xFF );
ARM GAS  C:\Users\CHUCK~1.ERH\AppData\Local\Temp\cc506n3q.s 			page 5


 204:.\Generated_Source\PSoC4/W5100.c **** }
 205:.\Generated_Source\PSoC4/W5100.c **** /* ======================================================================== */
 206:.\Generated_Source\PSoC4/W5100.c **** /* SCB Specific Functions */
 207:.\Generated_Source\PSoC4/W5100.c **** #else
 208:.\Generated_Source\PSoC4/W5100.c **** /* include SPI function header for the SCB */
 209:.\Generated_Source\PSoC4/W5100.c **** #include <SPI_SPI_UART.h>
 210:.\Generated_Source\PSoC4/W5100.c **** 
 211:.\Generated_Source\PSoC4/W5100.c **** /* V1.1 : Include the header for the select pin used. */
 212:.\Generated_Source\PSoC4/W5100.c **** #if (1 == 0)
 213:.\Generated_Source\PSoC4/W5100.c **** #include <SPI_ss0_m.h>
 214:.\Generated_Source\PSoC4/W5100.c **** #define W5100_SpiDone    (SPI_ss0_m_Read())
 215:.\Generated_Source\PSoC4/W5100.c **** #elif (1 == 1)
 216:.\Generated_Source\PSoC4/W5100.c **** #include <SPI_ss1_m.h>
 217:.\Generated_Source\PSoC4/W5100.c **** #define W5100_SpiDone    (SPI_ss1_m_Read())
 218:.\Generated_Source\PSoC4/W5100.c **** #elif (1 == 2)
 219:.\Generated_Source\PSoC4/W5100.c **** #include <SPI_ss2_m.h>
 220:.\Generated_Source\PSoC4/W5100.c **** #define W5100_SpiDone    (SPI_ss2_m_Read())
 221:.\Generated_Source\PSoC4/W5100.c **** #elif (1 == 3)
 222:.\Generated_Source\PSoC4/W5100.c **** #include <SPI_ss3_m.h>
 223:.\Generated_Source\PSoC4/W5100.c **** #define W5100_SpiDone    (SPI_ss3_m_Read())
 224:.\Generated_Source\PSoC4/W5100.c **** #else
 225:.\Generated_Source\PSoC4/W5100.c **** #include <SPI_ss0_m.h>
 226:.\Generated_Source\PSoC4/W5100.c **** #define W5100_SpiDone    (SPI_ss0_m_Read())
 227:.\Generated_Source\PSoC4/W5100.c **** #endif
 228:.\Generated_Source\PSoC4/W5100.c **** /* ------------------------------------------------------------------------ */
 229:.\Generated_Source\PSoC4/W5100.c **** /**
 230:.\Generated_Source\PSoC4/W5100.c ****  * \brief Select the active SCB chip select connected to the W51
 231:.\Generated_Source\PSoC4/W5100.c ****  *
 232:.\Generated_Source\PSoC4/W5100.c ****  * this fucntion will set the active SS line within the SCB to select and
 233:.\Generated_Source\PSoC4/W5100.c ****  * communicate with the W5100 device.
 234:.\Generated_Source\PSoC4/W5100.c ****  */
 235:.\Generated_Source\PSoC4/W5100.c **** static void W5100_W51_Select( void )
 236:.\Generated_Source\PSoC4/W5100.c **** {
 237:.\Generated_Source\PSoC4/W5100.c **** #if (1 == 0)
 238:.\Generated_Source\PSoC4/W5100.c **** 	SPI_SpiSetActiveSlaveSelect( SPI_SPIM_ACTIVE_SS0 );
 239:.\Generated_Source\PSoC4/W5100.c **** #elif (1 == 1)
 240:.\Generated_Source\PSoC4/W5100.c **** 	SPI_SpiSetActiveSlaveSelect( SPI_SPIM_ACTIVE_SS1 );
 241:.\Generated_Source\PSoC4/W5100.c **** #elif (1 == 2)
 242:.\Generated_Source\PSoC4/W5100.c **** 	SPI_SpiSetActiveSlaveSelect( SPI_SPIM_ACTIVE_SS2 );
 243:.\Generated_Source\PSoC4/W5100.c **** #elif (1 == 3)
 244:.\Generated_Source\PSoC4/W5100.c **** 	SPI_SpiSetActiveSlaveSelect( SPI_SPIM_ACTIVE_SS3 );
 245:.\Generated_Source\PSoC4/W5100.c **** #else
 246:.\Generated_Source\PSoC4/W5100.c **** 		SPI_SpiSetActiveSlaveSelect(0);
 247:.\Generated_Source\PSoC4/W5100.c **** #endif
 248:.\Generated_Source\PSoC4/W5100.c **** }
 249:.\Generated_Source\PSoC4/W5100.c **** /* ------------------------------------------------------------------------ */
 250:.\Generated_Source\PSoC4/W5100.c **** /**
 251:.\Generated_Source\PSoC4/W5100.c ****  * \brief write Data to the W5100 at the specified address
 252:.\Generated_Source\PSoC4/W5100.c ****  * \param addr Address of register or memory buffer
 253:.\Generated_Source\PSoC4/W5100.c ****  * \param dat Data to write to the device
 254:.\Generated_Source\PSoC4/W5100.c ****  *
 255:.\Generated_Source\PSoC4/W5100.c ****  * This function will send the WRITE opcode, address and data to the W5100
 256:.\Generated_Source\PSoC4/W5100.c ****  * in order to write the data to the specified register.
 257:.\Generated_Source\PSoC4/W5100.c ****  */
 258:.\Generated_Source\PSoC4/W5100.c **** void W5100_W51_Write(uint16 addr, uint8 dat)
 259:.\Generated_Source\PSoC4/W5100.c **** {
  26              		.loc 1 259 0
ARM GAS  C:\Users\CHUCK~1.ERH\AppData\Local\Temp\cc506n3q.s 			page 6


  27              		.cfi_startproc
  28              	.LVL0:
  29 0000 38B5     		push	{r3, r4, r5, lr}
  30              	.LCFI0:
  31              		.cfi_def_cfa_offset 16
  32              		.cfi_offset 3, -16
  33              		.cfi_offset 4, -12
  34              		.cfi_offset 5, -8
  35              		.cfi_offset 14, -4
  36 0002 041C     		mov	r4, r0
  37 0004 0D1C     		mov	r5, r1
  38              	.LVL1:
  39              	.L2:
 260:.\Generated_Source\PSoC4/W5100.c **** 	/* V1.1: Wait for SPI operation to complete */
 261:.\Generated_Source\PSoC4/W5100.c **** 	while( W5100_SpiDone == 0) {
  40              		.loc 1 261 0 discriminator 1
  41 0006 FFF7FEFF 		bl	SPI_ss1_m_Read
  42              	.LVL2:
  43 000a 0028     		cmp	r0, #0
  44 000c 03D1     		bne	.L5
  45              	.L3:
 262:.\Generated_Source\PSoC4/W5100.c **** 		CyDelayUs(1);
  46              		.loc 1 262 0
  47 000e 0120     		mov	r0, #1
  48 0010 FFF7FEFF 		bl	CyDelayUs
  49              	.LVL3:
  50 0014 F7E7     		b	.L2
  51              	.L5:
  52              	.LBB4:
  53              	.LBB5:
 240:.\Generated_Source\PSoC4/W5100.c **** 	SPI_SpiSetActiveSlaveSelect( SPI_SPIM_ACTIVE_SS1 );
  54              		.loc 1 240 0
  55 0016 0120     		mov	r0, #1
  56 0018 FFF7FEFF 		bl	SPI_SpiSetActiveSlaveSelect
  57              	.LVL4:
  58              	.LBE5:
  59              	.LBE4:
 263:.\Generated_Source\PSoC4/W5100.c **** 	}
 264:.\Generated_Source\PSoC4/W5100.c **** 	/* V1.1: End change */
 265:.\Generated_Source\PSoC4/W5100.c **** 
 266:.\Generated_Source\PSoC4/W5100.c **** 	/* Using internal device SS generation */
 267:.\Generated_Source\PSoC4/W5100.c **** 	W5100_W51_Select();
 268:.\Generated_Source\PSoC4/W5100.c **** 	/*
 269:.\Generated_Source\PSoC4/W5100.c **** 	 * The first thing to do is to clear the Rx Buffer of any lingering
 270:.\Generated_Source\PSoC4/W5100.c **** 	 * data left from other transfers.  Then send the data per the W5100
 271:.\Generated_Source\PSoC4/W5100.c **** 	 * datasheet p.62
 272:.\Generated_Source\PSoC4/W5100.c **** 	 */
 273:.\Generated_Source\PSoC4/W5100.c **** 	SPI_SpiUartClearRxBuffer();
  60              		.loc 1 273 0
  61 001c FFF7FEFF 		bl	SPI_SpiUartClearRxBuffer
  62              	.LVL5:
 274:.\Generated_Source\PSoC4/W5100.c **** 	/* Begin transfer of data to device */
 275:.\Generated_Source\PSoC4/W5100.c **** 	SPI_SpiUartWriteTxData(W5100_WRITE_OP);
  63              		.loc 1 275 0
  64 0020 F020     		mov	r0, #240
  65 0022 FFF7FEFF 		bl	SPI_SpiUartWriteTxData
  66              	.LVL6:
ARM GAS  C:\Users\CHUCK~1.ERH\AppData\Local\Temp\cc506n3q.s 			page 7


 276:.\Generated_Source\PSoC4/W5100.c **** 	SPI_SpiUartWriteTxData((addr>>8)&0x00FF);
  67              		.loc 1 276 0
  68 0026 200A     		lsr	r0, r4, #8
  69 0028 FFF7FEFF 		bl	SPI_SpiUartWriteTxData
  70              	.LVL7:
 277:.\Generated_Source\PSoC4/W5100.c **** 	SPI_SpiUartWriteTxData(addr&0x00FF);
  71              		.loc 1 277 0
  72 002c E0B2     		uxtb	r0, r4
  73 002e FFF7FEFF 		bl	SPI_SpiUartWriteTxData
  74              	.LVL8:
 278:.\Generated_Source\PSoC4/W5100.c **** 	SPI_SpiUartWriteTxData(dat);
  75              		.loc 1 278 0
  76 0032 281C     		mov	r0, r5
  77 0034 FFF7FEFF 		bl	SPI_SpiUartWriteTxData
  78              	.LVL9:
 279:.\Generated_Source\PSoC4/W5100.c **** }
  79              		.loc 1 279 0
  80              		@ sp needed for prologue
  81 0038 38BD     		pop	{r3, r4, r5, pc}
  82              		.cfi_endproc
  83              	.LFE1:
  84              		.size	W5100_W51_Write, .-W5100_W51_Write
  85              		.section	.text.W5100_W51_Write16,"ax",%progbits
  86              		.align	1
  87              		.code	16
  88              		.thumb_func
  89              		.type	W5100_W51_Write16, %function
  90              	W5100_W51_Write16:
  91              	.LFB7:
 280:.\Generated_Source\PSoC4/W5100.c **** /* ------------------------------------------------------------------------ */
 281:.\Generated_Source\PSoC4/W5100.c **** /**
 282:.\Generated_Source\PSoC4/W5100.c ****  * \brief Read data from the W5100 at the spsecified address
 283:.\Generated_Source\PSoC4/W5100.c ****  * \param addr Address from which to read
 284:.\Generated_Source\PSoC4/W5100.c ****  * \returns the data read from the address
 285:.\Generated_Source\PSoC4/W5100.c ****  *
 286:.\Generated_Source\PSoC4/W5100.c ****  * this fucntion will access a W5100 memory location and read the contents
 287:.\Generated_Source\PSoC4/W5100.c ****  * using the serial protocol specified on P.61 of the datasheet.
 288:.\Generated_Source\PSoC4/W5100.c ****  */
 289:.\Generated_Source\PSoC4/W5100.c **** uint8 W5100_W51_Read(uint16 addr)
 290:.\Generated_Source\PSoC4/W5100.c **** {
 291:.\Generated_Source\PSoC4/W5100.c **** 	uint32 dat;
 292:.\Generated_Source\PSoC4/W5100.c **** 	uint32 count;
 293:.\Generated_Source\PSoC4/W5100.c **** 	
 294:.\Generated_Source\PSoC4/W5100.c **** 	/* V1.1: Wait for SPI operation to complete */
 295:.\Generated_Source\PSoC4/W5100.c **** 	while( W5100_SpiDone == 0) {
 296:.\Generated_Source\PSoC4/W5100.c **** 		CyDelayUs(1);
 297:.\Generated_Source\PSoC4/W5100.c **** 	}
 298:.\Generated_Source\PSoC4/W5100.c **** 	/* V1.1: End change */
 299:.\Generated_Source\PSoC4/W5100.c **** 
 300:.\Generated_Source\PSoC4/W5100.c **** 	/* Using internal device SS generation */
 301:.\Generated_Source\PSoC4/W5100.c **** 	W5100_W51_Select();
 302:.\Generated_Source\PSoC4/W5100.c **** 	/*
 303:.\Generated_Source\PSoC4/W5100.c **** 	 * First, clear the Rx Buffer of any waiting data.  Then begin the
 304:.\Generated_Source\PSoC4/W5100.c **** 	 * read operation by sending the op code, followed byte the address
 305:.\Generated_Source\PSoC4/W5100.c **** 	 * from which the read will be executed, then send a dummy byte
 306:.\Generated_Source\PSoC4/W5100.c **** 	 * of zeros to read the data from the device.
 307:.\Generated_Source\PSoC4/W5100.c **** 	 */
ARM GAS  C:\Users\CHUCK~1.ERH\AppData\Local\Temp\cc506n3q.s 			page 8


 308:.\Generated_Source\PSoC4/W5100.c **** 	SPI_SpiUartClearRxBuffer();
 309:.\Generated_Source\PSoC4/W5100.c **** 	/* Begin data read */
 310:.\Generated_Source\PSoC4/W5100.c **** 	SPI_SpiUartWriteTxData(W5100_READ_OP);
 311:.\Generated_Source\PSoC4/W5100.c **** 	SPI_SpiUartWriteTxData(addr>>8);
 312:.\Generated_Source\PSoC4/W5100.c **** 	SPI_SpiUartWriteTxData(addr&0x00FF);
 313:.\Generated_Source\PSoC4/W5100.c **** 	SPI_SpiUartWriteTxData( 0 );
 314:.\Generated_Source\PSoC4/W5100.c **** 	/* Wait for operations to complete. */
 315:.\Generated_Source\PSoC4/W5100.c **** 	/* V1.1: Wait for SPI operation to complete */
 316:.\Generated_Source\PSoC4/W5100.c **** 	while( W5100_SpiDone == 0) {
 317:.\Generated_Source\PSoC4/W5100.c **** 		CyDelayUs(1);
 318:.\Generated_Source\PSoC4/W5100.c **** 	}
 319:.\Generated_Source\PSoC4/W5100.c **** 	/* V1.1: End change */
 320:.\Generated_Source\PSoC4/W5100.c **** 
 321:.\Generated_Source\PSoC4/W5100.c **** 	count = SPI_SpiUartGetRxBufferSize();
 322:.\Generated_Source\PSoC4/W5100.c **** 	while( count > 0 )
 323:.\Generated_Source\PSoC4/W5100.c **** 	{
 324:.\Generated_Source\PSoC4/W5100.c **** 		dat = SPI_SpiUartReadRxData(); 
 325:.\Generated_Source\PSoC4/W5100.c **** 		count = SPI_SpiUartGetRxBufferSize();
 326:.\Generated_Source\PSoC4/W5100.c **** 	}
 327:.\Generated_Source\PSoC4/W5100.c **** 	
 328:.\Generated_Source\PSoC4/W5100.c **** 	return( dat&0xFF );
 329:.\Generated_Source\PSoC4/W5100.c **** }
 330:.\Generated_Source\PSoC4/W5100.c **** 
 331:.\Generated_Source\PSoC4/W5100.c **** #endif
 332:.\Generated_Source\PSoC4/W5100.c **** 
 333:.\Generated_Source\PSoC4/W5100.c **** /* ======================================================================== */
 334:.\Generated_Source\PSoC4/W5100.c **** /* W5100 Register Access Primitaves */
 335:.\Generated_Source\PSoC4/W5100.c **** #if (1)
 336:.\Generated_Source\PSoC4/W5100.c **** /* ------------------------------------------------------------------------ */
 337:.\Generated_Source\PSoC4/W5100.c **** /**
 338:.\Generated_Source\PSoC4/W5100.c ****  * \brief Write a MAC (hardware) address to a group of registers
 339:.\Generated_Source\PSoC4/W5100.c ****  * \param addr The starting address of the registers/memory for the MAC address
 340:.\Generated_Source\PSoC4/W5100.c ****  * \param *mac pointer to the array of bytes holding the MAC address.
 341:.\Generated_Source\PSoC4/W5100.c ****  */
 342:.\Generated_Source\PSoC4/W5100.c **** static void W5100_W51_SetMAC(uint16 addr, uint8 *mac)
 343:.\Generated_Source\PSoC4/W5100.c **** {
 344:.\Generated_Source\PSoC4/W5100.c **** 	uint32 index;
 345:.\Generated_Source\PSoC4/W5100.c **** 	
 346:.\Generated_Source\PSoC4/W5100.c **** 	for(index = 0;index<6;++index)
 347:.\Generated_Source\PSoC4/W5100.c **** 	{
 348:.\Generated_Source\PSoC4/W5100.c **** 		W5100_W51_Write(addr+index,mac[index]);
 349:.\Generated_Source\PSoC4/W5100.c **** 	}
 350:.\Generated_Source\PSoC4/W5100.c **** }
 351:.\Generated_Source\PSoC4/W5100.c **** /* ------------------------------------------------------------------------ */
 352:.\Generated_Source\PSoC4/W5100.c **** /**
 353:.\Generated_Source\PSoC4/W5100.c ****  * \brief Read a MAC (hardware) address from a set of registers.
 354:.\Generated_Source\PSoC4/W5100.c ****  * \param addr the address from which the data will be read
 355:.\Generated_Source\PSoC4/W5100.c ****  * \param *mac pointer to the array of bytes to hold the output mac address.
 356:.\Generated_Source\PSoC4/W5100.c ****  */
 357:.\Generated_Source\PSoC4/W5100.c **** static void W5100_W51_GetMAC( uint16 addr, uint8* mac )
 358:.\Generated_Source\PSoC4/W5100.c **** {
 359:.\Generated_Source\PSoC4/W5100.c **** 	uint32 index;
 360:.\Generated_Source\PSoC4/W5100.c **** 	for(index=0;index<6;++index) {
 361:.\Generated_Source\PSoC4/W5100.c **** 		mac[index] = W5100_W51_Read(addr+index);
 362:.\Generated_Source\PSoC4/W5100.c **** 	}
 363:.\Generated_Source\PSoC4/W5100.c **** }
 364:.\Generated_Source\PSoC4/W5100.c **** /* ------------------------------------------------------------------------ */
ARM GAS  C:\Users\CHUCK~1.ERH\AppData\Local\Temp\cc506n3q.s 			page 9


 365:.\Generated_Source\PSoC4/W5100.c **** /**
 366:.\Generated_Source\PSoC4/W5100.c ****  * \brief Write an IPv4 address to the device.
 367:.\Generated_Source\PSoC4/W5100.c ****  * \param addr the address of the memory/registers to write the IPv4 Address
 368:.\Generated_Source\PSoC4/W5100.c ****  * \param ip the IP address to write
 369:.\Generated_Source\PSoC4/W5100.c ****  */
 370:.\Generated_Source\PSoC4/W5100.c **** static void W5100_W51_SetIP( uint16 addr, uint32 ip )
 371:.\Generated_Source\PSoC4/W5100.c **** {
 372:.\Generated_Source\PSoC4/W5100.c **** 	uint32 index;
 373:.\Generated_Source\PSoC4/W5100.c **** 	uint8* buffer;
 374:.\Generated_Source\PSoC4/W5100.c **** 
 375:.\Generated_Source\PSoC4/W5100.c **** 	buffer = (uint8*)&ip;
 376:.\Generated_Source\PSoC4/W5100.c **** 	for(index = 0;index<4;++index) {
 377:.\Generated_Source\PSoC4/W5100.c **** 		W5100_W51_Write(addr+index,buffer[index]);
 378:.\Generated_Source\PSoC4/W5100.c **** 	}
 379:.\Generated_Source\PSoC4/W5100.c **** }
 380:.\Generated_Source\PSoC4/W5100.c **** /* ------------------------------------------------------------------------ */
 381:.\Generated_Source\PSoC4/W5100.c **** /**
 382:.\Generated_Source\PSoC4/W5100.c ****  * \brief Read an IPv4 address from a set of registers
 383:.\Generated_Source\PSoC4/W5100.c ****  * \param addr the address from which the IP address will be retrieved.
 384:.\Generated_Source\PSoC4/W5100.c ****  * \returns the IP address read from the device.
 385:.\Generated_Source\PSoC4/W5100.c ****  */
 386:.\Generated_Source\PSoC4/W5100.c **** static uint32 W5100_W51_GetIP( uint16 addr )
 387:.\Generated_Source\PSoC4/W5100.c **** {
 388:.\Generated_Source\PSoC4/W5100.c **** 	uint8 buffer[4];
 389:.\Generated_Source\PSoC4/W5100.c **** 	int index;
 390:.\Generated_Source\PSoC4/W5100.c **** 	uint32* ip;
 391:.\Generated_Source\PSoC4/W5100.c **** 	
 392:.\Generated_Source\PSoC4/W5100.c **** 	ip = (uint32*) &buffer[0];
 393:.\Generated_Source\PSoC4/W5100.c **** 	*ip = 0;
 394:.\Generated_Source\PSoC4/W5100.c **** 	for(index=0;index<4;++index) {
 395:.\Generated_Source\PSoC4/W5100.c **** 		buffer[index] = W5100_W51_Read(addr+index);
 396:.\Generated_Source\PSoC4/W5100.c **** 	}
 397:.\Generated_Source\PSoC4/W5100.c **** 	return( *ip );
 398:.\Generated_Source\PSoC4/W5100.c **** }
 399:.\Generated_Source\PSoC4/W5100.c **** /* ------------------------------------------------------------------------ */
 400:.\Generated_Source\PSoC4/W5100.c **** /**
 401:.\Generated_Source\PSoC4/W5100.c ****  * \brief Write a 16-bit word to the device
 402:.\Generated_Source\PSoC4/W5100.c ****  * \param addr the starting address to which the data will be written
 403:.\Generated_Source\PSoC4/W5100.c ****  * \param val the 16-bit value to write
 404:.\Generated_Source\PSoC4/W5100.c ****  */
 405:.\Generated_Source\PSoC4/W5100.c **** static void W5100_W51_Write16( uint16 addr, uint16 val )
 406:.\Generated_Source\PSoC4/W5100.c **** {
  92              		.loc 1 406 0
  93              		.cfi_startproc
  94              	.LVL10:
  95 0000 38B5     		push	{r3, r4, r5, lr}
  96              	.LCFI1:
  97              		.cfi_def_cfa_offset 16
  98              		.cfi_offset 3, -16
  99              		.cfi_offset 4, -12
 100              		.cfi_offset 5, -8
 101              		.cfi_offset 14, -4
 102              		.loc 1 406 0
 103 0002 051C     		mov	r5, r0
 104 0004 0C1C     		mov	r4, r1
 407:.\Generated_Source\PSoC4/W5100.c **** 	W5100_W51_Write( addr, val>>8);
 408:.\Generated_Source\PSoC4/W5100.c **** 	W5100_W51_Write( addr + 1, val&0x00FF);
ARM GAS  C:\Users\CHUCK~1.ERH\AppData\Local\Temp\cc506n3q.s 			page 10


 105              		.loc 1 408 0
 106 0006 0135     		add	r5, r5, #1
 407:.\Generated_Source\PSoC4/W5100.c **** 	W5100_W51_Write( addr, val>>8);
 107              		.loc 1 407 0
 108 0008 090A     		lsr	r1, r1, #8
 109              	.LVL11:
 110 000a FFF7FEFF 		bl	W5100_W51_Write
 111              	.LVL12:
 112              		.loc 1 408 0
 113 000e A8B2     		uxth	r0, r5
 114 0010 E1B2     		uxtb	r1, r4
 115 0012 FFF7FEFF 		bl	W5100_W51_Write
 116              	.LVL13:
 409:.\Generated_Source\PSoC4/W5100.c **** }
 117              		.loc 1 409 0
 118              		@ sp needed for prologue
 119 0016 38BD     		pop	{r3, r4, r5, pc}
 120              		.cfi_endproc
 121              	.LFE7:
 122              		.size	W5100_W51_Write16, .-W5100_W51_Write16
 123              		.section	.text.W5100_W51_SetIP,"ax",%progbits
 124              		.align	1
 125              		.code	16
 126              		.thumb_func
 127              		.type	W5100_W51_SetIP, %function
 128              	W5100_W51_SetIP:
 129              	.LFB5:
 371:.\Generated_Source\PSoC4/W5100.c **** {
 130              		.loc 1 371 0
 131              		.cfi_startproc
 132              	.LVL14:
 133 0000 37B5     		push	{r0, r1, r2, r4, r5, lr}
 134              	.LCFI2:
 135              		.cfi_def_cfa_offset 24
 136              		.cfi_offset 0, -24
 137              		.cfi_offset 1, -20
 138              		.cfi_offset 2, -16
 139              		.cfi_offset 4, -12
 140              		.cfi_offset 5, -8
 141              		.cfi_offset 14, -4
 142              	.LVL15:
 371:.\Generated_Source\PSoC4/W5100.c **** {
 143              		.loc 1 371 0
 144 0002 051C     		mov	r5, r0
 145              	.LVL16:
 146 0004 0191     		str	r1, [sp, #4]
 376:.\Generated_Source\PSoC4/W5100.c **** 	for(index = 0;index<4;++index) {
 147              		.loc 1 376 0
 148 0006 0024     		mov	r4, #0
 149              	.LVL17:
 150              	.L8:
 370:.\Generated_Source\PSoC4/W5100.c **** static void W5100_W51_SetIP( uint16 addr, uint32 ip )
 151              		.loc 1 370 0 discriminator 2
 152 0008 2819     		add	r0, r5, r4
 377:.\Generated_Source\PSoC4/W5100.c **** 		W5100_W51_Write(addr+index,buffer[index]);
 153              		.loc 1 377 0 discriminator 2
 154 000a 01AB     		add	r3, sp, #4
ARM GAS  C:\Users\CHUCK~1.ERH\AppData\Local\Temp\cc506n3q.s 			page 11


 155              	.LVL18:
 156 000c E15C     		ldrb	r1, [r4, r3]
 157 000e 80B2     		uxth	r0, r0
 376:.\Generated_Source\PSoC4/W5100.c **** 	for(index = 0;index<4;++index) {
 158              		.loc 1 376 0 discriminator 2
 159 0010 0134     		add	r4, r4, #1
 377:.\Generated_Source\PSoC4/W5100.c **** 		W5100_W51_Write(addr+index,buffer[index]);
 160              		.loc 1 377 0 discriminator 2
 161 0012 FFF7FEFF 		bl	W5100_W51_Write
 162              	.LVL19:
 376:.\Generated_Source\PSoC4/W5100.c **** 	for(index = 0;index<4;++index) {
 163              		.loc 1 376 0 discriminator 2
 164 0016 042C     		cmp	r4, #4
 165 0018 F6D1     		bne	.L8
 379:.\Generated_Source\PSoC4/W5100.c **** }
 166              		.loc 1 379 0
 167              		@ sp needed for prologue
 168              	.LVL20:
 169 001a 37BD     		pop	{r0, r1, r2, r4, r5, pc}
 170              		.cfi_endproc
 171              	.LFE5:
 172              		.size	W5100_W51_SetIP, .-W5100_W51_SetIP
 173              		.section	.text.W5100_W51_WriteBlock,"ax",%progbits
 174              		.align	1
 175              		.code	16
 176              		.thumb_func
 177              		.type	W5100_W51_WriteBlock, %function
 178              	W5100_W51_WriteBlock:
 179              	.LFB9:
 410:.\Generated_Source\PSoC4/W5100.c **** /* ------------------------------------------------------------------------ */
 411:.\Generated_Source\PSoC4/W5100.c **** /**
 412:.\Generated_Source\PSoC4/W5100.c ****  * \brief Read a 16-bit value from the device
 413:.\Generated_Source\PSoC4/W5100.c ****  * \param addr The starting address from which data will be read
 414:.\Generated_Source\PSoC4/W5100.c ****  * \returns the 16-bit value read from the memory.
 415:.\Generated_Source\PSoC4/W5100.c ****  */
 416:.\Generated_Source\PSoC4/W5100.c **** static uint16 W5100_W51_Read16( uint16 addr )
 417:.\Generated_Source\PSoC4/W5100.c **** {
 418:.\Generated_Source\PSoC4/W5100.c **** 	uint16 val;
 419:.\Generated_Source\PSoC4/W5100.c **** 	
 420:.\Generated_Source\PSoC4/W5100.c **** 	val = W5100_W51_Read( addr );
 421:.\Generated_Source\PSoC4/W5100.c **** 	val <<= 8;
 422:.\Generated_Source\PSoC4/W5100.c **** 	val += W5100_W51_Read( addr + 1);
 423:.\Generated_Source\PSoC4/W5100.c **** 	
 424:.\Generated_Source\PSoC4/W5100.c **** 	return( val );
 425:.\Generated_Source\PSoC4/W5100.c **** }
 426:.\Generated_Source\PSoC4/W5100.c **** /* ------------------------------------------------------------------------ */
 427:.\Generated_Source\PSoC4/W5100.c **** /**
 428:.\Generated_Source\PSoC4/W5100.c ****  * \brief Write a block of data to consecutive memory addresses
 429:.\Generated_Source\PSoC4/W5100.c ****  * \param addr the starting address of the write
 430:.\Generated_Source\PSoC4/W5100.c ****  * \param *buffer pointer to the data buffer holding the data to write
 431:.\Generated_Source\PSoC4/W5100.c ****  * \param length the length of data to be written
 432:.\Generated_Source\PSoC4/W5100.c ****  */
 433:.\Generated_Source\PSoC4/W5100.c **** static void W5100_W51_WriteBlock(uint16 addr, uint8* buffer, uint16 length)
 434:.\Generated_Source\PSoC4/W5100.c **** {
 180              		.loc 1 434 0
 181              		.cfi_startproc
 182              	.LVL21:
ARM GAS  C:\Users\CHUCK~1.ERH\AppData\Local\Temp\cc506n3q.s 			page 12


 183 0000 F8B5     		push	{r3, r4, r5, r6, r7, lr}
 184              	.LCFI3:
 185              		.cfi_def_cfa_offset 24
 186              		.cfi_offset 3, -24
 187              		.cfi_offset 4, -20
 188              		.cfi_offset 5, -16
 189              		.cfi_offset 6, -12
 190              		.cfi_offset 7, -8
 191              		.cfi_offset 14, -4
 192              		.loc 1 434 0
 193 0002 061C     		mov	r6, r0
 194 0004 0F1C     		mov	r7, r1
 195 0006 151C     		mov	r5, r2
 435:.\Generated_Source\PSoC4/W5100.c **** 	int index;
 436:.\Generated_Source\PSoC4/W5100.c **** 	for(index=0;index<length;++index) {
 196              		.loc 1 436 0
 197 0008 0024     		mov	r4, #0
 198              	.LVL22:
 199              	.L11:
 200              		.loc 1 436 0 is_stmt 0 discriminator 1
 201 000a AC42     		cmp	r4, r5
 202 000c 06DA     		bge	.L13
 203              	.L12:
 433:.\Generated_Source\PSoC4/W5100.c **** static void W5100_W51_WriteBlock(uint16 addr, uint8* buffer, uint16 length)
 204              		.loc 1 433 0 is_stmt 1 discriminator 2
 205 000e 3019     		add	r0, r6, r4
 437:.\Generated_Source\PSoC4/W5100.c **** 		W5100_W51_Write(addr+index,buffer[index]);
 206              		.loc 1 437 0 discriminator 2
 207 0010 395D     		ldrb	r1, [r7, r4]
 208 0012 80B2     		uxth	r0, r0
 209 0014 FFF7FEFF 		bl	W5100_W51_Write
 210              	.LVL23:
 436:.\Generated_Source\PSoC4/W5100.c **** 	for(index=0;index<length;++index) {
 211              		.loc 1 436 0 discriminator 2
 212 0018 0134     		add	r4, r4, #1
 213              	.LVL24:
 214 001a F6E7     		b	.L11
 215              	.L13:
 438:.\Generated_Source\PSoC4/W5100.c **** 	}
 439:.\Generated_Source\PSoC4/W5100.c **** }
 216              		.loc 1 439 0
 217              		@ sp needed for prologue
 218              	.LVL25:
 219              	.LVL26:
 220 001c F8BD     		pop	{r3, r4, r5, r6, r7, pc}
 221              		.cfi_endproc
 222              	.LFE9:
 223              		.size	W5100_W51_WriteBlock, .-W5100_W51_WriteBlock
 224              		.section	.text.W5100_W51_Read,"ax",%progbits
 225              		.align	1
 226              		.global	W5100_W51_Read
 227              		.code	16
 228              		.thumb_func
 229              		.type	W5100_W51_Read, %function
 230              	W5100_W51_Read:
 231              	.LFB2:
 290:.\Generated_Source\PSoC4/W5100.c **** {
ARM GAS  C:\Users\CHUCK~1.ERH\AppData\Local\Temp\cc506n3q.s 			page 13


 232              		.loc 1 290 0
 233              		.cfi_startproc
 234              	.LVL27:
 235 0000 38B5     		push	{r3, r4, r5, lr}
 236              	.LCFI4:
 237              		.cfi_def_cfa_offset 16
 238              		.cfi_offset 3, -16
 239              		.cfi_offset 4, -12
 240              		.cfi_offset 5, -8
 241              		.cfi_offset 14, -4
 242 0002 041C     		mov	r4, r0
 243              	.LVL28:
 244              	.L15:
 295:.\Generated_Source\PSoC4/W5100.c **** 	while( W5100_SpiDone == 0) {
 245              		.loc 1 295 0 discriminator 1
 246 0004 FFF7FEFF 		bl	SPI_ss1_m_Read
 247              	.LVL29:
 248 0008 0028     		cmp	r0, #0
 249 000a 03D1     		bne	.L22
 250              	.L16:
 296:.\Generated_Source\PSoC4/W5100.c **** 		CyDelayUs(1);
 251              		.loc 1 296 0
 252 000c 0120     		mov	r0, #1
 253 000e FFF7FEFF 		bl	CyDelayUs
 254              	.LVL30:
 255 0012 F7E7     		b	.L15
 256              	.L22:
 257              	.LBB8:
 258              	.LBB9:
 240:.\Generated_Source\PSoC4/W5100.c **** 	SPI_SpiSetActiveSlaveSelect( SPI_SPIM_ACTIVE_SS1 );
 259              		.loc 1 240 0
 260 0014 0120     		mov	r0, #1
 261 0016 FFF7FEFF 		bl	SPI_SpiSetActiveSlaveSelect
 262              	.LVL31:
 263              	.LBE9:
 264              	.LBE8:
 308:.\Generated_Source\PSoC4/W5100.c **** 	SPI_SpiUartClearRxBuffer();
 265              		.loc 1 308 0
 266 001a FFF7FEFF 		bl	SPI_SpiUartClearRxBuffer
 267              	.LVL32:
 310:.\Generated_Source\PSoC4/W5100.c **** 	SPI_SpiUartWriteTxData(W5100_READ_OP);
 268              		.loc 1 310 0
 269 001e 0F20     		mov	r0, #15
 270 0020 FFF7FEFF 		bl	SPI_SpiUartWriteTxData
 271              	.LVL33:
 311:.\Generated_Source\PSoC4/W5100.c **** 	SPI_SpiUartWriteTxData(addr>>8);
 272              		.loc 1 311 0
 273 0024 200A     		lsr	r0, r4, #8
 274 0026 FFF7FEFF 		bl	SPI_SpiUartWriteTxData
 275              	.LVL34:
 312:.\Generated_Source\PSoC4/W5100.c **** 	SPI_SpiUartWriteTxData(addr&0x00FF);
 276              		.loc 1 312 0
 277 002a E0B2     		uxtb	r0, r4
 278 002c FFF7FEFF 		bl	SPI_SpiUartWriteTxData
 279              	.LVL35:
 313:.\Generated_Source\PSoC4/W5100.c **** 	SPI_SpiUartWriteTxData( 0 );
 280              		.loc 1 313 0
ARM GAS  C:\Users\CHUCK~1.ERH\AppData\Local\Temp\cc506n3q.s 			page 14


 281 0030 0020     		mov	r0, #0
 282 0032 FFF7FEFF 		bl	SPI_SpiUartWriteTxData
 283              	.LVL36:
 284              	.L17:
 316:.\Generated_Source\PSoC4/W5100.c **** 	while( W5100_SpiDone == 0) {
 285              		.loc 1 316 0 discriminator 1
 286 0036 FFF7FEFF 		bl	SPI_ss1_m_Read
 287              	.LVL37:
 288 003a 0028     		cmp	r0, #0
 289 003c 03D1     		bne	.L21
 290              	.L18:
 317:.\Generated_Source\PSoC4/W5100.c **** 		CyDelayUs(1);
 291              		.loc 1 317 0
 292 003e 0120     		mov	r0, #1
 293 0040 FFF7FEFF 		bl	CyDelayUs
 294              	.LVL38:
 295 0044 F7E7     		b	.L17
 296              	.L21:
 325:.\Generated_Source\PSoC4/W5100.c **** 		count = SPI_SpiUartGetRxBufferSize();
 297              		.loc 1 325 0
 298 0046 FFF7FEFF 		bl	SPI_SpiUartGetRxBufferSize
 299              	.LVL39:
 322:.\Generated_Source\PSoC4/W5100.c **** 	while( count > 0 )
 300              		.loc 1 322 0
 301 004a 0028     		cmp	r0, #0
 302 004c 03D0     		beq	.L23
 303              	.L20:
 324:.\Generated_Source\PSoC4/W5100.c **** 		dat = SPI_SpiUartReadRxData(); 
 304              		.loc 1 324 0
 305 004e FFF7FEFF 		bl	SPI_SpiUartReadRxData
 306              	.LVL40:
 307 0052 051C     		mov	r5, r0
 308 0054 F7E7     		b	.L21
 309              	.LVL41:
 310              	.L23:
 328:.\Generated_Source\PSoC4/W5100.c **** 	return( dat&0xFF );
 311              		.loc 1 328 0
 312 0056 E8B2     		uxtb	r0, r5
 313              	.LVL42:
 329:.\Generated_Source\PSoC4/W5100.c **** }
 314              		.loc 1 329 0
 315              		@ sp needed for prologue
 316 0058 38BD     		pop	{r3, r4, r5, pc}
 317              		.cfi_endproc
 318              	.LFE2:
 319              		.size	W5100_W51_Read, .-W5100_W51_Read
 320              		.section	.text.W5100_GetSocketStatus,"ax",%progbits
 321              		.align	1
 322              		.code	16
 323              		.thumb_func
 324              		.type	W5100_GetSocketStatus, %function
 325              	W5100_GetSocketStatus:
 326              	.LFB44:
 440:.\Generated_Source\PSoC4/W5100.c **** /* ------------------------------------------------------------------------ */
 441:.\Generated_Source\PSoC4/W5100.c **** /**
 442:.\Generated_Source\PSoC4/W5100.c ****  * \brief read a block of data from consecutive memory addresses
 443:.\Generated_Source\PSoC4/W5100.c ****  * \param addr the address from which the read will begin
ARM GAS  C:\Users\CHUCK~1.ERH\AppData\Local\Temp\cc506n3q.s 			page 15


 444:.\Generated_Source\PSoC4/W5100.c ****  * \param *buffer pointer to the memory buffer which will hold the read data
 445:.\Generated_Source\PSoC4/W5100.c ****  * \param length the length of data to read from the buffer.
 446:.\Generated_Source\PSoC4/W5100.c ****  */
 447:.\Generated_Source\PSoC4/W5100.c **** static void W5100_W51_ReadBlock(uint16 addr, uint8* buffer, uint16 length)
 448:.\Generated_Source\PSoC4/W5100.c **** {
 449:.\Generated_Source\PSoC4/W5100.c **** 	int index;
 450:.\Generated_Source\PSoC4/W5100.c **** 	
 451:.\Generated_Source\PSoC4/W5100.c **** 	for(index=0;index<length;++index) {
 452:.\Generated_Source\PSoC4/W5100.c **** 		buffer[index] = W5100_W51_Read(addr+index);
 453:.\Generated_Source\PSoC4/W5100.c **** 	}
 454:.\Generated_Source\PSoC4/W5100.c **** }
 455:.\Generated_Source\PSoC4/W5100.c **** /* ======================================================================== */
 456:.\Generated_Source\PSoC4/W5100.c **** /* END SECTION */
 457:.\Generated_Source\PSoC4/W5100.c **** #endif
 458:.\Generated_Source\PSoC4/W5100.c **** /* ======================================================================== */
 459:.\Generated_Source\PSoC4/W5100.c **** /* Chip Register access */
 460:.\Generated_Source\PSoC4/W5100.c **** #if (1)
 461:.\Generated_Source\PSoC4/W5100.c **** // Common Registers
 462:.\Generated_Source\PSoC4/W5100.c **** /* ------------------------------------------------------------------------ */
 463:.\Generated_Source\PSoC4/W5100.c **** /**
 464:.\Generated_Source\PSoC4/W5100.c ****  * \brief Set teh chip mac address to teh specified address
 465:.\Generated_Source\PSoC4/W5100.c ****  * \param *mac pointer to the array holding the MAC address
 466:.\Generated_Source\PSoC4/W5100.c ****  */
 467:.\Generated_Source\PSoC4/W5100.c **** static void W5100_SetSourceMAC( uint8* mac ) { W5100_W51_SetMAC(9,mac); }
 468:.\Generated_Source\PSoC4/W5100.c **** /* ------------------------------------------------------------------------ */
 469:.\Generated_Source\PSoC4/W5100.c **** /**
 470:.\Generated_Source\PSoC4/W5100.c ****  * \brief Read the chip source MAC address from the MAC registers
 471:.\Generated_Source\PSoC4/W5100.c ****  * \param *mac pointer to the address of the buffer to hold the read MAC address
 472:.\Generated_Source\PSoC4/W5100.c ****  */
 473:.\Generated_Source\PSoC4/W5100.c **** static void W5100_GetSourceMAC( uint8* mac ) { W5100_W51_GetMAC(9,mac); }
 474:.\Generated_Source\PSoC4/W5100.c **** /* ------------------------------------------------------------------------ */
 475:.\Generated_Source\PSoC4/W5100.c **** /**
 476:.\Generated_Source\PSoC4/W5100.c ****  * \brief Set the IPv4 address of the network gateway
 477:.\Generated_Source\PSoC4/W5100.c ****  * \param ip IP address of the gateway
 478:.\Generated_Source\PSoC4/W5100.c ****  */
 479:.\Generated_Source\PSoC4/W5100.c **** static void W5100_SetGatewayAddress(uint32 ip) { W5100_W51_SetIP(1,ip); }
 480:.\Generated_Source\PSoC4/W5100.c **** /* ------------------------------------------------------------------------ */
 481:.\Generated_Source\PSoC4/W5100.c **** /**
 482:.\Generated_Source\PSoC4/W5100.c ****  * \brief Read the gateway address from the device
 483:.\Generated_Source\PSoC4/W5100.c ****  * \returns the IP address of the gateway
 484:.\Generated_Source\PSoC4/W5100.c ****  */
 485:.\Generated_Source\PSoC4/W5100.c **** static uint32 W5100_GetGatewayAddress( void ) { return W5100_W51_GetIP(1); }
 486:.\Generated_Source\PSoC4/W5100.c **** /* ------------------------------------------------------------------------ */
 487:.\Generated_Source\PSoC4/W5100.c **** /**
 488:.\Generated_Source\PSoC4/W5100.c ****  * \brief set the subnet mask of the ethernet device
 489:.\Generated_Source\PSoC4/W5100.c ****  * \param the subnet mask (IPv4)
 490:.\Generated_Source\PSoC4/W5100.c ****  */
 491:.\Generated_Source\PSoC4/W5100.c **** static void W5100_SetSubnetMask( uint32 ip ) { W5100_W51_SetIP(5, ip); }
 492:.\Generated_Source\PSoC4/W5100.c **** /* ------------------------------------------------------------------------ */
 493:.\Generated_Source\PSoC4/W5100.c **** /**
 494:.\Generated_Source\PSoC4/W5100.c ****  * \brief Read the subnet mask from the device
 495:.\Generated_Source\PSoC4/W5100.c ****  * \returns the subnet mask that was read from the device.
 496:.\Generated_Source\PSoC4/W5100.c ****  */
 497:.\Generated_Source\PSoC4/W5100.c **** static uint32 W5100_GetSubnetMask( void ) { return W5100_W51_GetIP(5); }
 498:.\Generated_Source\PSoC4/W5100.c **** /* ------------------------------------------------------------------------ */
 499:.\Generated_Source\PSoC4/W5100.c **** /**
 500:.\Generated_Source\PSoC4/W5100.c ****  * \brief Write the device source IPv4 address
ARM GAS  C:\Users\CHUCK~1.ERH\AppData\Local\Temp\cc506n3q.s 			page 16


 501:.\Generated_Source\PSoC4/W5100.c ****  * \param ip the ip address to set as the chip IP address
 502:.\Generated_Source\PSoC4/W5100.c ****  */
 503:.\Generated_Source\PSoC4/W5100.c **** static void W5100_SetSourceIP( uint32 ip ) { W5100_W51_SetIP( 0x0F, ip ); }
 504:.\Generated_Source\PSoC4/W5100.c **** /* ------------------------------------------------------------------------ */
 505:.\Generated_Source\PSoC4/W5100.c **** /**
 506:.\Generated_Source\PSoC4/W5100.c ****  * \brief Read the device's programmed IP address
 507:.\Generated_Source\PSoC4/W5100.c ****  * \returns The IPv4 address to which the device is set.
 508:.\Generated_Source\PSoC4/W5100.c ****  */
 509:.\Generated_Source\PSoC4/W5100.c **** static uint32 W5100_GetSourceIP( void ) { return W5100_W51_GetIP( 0x0F ); }
 510:.\Generated_Source\PSoC4/W5100.c **** /* ------------------------------------------------------------------------ */
 511:.\Generated_Source\PSoC4/W5100.c **** /**
 512:.\Generated_Source\PSoC4/W5100.c ****  * \brief Write a value to the device internal MODE register
 513:.\Generated_Source\PSoC4/W5100.c ****  * \param mode the value to be written to the mode register.
 514:.\Generated_Source\PSoC4/W5100.c ****  */
 515:.\Generated_Source\PSoC4/W5100.c **** static void W5100_SetMode( uint8 mode ) { W5100_W51_Write(0,mode); }
 516:.\Generated_Source\PSoC4/W5100.c **** /* ------------------------------------------------------------------------ */
 517:.\Generated_Source\PSoC4/W5100.c **** /**
 518:.\Generated_Source\PSoC4/W5100.c ****  * \brief Read the present contents of the device internal mode register
 519:.\Generated_Source\PSoC4/W5100.c ****  * \returns the value of the mode register
 520:.\Generated_Source\PSoC4/W5100.c ****  */
 521:.\Generated_Source\PSoC4/W5100.c **** static uint8 W5100_GetMode( void ) { return W5100_W51_Read(0); }
 522:.\Generated_Source\PSoC4/W5100.c **** /* ------------------------------------------------------------------------ */
 523:.\Generated_Source\PSoC4/W5100.c **** /**
 524:.\Generated_Source\PSoC4/W5100.c ****  * \brief Write the value of the interrupt register
 525:.\Generated_Source\PSoC4/W5100.c ****  * \param ir the value to be written to the interrupt register
 526:.\Generated_Source\PSoC4/W5100.c ****  */
 527:.\Generated_Source\PSoC4/W5100.c **** static void W5100_SetIR( uint8 ir ) { W5100_W51_Write(0x0015,ir); }
 528:.\Generated_Source\PSoC4/W5100.c **** /* ------------------------------------------------------------------------ */
 529:.\Generated_Source\PSoC4/W5100.c **** /**
 530:.\Generated_Source\PSoC4/W5100.c ****  * \brief Read the contents of the interrupt register
 531:.\Generated_Source\PSoC4/W5100.c ****  * \returns the contents read from the interrupt register
 532:.\Generated_Source\PSoC4/W5100.c ****  */
 533:.\Generated_Source\PSoC4/W5100.c **** static uint8 W5100_GetIR( void ) { return W5100_W51_Read(0x0015); }
 534:.\Generated_Source\PSoC4/W5100.c **** /* ------------------------------------------------------------------------ */
 535:.\Generated_Source\PSoC4/W5100.c **** /**
 536:.\Generated_Source\PSoC4/W5100.c ****  * \brief Set the value of the interrupt mask register
 537:.\Generated_Source\PSoC4/W5100.c ****  * \param imr the value to be written to the interrupt mask register
 538:.\Generated_Source\PSoC4/W5100.c ****  */
 539:.\Generated_Source\PSoC4/W5100.c **** static void W5100_SetIMR( uint8 imr) { W5100_W51_Write( 0x0016, imr ); }
 540:.\Generated_Source\PSoC4/W5100.c **** /* ------------------------------------------------------------------------ */
 541:.\Generated_Source\PSoC4/W5100.c **** /**
 542:.\Generated_Source\PSoC4/W5100.c ****  * \brief Read the interrupt mask register
 543:.\Generated_Source\PSoC4/W5100.c ****  * \returns the contents of the interrupt mask register
 544:.\Generated_Source\PSoC4/W5100.c ****  */
 545:.\Generated_Source\PSoC4/W5100.c **** static uint8 W5100_GetIMR( void ) { return W5100_W51_Read( 0x0016 ); }
 546:.\Generated_Source\PSoC4/W5100.c **** /* ------------------------------------------------------------------------ */
 547:.\Generated_Source\PSoC4/W5100.c **** /**
 548:.\Generated_Source\PSoC4/W5100.c ****  * \brief Write the retry time register
 549:.\Generated_Source\PSoC4/W5100.c ****  * \param time the value to be written to the regster
 550:.\Generated_Source\PSoC4/W5100.c ****  */
 551:.\Generated_Source\PSoC4/W5100.c **** static void W5100_SetRetryTime( uint16 time) { W5100_W51_Write16( 0x0017, time ); }
 552:.\Generated_Source\PSoC4/W5100.c **** /* ------------------------------------------------------------------------ */
 553:.\Generated_Source\PSoC4/W5100.c **** /**
 554:.\Generated_Source\PSoC4/W5100.c ****  * \brief Read the retry tie register
 555:.\Generated_Source\PSoC4/W5100.c ****  * \returns the value read from the register
 556:.\Generated_Source\PSoC4/W5100.c ****  */
 557:.\Generated_Source\PSoC4/W5100.c **** static uint16 W5100_GetRetryTime( void ) { return W5100_W51_Read16( 0x0017 ); }
ARM GAS  C:\Users\CHUCK~1.ERH\AppData\Local\Temp\cc506n3q.s 			page 17


 558:.\Generated_Source\PSoC4/W5100.c **** /* ------------------------------------------------------------------------ */
 559:.\Generated_Source\PSoC4/W5100.c **** /**
 560:.\Generated_Source\PSoC4/W5100.c ****  * \breif write a value to the retry count register
 561:.\Generated_Source\PSoC4/W5100.c ****  * \param count the value to be written to the register
 562:.\Generated_Source\PSoC4/W5100.c ****  */
 563:.\Generated_Source\PSoC4/W5100.c **** static void W5100_SetRetryCount( uint8 count ) { W5100_W51_Write( 0x0019, count); }
 564:.\Generated_Source\PSoC4/W5100.c **** /* ------------------------------------------------------------------------ */
 565:.\Generated_Source\PSoC4/W5100.c **** /**
 566:.\Generated_Source\PSoC4/W5100.c ****  * \brief Read the contents of the retry count register
 567:.\Generated_Source\PSoC4/W5100.c ****  * \returns the value read from teh register
 568:.\Generated_Source\PSoC4/W5100.c ****  */
 569:.\Generated_Source\PSoC4/W5100.c **** static uint8 W5100_GetRetryCount( void ) { return W5100_W51_Read( 0x0019 ); }
 570:.\Generated_Source\PSoC4/W5100.c **** /* ------------------------------------------------------------------------ */
 571:.\Generated_Source\PSoC4/W5100.c **** /**
 572:.\Generated_Source\PSoC4/W5100.c ****  * \brief write a value to the Rx mem size register
 573:.\Generated_Source\PSoC4/W5100.c ****  * \param size the value to be written to the register
 574:.\Generated_Source\PSoC4/W5100.c ****  */
 575:.\Generated_Source\PSoC4/W5100.c **** static void W5100_SetRxMemSize( uint8 size ) { W5100_W51_Write( 0x1A, size ); }
 576:.\Generated_Source\PSoC4/W5100.c **** /* ------------------------------------------------------------------------ */
 577:.\Generated_Source\PSoC4/W5100.c **** /**
 578:.\Generated_Source\PSoC4/W5100.c ****  * \brief Read the contents of hte rx mem size register
 579:.\Generated_Source\PSoC4/W5100.c ****  * \returns the value read from teh register
 580:.\Generated_Source\PSoC4/W5100.c ****  */
 581:.\Generated_Source\PSoC4/W5100.c **** static uint8 W5100_GetRxMemSize( void ) { return W5100_W51_Read(0x1A); }
 582:.\Generated_Source\PSoC4/W5100.c **** /* ------------------------------------------------------------------------ */
 583:.\Generated_Source\PSoC4/W5100.c **** /**
 584:.\Generated_Source\PSoC4/W5100.c ****  * \brief write a value to the tx mem size register
 585:.\Generated_Source\PSoC4/W5100.c ****  * \param size The value to be written to the register
 586:.\Generated_Source\PSoC4/W5100.c ****  */
 587:.\Generated_Source\PSoC4/W5100.c **** static void W5100_SetTxMemSize( uint8 size ) { W5100_W51_Write( 0x1B, size); }
 588:.\Generated_Source\PSoC4/W5100.c **** /* ------------------------------------------------------------------------ */
 589:.\Generated_Source\PSoC4/W5100.c **** /**
 590:.\Generated_Source\PSoC4/W5100.c ****  * \brief read the contents of the tx mem size register
 591:.\Generated_Source\PSoC4/W5100.c ****  * \returns the value read from the register
 592:.\Generated_Source\PSoC4/W5100.c ****  */
 593:.\Generated_Source\PSoC4/W5100.c **** static uint8 W5100_GetTxMemSize( void ) { return W5100_W51_Read( 0x1B);}
 594:.\Generated_Source\PSoC4/W5100.c **** /* ------------------------------------------------------------------------ */
 595:.\Generated_Source\PSoC4/W5100.c **** /**
 596:.\Generated_Source\PSoC4/W5100.c ****  * \brief write a value to the unreachable IP register
 597:.\Generated_Source\PSoC4/W5100.c ****  * \param ip the value to be written to the register
 598:.\Generated_Source\PSoC4/W5100.c ****  */
 599:.\Generated_Source\PSoC4/W5100.c **** static void W5100_SetUnreachableIP( uint32 ip) { W5100_W51_SetIP( 0x2A, ip); }
 600:.\Generated_Source\PSoC4/W5100.c **** /* ------------------------------------------------------------------------ */
 601:.\Generated_Source\PSoC4/W5100.c **** /**
 602:.\Generated_Source\PSoC4/W5100.c ****  * \brief read the contents of the unreachable IP register
 603:.\Generated_Source\PSoC4/W5100.c ****  * \returns the value read from teh register
 604:.\Generated_Source\PSoC4/W5100.c ****  */
 605:.\Generated_Source\PSoC4/W5100.c **** static uint32 W5100_GetUnreachableIP( void ) { return W5100_W51_GetIP( 0x2A ); }
 606:.\Generated_Source\PSoC4/W5100.c **** /* ------------------------------------------------------------------------ */
 607:.\Generated_Source\PSoC4/W5100.c **** /**
 608:.\Generated_Source\PSoC4/W5100.c ****  * \brief write a value to the unreachable port register
 609:.\Generated_Source\PSoC4/W5100.c ****  * \param port the value to be written to the register
 610:.\Generated_Source\PSoC4/W5100.c ****  */
 611:.\Generated_Source\PSoC4/W5100.c **** static void W5100_SetUnreachablePort( uint16 port) { W5100_W51_Write16(0x2E, port); }
 612:.\Generated_Source\PSoC4/W5100.c **** /* ------------------------------------------------------------------------ */
 613:.\Generated_Source\PSoC4/W5100.c **** /**
 614:.\Generated_Source\PSoC4/W5100.c ****  * \brief read the contents of the unreachable port register
ARM GAS  C:\Users\CHUCK~1.ERH\AppData\Local\Temp\cc506n3q.s 			page 18


 615:.\Generated_Source\PSoC4/W5100.c ****  * \returns the value read from the register
 616:.\Generated_Source\PSoC4/W5100.c ****  */
 617:.\Generated_Source\PSoC4/W5100.c **** static uint16 W5100_GetUnreachablePort( void ) { return W5100_W51_Read16(0x2E); }
 618:.\Generated_Source\PSoC4/W5100.c **** /* ======================================================================== */
 619:.\Generated_Source\PSoC4/W5100.c **** /* End Section */
 620:.\Generated_Source\PSoC4/W5100.c **** #endif
 621:.\Generated_Source\PSoC4/W5100.c **** /* ======================================================================== */
 622:.\Generated_Source\PSoC4/W5100.c **** /* Socket Registers */
 623:.\Generated_Source\PSoC4/W5100.c **** #if (1)
 624:.\Generated_Source\PSoC4/W5100.c **** /**
 625:.\Generated_Source\PSoC4/W5100.c ****  * \def W5100_SOCKET BASE(s)
 626:.\Generated_Source\PSoC4/W5100.c ****  * \brief Convert the socket number to a base address within the W5100
 627:.\Generated_Source\PSoC4/W5100.c ****  */
 628:.\Generated_Source\PSoC4/W5100.c **** #define W5100_SOCKET_BASE(s)           ((s<<8)+0x0400)
 629:.\Generated_Source\PSoC4/W5100.c **** /* ------------------------------------------------------------------------ */
 630:.\Generated_Source\PSoC4/W5100.c **** /**
 631:.\Generated_Source\PSoC4/W5100.c ****  * \brief Write a value to the socket mode register
 632:.\Generated_Source\PSoC4/W5100.c ****  * \param socket the socket number for the addressed register
 633:.\Generated_Source\PSoC4/W5100.c ****  * \param mode the value to be written to the register
 634:.\Generated_Source\PSoC4/W5100.c ****  */
 635:.\Generated_Source\PSoC4/W5100.c **** static void W5100_SetSocketMode(uint8 socket, uint8 mode)
 636:.\Generated_Source\PSoC4/W5100.c **** { W5100_W51_Write(W5100_SOCKET_BASE(socket), mode); }
 637:.\Generated_Source\PSoC4/W5100.c **** /* ------------------------------------------------------------------------ */
 638:.\Generated_Source\PSoC4/W5100.c **** /**
 639:.\Generated_Source\PSoC4/W5100.c ****  * \brief Read a value from the socket mode register
 640:.\Generated_Source\PSoC4/W5100.c ****  * \param socket the socket number for the addressed register
 641:.\Generated_Source\PSoC4/W5100.c ****  * \returns the value read from the register
 642:.\Generated_Source\PSoC4/W5100.c ****  */
 643:.\Generated_Source\PSoC4/W5100.c **** static uint8 W5100_GetSocketMode(uint8 socket)
 644:.\Generated_Source\PSoC4/W5100.c **** { return W5100_W51_Read(W5100_SOCKET_BASE(socket)); }
 645:.\Generated_Source\PSoC4/W5100.c **** /* ------------------------------------------------------------------------ */
 646:.\Generated_Source\PSoC4/W5100.c **** /**
 647:.\Generated_Source\PSoC4/W5100.c ****  * \brief Write a value to the socket command register
 648:.\Generated_Source\PSoC4/W5100.c ****  * \param socket the socket number for the addressed register
 649:.\Generated_Source\PSoC4/W5100.c ****  * \param cmd the value to be written to the register
 650:.\Generated_Source\PSoC4/W5100.c ****  */
 651:.\Generated_Source\PSoC4/W5100.c **** static void W5100_SetSocketCommand(uint8 socket, uint8 cmd)
 652:.\Generated_Source\PSoC4/W5100.c **** { W5100_W51_Write(W5100_SOCKET_BASE(socket)+1, cmd); }
 653:.\Generated_Source\PSoC4/W5100.c **** /* ------------------------------------------------------------------------ */
 654:.\Generated_Source\PSoC4/W5100.c **** /**
 655:.\Generated_Source\PSoC4/W5100.c ****  * \brief Read a value from the socket command register
 656:.\Generated_Source\PSoC4/W5100.c ****  * \param socket the socket number for the addressed register
 657:.\Generated_Source\PSoC4/W5100.c ****  * \returns the value read from the register
 658:.\Generated_Source\PSoC4/W5100.c ****  */
 659:.\Generated_Source\PSoC4/W5100.c **** static uint8 W5100_GetSocketCommand(uint8 socket)
 660:.\Generated_Source\PSoC4/W5100.c **** { return W5100_W51_Read(W5100_SOCKET_BASE(socket)+1); }
 661:.\Generated_Source\PSoC4/W5100.c **** /* ------------------------------------------------------------------------ */
 662:.\Generated_Source\PSoC4/W5100.c **** /**
 663:.\Generated_Source\PSoC4/W5100.c ****  * \brief Write a value to the socket interrupt register
 664:.\Generated_Source\PSoC4/W5100.c ****  * \param socket the socket number for the addressed register
 665:.\Generated_Source\PSoC4/W5100.c ****  * \param ir the value to be written to the register
 666:.\Generated_Source\PSoC4/W5100.c ****  */
 667:.\Generated_Source\PSoC4/W5100.c **** static void W5100_SetSocketIR(uint8 socket, uint8 ir)
 668:.\Generated_Source\PSoC4/W5100.c **** { W5100_W51_Write(W5100_SOCKET_BASE(socket)+2,ir); }
 669:.\Generated_Source\PSoC4/W5100.c **** /* ------------------------------------------------------------------------ */
 670:.\Generated_Source\PSoC4/W5100.c **** /**
 671:.\Generated_Source\PSoC4/W5100.c ****  * \brief Read a value from the socket interrupt register
ARM GAS  C:\Users\CHUCK~1.ERH\AppData\Local\Temp\cc506n3q.s 			page 19


 672:.\Generated_Source\PSoC4/W5100.c ****  * \param socket the socket number for the addressed register
 673:.\Generated_Source\PSoC4/W5100.c ****  * \returns the value read from the register
 674:.\Generated_Source\PSoC4/W5100.c ****  */
 675:.\Generated_Source\PSoC4/W5100.c **** static uint8 W5100_GetSocketIR(uint8 socket)
 676:.\Generated_Source\PSoC4/W5100.c **** { return W5100_W51_Read(W5100_SOCKET_BASE(socket)+2); }
 677:.\Generated_Source\PSoC4/W5100.c **** /* ------------------------------------------------------------------------ */
 678:.\Generated_Source\PSoC4/W5100.c **** /**
 679:.\Generated_Source\PSoC4/W5100.c ****  * \brief Write a value to the socket status register
 680:.\Generated_Source\PSoC4/W5100.c ****  * \param socket the socket number for the addressed register
 681:.\Generated_Source\PSoC4/W5100.c ****  * \param status the value to be written to the register
 682:.\Generated_Source\PSoC4/W5100.c ****  */
 683:.\Generated_Source\PSoC4/W5100.c **** static void W5100_SetSocketStatus(uint8 socket, uint8 status)
 684:.\Generated_Source\PSoC4/W5100.c **** { W5100_W51_Write(W5100_SOCKET_BASE(socket)+3,status); }
 685:.\Generated_Source\PSoC4/W5100.c **** /* ------------------------------------------------------------------------ */
 686:.\Generated_Source\PSoC4/W5100.c **** /**
 687:.\Generated_Source\PSoC4/W5100.c ****  * \brief Read a value from the socket status register
 688:.\Generated_Source\PSoC4/W5100.c ****  * \param socket the socket number for the addressed register
 689:.\Generated_Source\PSoC4/W5100.c ****  * \returns the value read from the register
 690:.\Generated_Source\PSoC4/W5100.c ****  */
 691:.\Generated_Source\PSoC4/W5100.c **** static uint8 W5100_GetSocketStatus(uint8 socket)
 692:.\Generated_Source\PSoC4/W5100.c **** { return W5100_W51_Read(W5100_SOCKET_BASE(socket)+3); }
 327              		.loc 1 692 0
 328              		.cfi_startproc
 329              	.LVL43:
 330 0000 08B5     		push	{r3, lr}
 331              	.LCFI5:
 332              		.cfi_def_cfa_offset 8
 333              		.cfi_offset 3, -8
 334              		.cfi_offset 14, -4
 335              		.loc 1 692 0
 336 0002 034B     		ldr	r3, .L25
 337 0004 0002     		lsl	r0, r0, #8
 338              	.LVL44:
 339 0006 C118     		add	r1, r0, r3
 340 0008 88B2     		uxth	r0, r1
 341 000a FFF7FEFF 		bl	W5100_W51_Read
 342              	.LVL45:
 343              		@ sp needed for prologue
 344 000e 08BD     		pop	{r3, pc}
 345              	.L26:
 346              		.align	2
 347              	.L25:
 348 0010 03040000 		.word	1027
 349              		.cfi_endproc
 350              	.LFE44:
 351              		.size	W5100_GetSocketStatus, .-W5100_GetSocketStatus
 352              		.section	.text.W5100_W51_Read16,"ax",%progbits
 353              		.align	1
 354              		.code	16
 355              		.thumb_func
 356              		.type	W5100_W51_Read16, %function
 357              	W5100_W51_Read16:
 358              	.LFB8:
 417:.\Generated_Source\PSoC4/W5100.c **** {
 359              		.loc 1 417 0
 360              		.cfi_startproc
 361              	.LVL46:
ARM GAS  C:\Users\CHUCK~1.ERH\AppData\Local\Temp\cc506n3q.s 			page 20


 362 0000 38B5     		push	{r3, r4, r5, lr}
 363              	.LCFI6:
 364              		.cfi_def_cfa_offset 16
 365              		.cfi_offset 3, -16
 366              		.cfi_offset 4, -12
 367              		.cfi_offset 5, -8
 368              		.cfi_offset 14, -4
 417:.\Generated_Source\PSoC4/W5100.c **** {
 369              		.loc 1 417 0
 370 0002 041C     		mov	r4, r0
 420:.\Generated_Source\PSoC4/W5100.c **** 	val = W5100_W51_Read( addr );
 371              		.loc 1 420 0
 372 0004 FFF7FEFF 		bl	W5100_W51_Read
 373              	.LVL47:
 422:.\Generated_Source\PSoC4/W5100.c **** 	val += W5100_W51_Read( addr + 1);
 374              		.loc 1 422 0
 375 0008 0134     		add	r4, r4, #1
 421:.\Generated_Source\PSoC4/W5100.c **** 	val <<= 8;
 376              		.loc 1 421 0
 377 000a 0502     		lsl	r5, r0, #8
 422:.\Generated_Source\PSoC4/W5100.c **** 	val += W5100_W51_Read( addr + 1);
 378              		.loc 1 422 0
 379 000c A0B2     		uxth	r0, r4
 380              	.LVL48:
 381 000e FFF7FEFF 		bl	W5100_W51_Read
 382              	.LVL49:
 421:.\Generated_Source\PSoC4/W5100.c **** 	val <<= 8;
 383              		.loc 1 421 0
 384 0012 ADB2     		uxth	r5, r5
 385              	.LVL50:
 422:.\Generated_Source\PSoC4/W5100.c **** 	val += W5100_W51_Read( addr + 1);
 386              		.loc 1 422 0
 387 0014 2818     		add	r0, r5, r0
 388              	.LVL51:
 424:.\Generated_Source\PSoC4/W5100.c **** 	return( val );
 389              		.loc 1 424 0
 390 0016 80B2     		uxth	r0, r0
 425:.\Generated_Source\PSoC4/W5100.c **** }
 391              		.loc 1 425 0
 392              		@ sp needed for prologue
 393 0018 38BD     		pop	{r3, r4, r5, pc}
 394              		.cfi_endproc
 395              	.LFE8:
 396              		.size	W5100_W51_Read16, .-W5100_W51_Read16
 397              		.section	.text.W5100_ProcessTxData.constprop.2,"ax",%progbits
 398              		.align	1
 399              		.code	16
 400              		.thumb_func
 401              		.type	W5100_ProcessTxData.constprop.2, %function
 402              	W5100_ProcessTxData.constprop.2:
 403              	.LFB111:
 693:.\Generated_Source\PSoC4/W5100.c **** /* ------------------------------------------------------------------------ */
 694:.\Generated_Source\PSoC4/W5100.c **** /**
 695:.\Generated_Source\PSoC4/W5100.c ****  * \brief Write a value to the socket source port register
 696:.\Generated_Source\PSoC4/W5100.c ****  * \param socket the socket number for the addressed register
 697:.\Generated_Source\PSoC4/W5100.c ****  * \param port the value to be written to the register
 698:.\Generated_Source\PSoC4/W5100.c ****  */
ARM GAS  C:\Users\CHUCK~1.ERH\AppData\Local\Temp\cc506n3q.s 			page 21


 699:.\Generated_Source\PSoC4/W5100.c **** static void W5100_SetSocketSourcePort(uint8 socket, uint16 port)
 700:.\Generated_Source\PSoC4/W5100.c **** { W5100_W51_Write16(W5100_SOCKET_BASE(socket)+4,port); }
 701:.\Generated_Source\PSoC4/W5100.c **** /* ------------------------------------------------------------------------ */
 702:.\Generated_Source\PSoC4/W5100.c **** /**
 703:.\Generated_Source\PSoC4/W5100.c ****  * \brief Read a value from the socket source port register
 704:.\Generated_Source\PSoC4/W5100.c ****  * \param socket the socket number for the addressed register
 705:.\Generated_Source\PSoC4/W5100.c ****  * \returns the value read from the register
 706:.\Generated_Source\PSoC4/W5100.c ****  */
 707:.\Generated_Source\PSoC4/W5100.c **** static uint16 W5100_GetSocketSourcePort(uint8 socket)
 708:.\Generated_Source\PSoC4/W5100.c **** { return W5100_W51_Read16(W5100_SOCKET_BASE(socket)+4); }
 709:.\Generated_Source\PSoC4/W5100.c **** /* ------------------------------------------------------------------------ */
 710:.\Generated_Source\PSoC4/W5100.c **** /**
 711:.\Generated_Source\PSoC4/W5100.c ****  * \brief Write a value to the socket Destination hardware address register
 712:.\Generated_Source\PSoC4/W5100.c ****  * \param socket the socket number for the addressed register
 713:.\Generated_Source\PSoC4/W5100.c ****  * \param *mac poitner to the array holding the values to be written to the register
 714:.\Generated_Source\PSoC4/W5100.c ****  */
 715:.\Generated_Source\PSoC4/W5100.c **** static void W5100_SetSocketDestMAC(uint8 socket, uint8* mac)
 716:.\Generated_Source\PSoC4/W5100.c **** { W5100_W51_SetMAC( W5100_SOCKET_BASE(socket)+6, mac); }
 717:.\Generated_Source\PSoC4/W5100.c **** /* ------------------------------------------------------------------------ */
 718:.\Generated_Source\PSoC4/W5100.c **** /**
 719:.\Generated_Source\PSoC4/W5100.c ****  * \brief Read a value from the socket destination hardware address (MAC) register
 720:.\Generated_Source\PSoC4/W5100.c ****  * \param socket the socket number for the addressed register
 721:.\Generated_Source\PSoC4/W5100.c ****  * \returns the value read from the register
 722:.\Generated_Source\PSoC4/W5100.c ****  */
 723:.\Generated_Source\PSoC4/W5100.c **** static void W5100_GetSocketDestMAC(uint8 socket, uint8* mac)
 724:.\Generated_Source\PSoC4/W5100.c **** { W5100_W51_GetMAC( W5100_SOCKET_BASE(socket)+6,mac); }
 725:.\Generated_Source\PSoC4/W5100.c **** /* ------------------------------------------------------------------------ */
 726:.\Generated_Source\PSoC4/W5100.c **** /**
 727:.\Generated_Source\PSoC4/W5100.c ****  * \brief Write a value to the socket Destination IP address register
 728:.\Generated_Source\PSoC4/W5100.c ****  * \param socket the socket number for the addressed register
 729:.\Generated_Source\PSoC4/W5100.c ****  * \param ip the value to be written to the register
 730:.\Generated_Source\PSoC4/W5100.c ****  */
 731:.\Generated_Source\PSoC4/W5100.c **** static void W5100_SetSocketDestIP(uint8 socket, uint32 ip)
 732:.\Generated_Source\PSoC4/W5100.c **** { W5100_W51_SetIP(W5100_SOCKET_BASE(socket)+12,ip); }
 733:.\Generated_Source\PSoC4/W5100.c **** /* ------------------------------------------------------------------------ */
 734:.\Generated_Source\PSoC4/W5100.c **** /**
 735:.\Generated_Source\PSoC4/W5100.c ****  * \brief Read a value from the socket destination IP register
 736:.\Generated_Source\PSoC4/W5100.c ****  * \param socket the socket number for the addressed register
 737:.\Generated_Source\PSoC4/W5100.c ****  * \returns the value read from the register
 738:.\Generated_Source\PSoC4/W5100.c ****  */
 739:.\Generated_Source\PSoC4/W5100.c **** static uint32 W5100_GetSocketDestIP(uint8 socket )
 740:.\Generated_Source\PSoC4/W5100.c **** { return W5100_W51_GetIP(W5100_SOCKET_BASE(socket)+12); }
 741:.\Generated_Source\PSoC4/W5100.c **** /* ------------------------------------------------------------------------ */
 742:.\Generated_Source\PSoC4/W5100.c **** /**
 743:.\Generated_Source\PSoC4/W5100.c ****  * \brief Write a value to the socket destination port register
 744:.\Generated_Source\PSoC4/W5100.c ****  * \param socket the socket number for the addressed register
 745:.\Generated_Source\PSoC4/W5100.c ****  * \param port the value to be written to the register
 746:.\Generated_Source\PSoC4/W5100.c ****  */
 747:.\Generated_Source\PSoC4/W5100.c **** static void W5100_SetSocketDestPort(uint8 socket, uint16 port)
 748:.\Generated_Source\PSoC4/W5100.c **** { W5100_W51_Write16( W5100_SOCKET_BASE(socket)+16, port); }
 749:.\Generated_Source\PSoC4/W5100.c **** /* ------------------------------------------------------------------------ */
 750:.\Generated_Source\PSoC4/W5100.c **** /**
 751:.\Generated_Source\PSoC4/W5100.c ****  * \brief Read a value from the socket destination port register
 752:.\Generated_Source\PSoC4/W5100.c ****  * \param socket the socket number for the addressed register
 753:.\Generated_Source\PSoC4/W5100.c ****  * \returns the value read from the register
 754:.\Generated_Source\PSoC4/W5100.c ****  */
 755:.\Generated_Source\PSoC4/W5100.c **** static uint16 W5100_GetSocketDestPort(uint8 socket)
ARM GAS  C:\Users\CHUCK~1.ERH\AppData\Local\Temp\cc506n3q.s 			page 22


 756:.\Generated_Source\PSoC4/W5100.c **** { return W5100_W51_Read16( W5100_SOCKET_BASE(socket)+16 ); }
 757:.\Generated_Source\PSoC4/W5100.c **** /* ------------------------------------------------------------------------ */
 758:.\Generated_Source\PSoC4/W5100.c **** /**
 759:.\Generated_Source\PSoC4/W5100.c ****  * \brief Write a value to the socket max segment size register
 760:.\Generated_Source\PSoC4/W5100.c ****  * \param socket the socket number for the addressed register
 761:.\Generated_Source\PSoC4/W5100.c ****  * \param size the value to be written to the register
 762:.\Generated_Source\PSoC4/W5100.c ****  */
 763:.\Generated_Source\PSoC4/W5100.c **** static void W5100_SetSocketMaxSegSize(uint8 socket, uint16 size)
 764:.\Generated_Source\PSoC4/W5100.c **** { W5100_W51_Write16(W5100_SOCKET_BASE(socket)+18,size); }
 765:.\Generated_Source\PSoC4/W5100.c **** /* ------------------------------------------------------------------------ */
 766:.\Generated_Source\PSoC4/W5100.c **** /**
 767:.\Generated_Source\PSoC4/W5100.c ****  * \brief Read a value from the socket maximum segment size register
 768:.\Generated_Source\PSoC4/W5100.c ****  * \param socket the socket number for the addressed register
 769:.\Generated_Source\PSoC4/W5100.c ****  * \returns the value read from the register
 770:.\Generated_Source\PSoC4/W5100.c ****  */
 771:.\Generated_Source\PSoC4/W5100.c **** static uint16 W5100_GetSocketMaxSegSize(uint8 socket)
 772:.\Generated_Source\PSoC4/W5100.c **** { return W5100_W51_Read16(W5100_SOCKET_BASE(socket)+18); }
 773:.\Generated_Source\PSoC4/W5100.c **** /* ------------------------------------------------------------------------ */
 774:.\Generated_Source\PSoC4/W5100.c **** /**
 775:.\Generated_Source\PSoC4/W5100.c ****  * \brief Read a value from the socket protocol register (IP RAW/MAC RAW mode)
 776:.\Generated_Source\PSoC4/W5100.c ****  * \param socket the socket number for the addressed register
 777:.\Generated_Source\PSoC4/W5100.c ****  * \returns the value read from the register
 778:.\Generated_Source\PSoC4/W5100.c ****  */
 779:.\Generated_Source\PSoC4/W5100.c **** static uint16  W5100_GetSocketProto(uint8 socket)
 780:.\Generated_Source\PSoC4/W5100.c **** { return W5100_W51_Read(W5100_SOCKET_BASE(socket)+20); }
 781:.\Generated_Source\PSoC4/W5100.c **** /* ------------------------------------------------------------------------ */
 782:.\Generated_Source\PSoC4/W5100.c **** /**
 783:.\Generated_Source\PSoC4/W5100.c ****  * \brief Write a value to the socket TOS register
 784:.\Generated_Source\PSoC4/W5100.c ****  * \param socket the socket number for the addressed register
 785:.\Generated_Source\PSoC4/W5100.c ****  * \param tos the value to be written to the register
 786:.\Generated_Source\PSoC4/W5100.c ****  */
 787:.\Generated_Source\PSoC4/W5100.c **** static void W5100_SetSocketTOS(uint8 socket, uint8 tos)
 788:.\Generated_Source\PSoC4/W5100.c **** { W5100_W51_Write(W5100_SOCKET_BASE(socket)+21, tos); }
 789:.\Generated_Source\PSoC4/W5100.c **** /* ------------------------------------------------------------------------ */
 790:.\Generated_Source\PSoC4/W5100.c **** /**
 791:.\Generated_Source\PSoC4/W5100.c ****  * \brief Read a value from the socket TOS register
 792:.\Generated_Source\PSoC4/W5100.c ****  * \param socket the socket number for the addressed register
 793:.\Generated_Source\PSoC4/W5100.c ****  * \returns the value read from the register
 794:.\Generated_Source\PSoC4/W5100.c ****  */
 795:.\Generated_Source\PSoC4/W5100.c **** static uint8 W5100_GetSocketTOS(uint8 socket)
 796:.\Generated_Source\PSoC4/W5100.c **** { return W5100_W51_Read(W5100_SOCKET_BASE(socket)+21); }
 797:.\Generated_Source\PSoC4/W5100.c **** /* ------------------------------------------------------------------------ */
 798:.\Generated_Source\PSoC4/W5100.c **** /**
 799:.\Generated_Source\PSoC4/W5100.c ****  * \brief Write a value to the socket Time-To_Live (TTL) register
 800:.\Generated_Source\PSoC4/W5100.c ****  * \param socket the socket number for the addressed register
 801:.\Generated_Source\PSoC4/W5100.c ****  * \param ttl the value to be written to the register
 802:.\Generated_Source\PSoC4/W5100.c ****  */
 803:.\Generated_Source\PSoC4/W5100.c **** static void W5100_SetSocketTTL(uint8 socket, uint8 ttl)
 804:.\Generated_Source\PSoC4/W5100.c **** { W5100_W51_Write(W5100_SOCKET_BASE(socket)+22,ttl); }
 805:.\Generated_Source\PSoC4/W5100.c **** /* ------------------------------------------------------------------------ */
 806:.\Generated_Source\PSoC4/W5100.c **** /**
 807:.\Generated_Source\PSoC4/W5100.c ****  * \brief Read a value from the socket time-to-live (TTL) register
 808:.\Generated_Source\PSoC4/W5100.c ****  * \param socket the socket number for the addressed register
 809:.\Generated_Source\PSoC4/W5100.c ****  * \returns the value read from the register
 810:.\Generated_Source\PSoC4/W5100.c ****  */
 811:.\Generated_Source\PSoC4/W5100.c **** static uint8 W5100_GetSocketTTL(uint8 socket)
 812:.\Generated_Source\PSoC4/W5100.c **** { return W5100_W51_Read(W5100_SOCKET_BASE(socket)+22); }
ARM GAS  C:\Users\CHUCK~1.ERH\AppData\Local\Temp\cc506n3q.s 			page 23


 813:.\Generated_Source\PSoC4/W5100.c **** /* ------------------------------------------------------------------------ */
 814:.\Generated_Source\PSoC4/W5100.c **** /**
 815:.\Generated_Source\PSoC4/W5100.c ****  * \brief Write a value to the socket tx free size register
 816:.\Generated_Source\PSoC4/W5100.c ****  * \param socket the socket number for the addressed register
 817:.\Generated_Source\PSoC4/W5100.c ****  * \param size the value to be written to the register
 818:.\Generated_Source\PSoC4/W5100.c ****  */
 819:.\Generated_Source\PSoC4/W5100.c **** static void W5100_SetSocketTxFree( uint8 socket, uint16 size)
 820:.\Generated_Source\PSoC4/W5100.c **** { W5100_W51_Write16(W5100_SOCKET_BASE(socket)+0x20,size); }
 821:.\Generated_Source\PSoC4/W5100.c **** /* ------------------------------------------------------------------------ */
 822:.\Generated_Source\PSoC4/W5100.c **** /**
 823:.\Generated_Source\PSoC4/W5100.c ****  * \brief Read a value from the socket Tx free size register
 824:.\Generated_Source\PSoC4/W5100.c ****  * \param socket the socket number for the addressed register
 825:.\Generated_Source\PSoC4/W5100.c ****  * \returns the value read from the register
 826:.\Generated_Source\PSoC4/W5100.c ****  */
 827:.\Generated_Source\PSoC4/W5100.c **** static uint16 W5100_GetSocketTxFree(uint8 socket)
 828:.\Generated_Source\PSoC4/W5100.c **** { return W5100_W51_Read16(W5100_SOCKET_BASE(socket)+0x20); }
 829:.\Generated_Source\PSoC4/W5100.c **** /* ------------------------------------------------------------------------ */
 830:.\Generated_Source\PSoC4/W5100.c **** /**
 831:.\Generated_Source\PSoC4/W5100.c ****  * \brief Write a value to the socket tx read pointer register
 832:.\Generated_Source\PSoC4/W5100.c ****  * \param socket the socket number for the addressed register
 833:.\Generated_Source\PSoC4/W5100.c ****  * \param ptr the value to be written to the register
 834:.\Generated_Source\PSoC4/W5100.c ****  */
 835:.\Generated_Source\PSoC4/W5100.c **** static void W5100_SetSocketTxReadPtr(uint8 socket, uint16 ptr)
 836:.\Generated_Source\PSoC4/W5100.c **** { W5100_W51_Write16(W5100_SOCKET_BASE(socket)+0x22,ptr); }
 837:.\Generated_Source\PSoC4/W5100.c **** /* ------------------------------------------------------------------------ */
 838:.\Generated_Source\PSoC4/W5100.c **** /**
 839:.\Generated_Source\PSoC4/W5100.c ****  * \brief Read a value from the socket Tx buffer read pointer register
 840:.\Generated_Source\PSoC4/W5100.c ****  * \param socket the socket number for the addressed register
 841:.\Generated_Source\PSoC4/W5100.c ****  * \returns the value read from the register
 842:.\Generated_Source\PSoC4/W5100.c ****  */
 843:.\Generated_Source\PSoC4/W5100.c **** static uint16 W5100_GetSocketTxReadPtr(uint8 socket)
 844:.\Generated_Source\PSoC4/W5100.c **** { return W5100_W51_Read16(W5100_SOCKET_BASE(socket)+0x22); }
 845:.\Generated_Source\PSoC4/W5100.c **** /* ------------------------------------------------------------------------ */
 846:.\Generated_Source\PSoC4/W5100.c **** /**
 847:.\Generated_Source\PSoC4/W5100.c ****  * \brief Write a value to the socket tx write pointer register
 848:.\Generated_Source\PSoC4/W5100.c ****  * \param socket the socket number for the addressed register
 849:.\Generated_Source\PSoC4/W5100.c ****  * \param ptr the value to be written to the register
 850:.\Generated_Source\PSoC4/W5100.c ****  */
 851:.\Generated_Source\PSoC4/W5100.c **** static void W5100_SetSocketTxWritePtr(uint8 socket, uint16 ptr)
 852:.\Generated_Source\PSoC4/W5100.c **** { W5100_W51_Write16(W5100_SOCKET_BASE(socket)+0x24,ptr); }
 853:.\Generated_Source\PSoC4/W5100.c **** /* ------------------------------------------------------------------------ */
 854:.\Generated_Source\PSoC4/W5100.c **** /**
 855:.\Generated_Source\PSoC4/W5100.c ****  * \brief Read a value from the socket tx buffer write pointer register
 856:.\Generated_Source\PSoC4/W5100.c ****  * \param socket the socket number for the addressed register
 857:.\Generated_Source\PSoC4/W5100.c ****  * \returns the value read from the register
 858:.\Generated_Source\PSoC4/W5100.c ****  */
 859:.\Generated_Source\PSoC4/W5100.c **** static uint16 W5100_GetSocketTxWritePtr(uint8 socket)
 860:.\Generated_Source\PSoC4/W5100.c **** { return W5100_W51_Read16(W5100_SOCKET_BASE(socket)+0x24); }
 861:.\Generated_Source\PSoC4/W5100.c **** /* ------------------------------------------------------------------------ */
 862:.\Generated_Source\PSoC4/W5100.c **** /**
 863:.\Generated_Source\PSoC4/W5100.c ****  * \brief Read a value from the socket rx received data size register
 864:.\Generated_Source\PSoC4/W5100.c ****  * \param socket the socket number for the addressed register
 865:.\Generated_Source\PSoC4/W5100.c ****  * \returns the value read from the register
 866:.\Generated_Source\PSoC4/W5100.c ****  */
 867:.\Generated_Source\PSoC4/W5100.c **** static uint16 W5100_GetSocketRxSize(uint8 socket)
 868:.\Generated_Source\PSoC4/W5100.c **** { return W5100_W51_Read16(W5100_SOCKET_BASE(socket)+0x26); }
 869:.\Generated_Source\PSoC4/W5100.c **** /* ------------------------------------------------------------------------ */
ARM GAS  C:\Users\CHUCK~1.ERH\AppData\Local\Temp\cc506n3q.s 			page 24


 870:.\Generated_Source\PSoC4/W5100.c **** /**
 871:.\Generated_Source\PSoC4/W5100.c ****  * \brief Write a value to the socket rx read pointer register
 872:.\Generated_Source\PSoC4/W5100.c ****  * \param socket the socket number for the addressed register
 873:.\Generated_Source\PSoC4/W5100.c ****  * \param ptr the value to be written to the register
 874:.\Generated_Source\PSoC4/W5100.c ****  */
 875:.\Generated_Source\PSoC4/W5100.c **** static void W5100_SetSocketRxReadPtr(uint8 socket, uint16 ptr)
 876:.\Generated_Source\PSoC4/W5100.c **** { W5100_W51_Write16(W5100_SOCKET_BASE(socket)+0x28,ptr); }
 877:.\Generated_Source\PSoC4/W5100.c **** /* ------------------------------------------------------------------------ */
 878:.\Generated_Source\PSoC4/W5100.c **** /**
 879:.\Generated_Source\PSoC4/W5100.c ****  * \brief Read a value from the socket rx buffer read pointer register
 880:.\Generated_Source\PSoC4/W5100.c ****  * \param socket the socket number for the addressed register
 881:.\Generated_Source\PSoC4/W5100.c ****  * \returns the value read from the register
 882:.\Generated_Source\PSoC4/W5100.c ****  */
 883:.\Generated_Source\PSoC4/W5100.c **** static uint16 W5100_GetSocketRxReadPtr(uint8 socket)
 884:.\Generated_Source\PSoC4/W5100.c **** { return W5100_W51_Read16(W5100_SOCKET_BASE(socket)+0x28); }
 885:.\Generated_Source\PSoC4/W5100.c **** /* ------------------------------------------------------------------------ */
 886:.\Generated_Source\PSoC4/W5100.c **** /**
 887:.\Generated_Source\PSoC4/W5100.c ****  * \brief Write a command to the socket command register and wait for completion
 888:.\Generated_Source\PSoC4/W5100.c ****  * \param socket the addressed socket for the command
 889:.\Generated_Source\PSoC4/W5100.c ****  * \param cmd the command to execute
 890:.\Generated_Source\PSoC4/W5100.c ****  */
 891:.\Generated_Source\PSoC4/W5100.c **** static uint32 W5100_ExecuteSocketCommand( uint8 socket, int cmd)
 892:.\Generated_Source\PSoC4/W5100.c **** {
 893:.\Generated_Source\PSoC4/W5100.c **** 	uint32 timeout;
 894:.\Generated_Source\PSoC4/W5100.c **** 	timeout = 0;
 895:.\Generated_Source\PSoC4/W5100.c **** 	
 896:.\Generated_Source\PSoC4/W5100.c **** 	W5100_SetSocketCommand(socket,cmd);
 897:.\Generated_Source\PSoC4/W5100.c **** 	while ( ( W5100_GetSocketCommand(socket) ) && (timeout < 125))
 898:.\Generated_Source\PSoC4/W5100.c **** 	{
 899:.\Generated_Source\PSoC4/W5100.c **** 		++timeout;
 900:.\Generated_Source\PSoC4/W5100.c **** 		CyDelay(1);
 901:.\Generated_Source\PSoC4/W5100.c **** 	}
 902:.\Generated_Source\PSoC4/W5100.c **** 	return( timeout );
 903:.\Generated_Source\PSoC4/W5100.c **** }
 904:.\Generated_Source\PSoC4/W5100.c **** /* ------------------------------------------------------------------------ */
 905:.\Generated_Source\PSoC4/W5100.c **** /**
 906:.\Generated_Source\PSoC4/W5100.c ****  * \brief Execute a safe read fo the Tx buffer free size register
 907:.\Generated_Source\PSoC4/W5100.c ****  * \param socket the addressed socket to read the available tx buffer
 908:.\Generated_Source\PSoC4/W5100.c ****  * \returns the number of bytes available in the transmit buffer for the socket
 909:.\Generated_Source\PSoC4/W5100.c ****  */
 910:.\Generated_Source\PSoC4/W5100.c **** static uint16 W5100_GetTxFreeSize( uint8 socket )
 911:.\Generated_Source\PSoC4/W5100.c **** {
 912:.\Generated_Source\PSoC4/W5100.c **** 	uint16 first, second;
 913:.\Generated_Source\PSoC4/W5100.c **** 	
 914:.\Generated_Source\PSoC4/W5100.c **** 	first = 0;
 915:.\Generated_Source\PSoC4/W5100.c **** 	second = 0;
 916:.\Generated_Source\PSoC4/W5100.c **** 	do {
 917:.\Generated_Source\PSoC4/W5100.c **** 		first = W5100_GetSocketTxFree( socket );
 918:.\Generated_Source\PSoC4/W5100.c **** 		if (first != 0) {
 919:.\Generated_Source\PSoC4/W5100.c **** 			second = W5100_GetSocketTxFree( socket );
 920:.\Generated_Source\PSoC4/W5100.c **** 		}
 921:.\Generated_Source\PSoC4/W5100.c **** 	}
 922:.\Generated_Source\PSoC4/W5100.c **** 	while (first != second );
 923:.\Generated_Source\PSoC4/W5100.c **** 	
 924:.\Generated_Source\PSoC4/W5100.c **** 	return( second );
 925:.\Generated_Source\PSoC4/W5100.c **** }
 926:.\Generated_Source\PSoC4/W5100.c **** /* ------------------------------------------------------------------------ */
ARM GAS  C:\Users\CHUCK~1.ERH\AppData\Local\Temp\cc506n3q.s 			page 25


 927:.\Generated_Source\PSoC4/W5100.c **** /**
 928:.\Generated_Source\PSoC4/W5100.c ****  * \brief Execute a safe read of the received data size
 929:.\Generated_Source\PSoC4/W5100.c ****  * \param socket the addressed socketfrom which the data will be read
 930:.\Generated_Source\PSoC4/W5100.c ****  * \returns the number of bytes waiting in the recieve buffer of the socket
 931:.\Generated_Source\PSoC4/W5100.c ****  */
 932:.\Generated_Source\PSoC4/W5100.c **** static uint16 W5100_GetRxSize( uint8 socket )
 933:.\Generated_Source\PSoC4/W5100.c **** {
 934:.\Generated_Source\PSoC4/W5100.c **** 	uint16 first, second;
 935:.\Generated_Source\PSoC4/W5100.c **** 	
 936:.\Generated_Source\PSoC4/W5100.c **** 	first = 0;
 937:.\Generated_Source\PSoC4/W5100.c **** 	second = 0;
 938:.\Generated_Source\PSoC4/W5100.c **** 	do {
 939:.\Generated_Source\PSoC4/W5100.c **** 		first = W5100_GetSocketRxSize( socket );
 940:.\Generated_Source\PSoC4/W5100.c **** 		if (first != 0) {
 941:.\Generated_Source\PSoC4/W5100.c **** 			second = W5100_GetSocketRxSize( socket );
 942:.\Generated_Source\PSoC4/W5100.c **** 		}
 943:.\Generated_Source\PSoC4/W5100.c **** 	}
 944:.\Generated_Source\PSoC4/W5100.c **** 	while (first != second );
 945:.\Generated_Source\PSoC4/W5100.c **** 	
 946:.\Generated_Source\PSoC4/W5100.c **** 	return second;
 947:.\Generated_Source\PSoC4/W5100.c **** }
 948:.\Generated_Source\PSoC4/W5100.c **** /* ------------------------------------------------------------------------ */
 949:.\Generated_Source\PSoC4/W5100.c **** 
 950:.\Generated_Source\PSoC4/W5100.c **** // END Socket Register access section
 951:.\Generated_Source\PSoC4/W5100.c **** #endif
 952:.\Generated_Source\PSoC4/W5100.c **** /* ======================================================================== */
 953:.\Generated_Source\PSoC4/W5100.c **** /* W5100 Data Buffer Memory access primitives */
 954:.\Generated_Source\PSoC4/W5100.c **** #if (1)
 955:.\Generated_Source\PSoC4/W5100.c **** /* ------------------------------------------------------------------------ */
 956:.\Generated_Source\PSoC4/W5100.c **** /**
 957:.\Generated_Source\PSoC4/W5100.c ****  * \brief Transfer data from a local data buffer to the chip Tx fifo
 958:.\Generated_Source\PSoC4/W5100.c ****  * \param socket the socket buffer to which the data will be written
 959:.\Generated_Source\PSoC4/W5100.c ****  * \param offset The offest in to the socket buffer
 960:.\Generated_Source\PSoC4/W5100.c ****  * \param *buffer pointer to the local buffer to copy to the transmit fifo
 961:.\Generated_Source\PSoC4/W5100.c ****  * \param length the number of bytes to be copied to the transmit fifo
 962:.\Generated_Source\PSoC4/W5100.c ****  */
 963:.\Generated_Source\PSoC4/W5100.c **** static void W5100_ProcessTxData(uint8 socket, uint16 offset, uint8* buffer, uint16 length)
 404              		.loc 1 963 0
 405              		.cfi_startproc
 406              	.LVL52:
 407 0000 F7B5     		push	{r0, r1, r2, r4, r5, r6, r7, lr}
 408              	.LCFI7:
 409              		.cfi_def_cfa_offset 32
 410              		.cfi_offset 0, -32
 411              		.cfi_offset 1, -28
 412              		.cfi_offset 2, -24
 413              		.cfi_offset 4, -20
 414              		.cfi_offset 5, -16
 415              		.cfi_offset 6, -12
 416              		.cfi_offset 7, -8
 417              		.cfi_offset 14, -4
 418              		.loc 1 963 0
 419 0002 141C     		mov	r4, r2
 420              	.LBB14:
 421              	.LBB15:
 860:.\Generated_Source\PSoC4/W5100.c **** { return W5100_W51_Read16(W5100_SOCKET_BASE(socket)+0x24); }
 422              		.loc 1 860 0
ARM GAS  C:\Users\CHUCK~1.ERH\AppData\Local\Temp\cc506n3q.s 			page 26


 423 0004 154A     		ldr	r2, .L32
 424              	.LVL53:
 425 0006 0702     		lsl	r7, r0, #8
 426              	.LBE15:
 427              	.LBE14:
 428              		.loc 1 963 0
 429 0008 051C     		mov	r5, r0
 430              	.LBB19:
 431              	.LBB16:
 860:.\Generated_Source\PSoC4/W5100.c **** { return W5100_W51_Read16(W5100_SOCKET_BASE(socket)+0x24); }
 432              		.loc 1 860 0
 433 000a B818     		add	r0, r7, r2
 434              	.LVL54:
 435 000c 87B2     		uxth	r7, r0
 436 000e 381C     		mov	r0, r7
 437              	.LBE16:
 438              	.LBE19:
 439              		.loc 1 963 0
 440 0010 0E1C     		mov	r6, r1
 441              	.LBB20:
 442              	.LBB17:
 860:.\Generated_Source\PSoC4/W5100.c **** { return W5100_W51_Read16(W5100_SOCKET_BASE(socket)+0x24); }
 443              		.loc 1 860 0
 444 0012 FFF7FEFF 		bl	W5100_W51_Read16
 445              	.LVL55:
 446              	.LBE17:
 447              	.LBE20:
 964:.\Generated_Source\PSoC4/W5100.c **** {
 965:.\Generated_Source\PSoC4/W5100.c **** 	uint16 addr;
 966:.\Generated_Source\PSoC4/W5100.c **** 	uint16 base;
 967:.\Generated_Source\PSoC4/W5100.c **** 	uint16 PointerOffset;
 968:.\Generated_Source\PSoC4/W5100.c **** 	uint16 size;
 969:.\Generated_Source\PSoC4/W5100.c **** 	
 970:.\Generated_Source\PSoC4/W5100.c **** 	/*
 971:.\Generated_Source\PSoC4/W5100.c **** 	 * Read the offset pointer, and calculate the base address for the start of write
 972:.\Generated_Source\PSoC4/W5100.c **** 	 * in to the chip buffers.  Written data will be offset by the offset byte count
 973:.\Generated_Source\PSoC4/W5100.c **** 	 * specified in the parameters.
 974:.\Generated_Source\PSoC4/W5100.c **** 	 */
 975:.\Generated_Source\PSoC4/W5100.c **** 	base = W5100_GetSocketTxWritePtr(socket) + offset;
 976:.\Generated_Source\PSoC4/W5100.c **** 	PointerOffset = (base & 0x07FF);
 977:.\Generated_Source\PSoC4/W5100.c **** 	addr = PointerOffset + W5100_SOCKET_TX_BASE(socket);
 448              		.loc 1 977 0
 449 0016 8022     		mov	r2, #128
 976:.\Generated_Source\PSoC4/W5100.c **** 	PointerOffset = (base & 0x07FF);
 450              		.loc 1 976 0
 451 0018 4305     		lsl	r3, r0, #21
 452              		.loc 1 977 0
 453 001a ED03     		lsl	r5, r5, #15
 454              	.LVL56:
 455              	.LBB21:
 456              	.LBB18:
 860:.\Generated_Source\PSoC4/W5100.c **** { return W5100_W51_Read16(W5100_SOCKET_BASE(socket)+0x24); }
 457              		.loc 1 860 0
 458 001c 0190     		str	r0, [sp, #4]
 459              	.LVL57:
 460              	.LBE18:
 461              	.LBE21:
ARM GAS  C:\Users\CHUCK~1.ERH\AppData\Local\Temp\cc506n3q.s 			page 27


 462              		.loc 1 977 0
 463 001e D001     		lsl	r0, r2, #7
 976:.\Generated_Source\PSoC4/W5100.c **** 	PointerOffset = (base & 0x07FF);
 464              		.loc 1 976 0
 465 0020 590D     		lsr	r1, r3, #21
 466              	.LVL58:
 467              		.loc 1 977 0
 468 0022 2B18     		add	r3, r5, r0
 469 0024 9DB2     		uxth	r5, r3
 978:.\Generated_Source\PSoC4/W5100.c **** 	/* calculate the number of bytes from the pointer to the end of the buffer */
 979:.\Generated_Source\PSoC4/W5100.c **** 	size = 0x0800 - PointerOffset;
 470              		.loc 1 979 0
 471 0026 8023     		mov	r3, #128
 977:.\Generated_Source\PSoC4/W5100.c **** 	addr = PointerOffset + W5100_SOCKET_TX_BASE(socket);
 472              		.loc 1 977 0
 473 0028 4A19     		add	r2, r1, r5
 474 002a 0095     		str	r5, [sp]
 475              		.loc 1 979 0
 476 002c 1D01     		lsl	r5, r3, #4
 477 002e 691A     		sub	r1, r5, r1
 478              	.LVL59:
 479 0030 8DB2     		uxth	r5, r1
 977:.\Generated_Source\PSoC4/W5100.c **** 	addr = PointerOffset + W5100_SOCKET_TX_BASE(socket);
 480              		.loc 1 977 0
 481 0032 90B2     		uxth	r0, r2
 482              	.LVL60:
 980:.\Generated_Source\PSoC4/W5100.c **** 	
 981:.\Generated_Source\PSoC4/W5100.c **** 	/*
 982:.\Generated_Source\PSoC4/W5100.c **** 	 * is there enough space to write the complete packet
 983:.\Generated_Source\PSoC4/W5100.c **** 	 * or, shoudl the data be split in to two writes.
 984:.\Generated_Source\PSoC4/W5100.c **** 	 */
 985:.\Generated_Source\PSoC4/W5100.c **** 	if ( length > size) {
 986:.\Generated_Source\PSoC4/W5100.c **** 		/*
 987:.\Generated_Source\PSoC4/W5100.c **** 		 * There is more data to send than will fit from the pointer to the end
 988:.\Generated_Source\PSoC4/W5100.c **** 		 * of the memory, so we will write the data in two chunks.  First, write the
 989:.\Generated_Source\PSoC4/W5100.c **** 		 * data from the pointer to the end of the buffer, then write the portion
 990:.\Generated_Source\PSoC4/W5100.c **** 		 * remaining to the start (base ptr) of the socket buffer
 991:.\Generated_Source\PSoC4/W5100.c **** 		 */
 992:.\Generated_Source\PSoC4/W5100.c **** 		W5100_W51_WriteBlock(addr, buffer, size);
 483              		.loc 1 992 0
 484 0034 311C     		mov	r1, r6
 485              	.LVL61:
 993:.\Generated_Source\PSoC4/W5100.c **** 		W5100_W51_WriteBlock(W5100_SOCKET_TX_BASE(socket), &buffer[size], length - size);
 994:.\Generated_Source\PSoC4/W5100.c **** 	}
 995:.\Generated_Source\PSoC4/W5100.c **** 	else {
 996:.\Generated_Source\PSoC4/W5100.c **** 		/* 
 997:.\Generated_Source\PSoC4/W5100.c **** 		 * there is enough available space from the write point to the end of buffer
 998:.\Generated_Source\PSoC4/W5100.c **** 		 * to hold the whole packe of information, so just write it to the memory
 999:.\Generated_Source\PSoC4/W5100.c **** 		 */
1000:.\Generated_Source\PSoC4/W5100.c **** 		W5100_W51_WriteBlock(addr,buffer,length);
 486              		.loc 1 1000 0
 487 0036 221E     		sub	r2, r4, #0
 488              	.LVL62:
 985:.\Generated_Source\PSoC4/W5100.c **** 	if ( length > size) {
 489              		.loc 1 985 0
 490 0038 AA42     		cmp	r2, r5
 491 003a 06D9     		bls	.L31
ARM GAS  C:\Users\CHUCK~1.ERH\AppData\Local\Temp\cc506n3q.s 			page 28


 992:.\Generated_Source\PSoC4/W5100.c **** 		W5100_W51_WriteBlock(addr, buffer, size);
 492              		.loc 1 992 0
 493 003c 2A1C     		mov	r2, r5
 494 003e FFF7FEFF 		bl	W5100_W51_WriteBlock
 495              	.LVL63:
 993:.\Generated_Source\PSoC4/W5100.c **** 		W5100_W51_WriteBlock(W5100_SOCKET_TX_BASE(socket), &buffer[size], length - size);
 496              		.loc 1 993 0
 497 0042 7119     		add	r1, r6, r5
 498 0044 0098     		ldr	r0, [sp]
 499 0046 661B     		sub	r6, r4, r5
 500              	.LVL64:
 501 0048 B2B2     		uxth	r2, r6
 502              	.L31:
 503              		.loc 1 1000 0
 504 004a FFF7FEFF 		bl	W5100_W51_WriteBlock
 505              	.LVL65:
1001:.\Generated_Source\PSoC4/W5100.c **** 	}
1002:.\Generated_Source\PSoC4/W5100.c **** 	/* move the write pointer */
1003:.\Generated_Source\PSoC4/W5100.c **** 	base += length;
 506              		.loc 1 1003 0
 507 004e 0198     		ldr	r0, [sp, #4]
1004:.\Generated_Source\PSoC4/W5100.c **** 	/* 
1005:.\Generated_Source\PSoC4/W5100.c **** 	 * Store the new write pointer so that the device knows that there is data waiting
1006:.\Generated_Source\PSoC4/W5100.c **** 	 * to be transmitted over the link.
1007:.\Generated_Source\PSoC4/W5100.c **** 	 */
1008:.\Generated_Source\PSoC4/W5100.c **** 	W5100_SetSocketTxWritePtr(socket, base);
1009:.\Generated_Source\PSoC4/W5100.c **** }
 508              		.loc 1 1009 0
 509              		@ sp needed for prologue
1003:.\Generated_Source\PSoC4/W5100.c **** 	base += length;
 510              		.loc 1 1003 0
 511 0050 0419     		add	r4, r0, r4
 512              	.LVL66:
 513              	.LBB22:
 514              	.LBB23:
 852:.\Generated_Source\PSoC4/W5100.c **** { W5100_W51_Write16(W5100_SOCKET_BASE(socket)+0x24,ptr); }
 515              		.loc 1 852 0
 516 0052 A1B2     		uxth	r1, r4
 517 0054 381C     		mov	r0, r7
 518 0056 FFF7FEFF 		bl	W5100_W51_Write16
 519              	.LVL67:
 520              	.LVL68:
 521              	.LBE23:
 522              	.LBE22:
 523              		.loc 1 1009 0
 524 005a F7BD     		pop	{r0, r1, r2, r4, r5, r6, r7, pc}
 525              	.L33:
 526              		.align	2
 527              	.L32:
 528 005c 24040000 		.word	1060
 529              		.cfi_endproc
 530              	.LFE111:
 531              		.size	W5100_ProcessTxData.constprop.2, .-W5100_ProcessTxData.constprop.2
 532              		.section	.text.W5100_GetRxSize,"ax",%progbits
 533              		.align	1
 534              		.code	16
 535              		.thumb_func
ARM GAS  C:\Users\CHUCK~1.ERH\AppData\Local\Temp\cc506n3q.s 			page 29


 536              		.type	W5100_GetRxSize, %function
 537              	W5100_GetRxSize:
 538              	.LFB71:
 933:.\Generated_Source\PSoC4/W5100.c **** {
 539              		.loc 1 933 0
 540              		.cfi_startproc
 541              	.LVL69:
 542              	.LBB28:
 543              	.LBB29:
 868:.\Generated_Source\PSoC4/W5100.c **** { return W5100_W51_Read16(W5100_SOCKET_BASE(socket)+0x26); }
 544              		.loc 1 868 0
 545 0000 094B     		ldr	r3, .L41
 546              	.LBE29:
 547              	.LBE28:
 933:.\Generated_Source\PSoC4/W5100.c **** {
 548              		.loc 1 933 0
 549 0002 70B5     		push	{r4, r5, r6, lr}
 550              	.LCFI8:
 551              		.cfi_def_cfa_offset 16
 552              		.cfi_offset 4, -16
 553              		.cfi_offset 5, -12
 554              		.cfi_offset 6, -8
 555              		.cfi_offset 14, -4
 556              	.LBB31:
 557              	.LBB30:
 868:.\Generated_Source\PSoC4/W5100.c **** { return W5100_W51_Read16(W5100_SOCKET_BASE(socket)+0x26); }
 558              		.loc 1 868 0
 559 0004 0602     		lsl	r6, r0, #8
 560 0006 F018     		add	r0, r6, r3
 561              	.LVL70:
 562 0008 86B2     		uxth	r6, r0
 937:.\Generated_Source\PSoC4/W5100.c **** 	second = 0;
 563              		.loc 1 937 0
 564 000a 0025     		mov	r5, #0
 565              	.LVL71:
 566              	.L36:
 868:.\Generated_Source\PSoC4/W5100.c **** { return W5100_W51_Read16(W5100_SOCKET_BASE(socket)+0x26); }
 567              		.loc 1 868 0
 568 000c 301C     		mov	r0, r6
 569 000e FFF7FEFF 		bl	W5100_W51_Read16
 570              	.LVL72:
 571 0012 041E     		sub	r4, r0, #0
 572              	.LBE30:
 573              	.LBE31:
 940:.\Generated_Source\PSoC4/W5100.c **** 		if (first != 0) {
 574              		.loc 1 940 0
 575 0014 03D0     		beq	.L35
 576              	.LBB32:
 577              	.LBB33:
 868:.\Generated_Source\PSoC4/W5100.c **** { return W5100_W51_Read16(W5100_SOCKET_BASE(socket)+0x26); }
 578              		.loc 1 868 0
 579 0016 301C     		mov	r0, r6
 580 0018 FFF7FEFF 		bl	W5100_W51_Read16
 581              	.LVL73:
 582 001c 051C     		mov	r5, r0
 583              	.LVL74:
 584              	.L35:
ARM GAS  C:\Users\CHUCK~1.ERH\AppData\Local\Temp\cc506n3q.s 			page 30


 585              	.LBE33:
 586              	.LBE32:
 944:.\Generated_Source\PSoC4/W5100.c **** 	while (first != second );
 587              		.loc 1 944 0
 588 001e AC42     		cmp	r4, r5
 589 0020 F4D1     		bne	.L36
 947:.\Generated_Source\PSoC4/W5100.c **** }
 590              		.loc 1 947 0
 591 0022 201C     		mov	r0, r4
 592              		@ sp needed for prologue
 593              	.LVL75:
 594 0024 70BD     		pop	{r4, r5, r6, pc}
 595              	.L42:
 596 0026 C046     		.align	2
 597              	.L41:
 598 0028 26040000 		.word	1062
 599              		.cfi_endproc
 600              	.LFE71:
 601              		.size	W5100_GetRxSize, .-W5100_GetRxSize
 602              		.section	.text.W5100_W51_ReadBlock,"ax",%progbits
 603              		.align	1
 604              		.code	16
 605              		.thumb_func
 606              		.type	W5100_W51_ReadBlock, %function
 607              	W5100_W51_ReadBlock:
 608              	.LFB10:
 448:.\Generated_Source\PSoC4/W5100.c **** {
 609              		.loc 1 448 0
 610              		.cfi_startproc
 611              	.LVL76:
 612 0000 F8B5     		push	{r3, r4, r5, r6, r7, lr}
 613              	.LCFI9:
 614              		.cfi_def_cfa_offset 24
 615              		.cfi_offset 3, -24
 616              		.cfi_offset 4, -20
 617              		.cfi_offset 5, -16
 618              		.cfi_offset 6, -12
 619              		.cfi_offset 7, -8
 620              		.cfi_offset 14, -4
 448:.\Generated_Source\PSoC4/W5100.c **** {
 621              		.loc 1 448 0
 622 0002 061C     		mov	r6, r0
 623 0004 0F1C     		mov	r7, r1
 624 0006 151C     		mov	r5, r2
 451:.\Generated_Source\PSoC4/W5100.c **** 	for(index=0;index<length;++index) {
 625              		.loc 1 451 0
 626 0008 0024     		mov	r4, #0
 627              	.LVL77:
 628              	.L44:
 451:.\Generated_Source\PSoC4/W5100.c **** 	for(index=0;index<length;++index) {
 629              		.loc 1 451 0 is_stmt 0 discriminator 1
 630 000a AC42     		cmp	r4, r5
 631 000c 06DA     		bge	.L46
 632              	.L45:
 447:.\Generated_Source\PSoC4/W5100.c **** static void W5100_W51_ReadBlock(uint16 addr, uint8* buffer, uint16 length)
 633              		.loc 1 447 0 is_stmt 1 discriminator 2
 634 000e 3019     		add	r0, r6, r4
ARM GAS  C:\Users\CHUCK~1.ERH\AppData\Local\Temp\cc506n3q.s 			page 31


 452:.\Generated_Source\PSoC4/W5100.c **** 		buffer[index] = W5100_W51_Read(addr+index);
 635              		.loc 1 452 0 discriminator 2
 636 0010 80B2     		uxth	r0, r0
 637 0012 FFF7FEFF 		bl	W5100_W51_Read
 638              	.LVL78:
 639 0016 3855     		strb	r0, [r7, r4]
 451:.\Generated_Source\PSoC4/W5100.c **** 	for(index=0;index<length;++index) {
 640              		.loc 1 451 0 discriminator 2
 641 0018 0134     		add	r4, r4, #1
 642              	.LVL79:
 643 001a F6E7     		b	.L44
 644              	.L46:
 454:.\Generated_Source\PSoC4/W5100.c **** }
 645              		.loc 1 454 0
 646              		@ sp needed for prologue
 647              	.LVL80:
 648              	.LVL81:
 649 001c F8BD     		pop	{r3, r4, r5, r6, r7, pc}
 650              		.cfi_endproc
 651              	.LFE10:
 652              		.size	W5100_W51_ReadBlock, .-W5100_W51_ReadBlock
 653              		.section	.text.W5100_ProcessRxData.constprop.1,"ax",%progbits
 654              		.align	1
 655              		.code	16
 656              		.thumb_func
 657              		.type	W5100_ProcessRxData.constprop.1, %function
 658              	W5100_ProcessRxData.constprop.1:
 659              	.LFB112:
1010:.\Generated_Source\PSoC4/W5100.c **** /* ------------------------------------------------------------------------ */
1011:.\Generated_Source\PSoC4/W5100.c **** /**
1012:.\Generated_Source\PSoC4/W5100.c ****  * \brief Transfer data from the chip receive buffer to a local buffer
1013:.\Generated_Source\PSoC4/W5100.c ****  * \param socket the socket buffer from which the data will be read
1014:.\Generated_Source\PSoC4/W5100.c ****  * \param offset The offest in to the socket buffer
1015:.\Generated_Source\PSoC4/W5100.c ****  * \param *buffer pointer to the local buffer to hold the receive fifo data
1016:.\Generated_Source\PSoC4/W5100.c ****  * \param length the max number of bytes to be copied to the local buffer
1017:.\Generated_Source\PSoC4/W5100.c ****  * \param flags Flag settings to control read fifo options (lookahead)
1018:.\Generated_Source\PSoC4/W5100.c ****  */
1019:.\Generated_Source\PSoC4/W5100.c **** static void W5100_ProcessRxData(uint8 socket, uint16 offset, uint8* buffer, uint16 length, uint8 fl
 660              		.loc 1 1019 0
 661              		.cfi_startproc
 662              	.LVL82:
 663 0000 F7B5     		push	{r0, r1, r2, r4, r5, r6, r7, lr}
 664              	.LCFI10:
 665              		.cfi_def_cfa_offset 32
 666              		.cfi_offset 0, -32
 667              		.cfi_offset 1, -28
 668              		.cfi_offset 2, -24
 669              		.cfi_offset 4, -20
 670              		.cfi_offset 5, -16
 671              		.cfi_offset 6, -12
 672              		.cfi_offset 7, -8
 673              		.cfi_offset 14, -4
 674              		.loc 1 1019 0
 675 0002 161C     		mov	r6, r2
 676              	.LBB38:
 677              	.LBB39:
 884:.\Generated_Source\PSoC4/W5100.c **** { return W5100_W51_Read16(W5100_SOCKET_BASE(socket)+0x28); }
ARM GAS  C:\Users\CHUCK~1.ERH\AppData\Local\Temp\cc506n3q.s 			page 32


 678              		.loc 1 884 0
 679 0004 8522     		mov	r2, #133
 680              	.LVL83:
 681 0006 0702     		lsl	r7, r0, #8
 682              	.LBE39:
 683              	.LBE38:
 684              		.loc 1 1019 0
 685 0008 051C     		mov	r5, r0
 686              	.LBB43:
 687              	.LBB40:
 884:.\Generated_Source\PSoC4/W5100.c **** { return W5100_W51_Read16(W5100_SOCKET_BASE(socket)+0x28); }
 688              		.loc 1 884 0
 689 000a D000     		lsl	r0, r2, #3
 690              	.LVL84:
 691              	.LBE40:
 692              	.LBE43:
 693              		.loc 1 1019 0
 694 000c 0091     		str	r1, [sp]
 695              	.LBB44:
 696              	.LBB41:
 884:.\Generated_Source\PSoC4/W5100.c **** { return W5100_W51_Read16(W5100_SOCKET_BASE(socket)+0x28); }
 697              		.loc 1 884 0
 698 000e 3918     		add	r1, r7, r0
 699              	.LVL85:
 700 0010 8FB2     		uxth	r7, r1
 701 0012 381C     		mov	r0, r7
 702              	.LBE41:
 703              	.LBE44:
 704              		.loc 1 1019 0
 705 0014 1C1C     		mov	r4, r3
 706              	.LBB45:
 707              	.LBB42:
 884:.\Generated_Source\PSoC4/W5100.c **** { return W5100_W51_Read16(W5100_SOCKET_BASE(socket)+0x28); }
 708              		.loc 1 884 0
 709 0016 FFF7FEFF 		bl	W5100_W51_Read16
 710              	.LVL86:
 711              	.LBE42:
 712              	.LBE45:
1020:.\Generated_Source\PSoC4/W5100.c **** {
1021:.\Generated_Source\PSoC4/W5100.c **** 	uint16 addr;
1022:.\Generated_Source\PSoC4/W5100.c **** 	uint16 base;
1023:.\Generated_Source\PSoC4/W5100.c **** 	uint16 PointerOffset;
1024:.\Generated_Source\PSoC4/W5100.c **** 	uint16 size;
1025:.\Generated_Source\PSoC4/W5100.c **** 	
1026:.\Generated_Source\PSoC4/W5100.c **** 	/*
1027:.\Generated_Source\PSoC4/W5100.c **** 	 * Read the offset pointer, and calculate the base address for the start of read
1028:.\Generated_Source\PSoC4/W5100.c **** 	 * in to the chip buffers.  The data read will be offset by the offset byte count
1029:.\Generated_Source\PSoC4/W5100.c **** 	 * specified in the parameters.
1030:.\Generated_Source\PSoC4/W5100.c **** 	 */
1031:.\Generated_Source\PSoC4/W5100.c **** 	base = W5100_GetSocketRxReadPtr(socket) + offset;
 713              		.loc 1 1031 0
 714 001a 009B     		ldr	r3, [sp]
1032:.\Generated_Source\PSoC4/W5100.c **** 	PointerOffset = (base & 0x07FF);
1033:.\Generated_Source\PSoC4/W5100.c **** 	addr = PointerOffset + W5100_SOCKET_RX_BASE(socket);
 715              		.loc 1 1033 0
 716 001c ED03     		lsl	r5, r5, #15
 717              	.LVL87:
ARM GAS  C:\Users\CHUCK~1.ERH\AppData\Local\Temp\cc506n3q.s 			page 33


1031:.\Generated_Source\PSoC4/W5100.c **** 	base = W5100_GetSocketRxReadPtr(socket) + offset;
 718              		.loc 1 1031 0
 719 001e C218     		add	r2, r0, r3
 720 0020 90B2     		uxth	r0, r2
 721              		.loc 1 1033 0
 722 0022 C022     		mov	r2, #192
1032:.\Generated_Source\PSoC4/W5100.c **** 	PointerOffset = (base & 0x07FF);
 723              		.loc 1 1032 0
 724 0024 4105     		lsl	r1, r0, #21
1031:.\Generated_Source\PSoC4/W5100.c **** 	base = W5100_GetSocketRxReadPtr(socket) + offset;
 725              		.loc 1 1031 0
 726 0026 0090     		str	r0, [sp]
 727              	.LVL88:
 728              		.loc 1 1033 0
 729 0028 D001     		lsl	r0, r2, #7
1032:.\Generated_Source\PSoC4/W5100.c **** 	PointerOffset = (base & 0x07FF);
 730              		.loc 1 1032 0
 731 002a 4B0D     		lsr	r3, r1, #21
 732              	.LVL89:
 733              		.loc 1 1033 0
 734 002c 2918     		add	r1, r5, r0
 735 002e 8DB2     		uxth	r5, r1
1034:.\Generated_Source\PSoC4/W5100.c **** 	/* calculate the number of bytes from the pointer to the end of the buffer */
1035:.\Generated_Source\PSoC4/W5100.c **** 	size = 0x0800 - PointerOffset;
 736              		.loc 1 1035 0
 737 0030 8021     		mov	r1, #128
1033:.\Generated_Source\PSoC4/W5100.c **** 	addr = PointerOffset + W5100_SOCKET_RX_BASE(socket);
 738              		.loc 1 1033 0
 739 0032 5A19     		add	r2, r3, r5
 740 0034 0195     		str	r5, [sp, #4]
 741              		.loc 1 1035 0
 742 0036 0D01     		lsl	r5, r1, #4
 743 0038 EB1A     		sub	r3, r5, r3
 744              	.LVL90:
 745 003a 9DB2     		uxth	r5, r3
1033:.\Generated_Source\PSoC4/W5100.c **** 	addr = PointerOffset + W5100_SOCKET_RX_BASE(socket);
 746              		.loc 1 1033 0
 747 003c 90B2     		uxth	r0, r2
 748              	.LVL91:
1036:.\Generated_Source\PSoC4/W5100.c **** 	/*
1037:.\Generated_Source\PSoC4/W5100.c **** 	 * is there enough space to read the complete packet
1038:.\Generated_Source\PSoC4/W5100.c **** 	 * or, should the data be split in to two reads.
1039:.\Generated_Source\PSoC4/W5100.c **** 	 */
1040:.\Generated_Source\PSoC4/W5100.c **** 	if ( length > size) {
1041:.\Generated_Source\PSoC4/W5100.c **** 		/*
1042:.\Generated_Source\PSoC4/W5100.c **** 		 * There is more data to send than will fit from the pointer to the end
1043:.\Generated_Source\PSoC4/W5100.c **** 		 * of the memory, so we will write the data in two chunks.  First, write the
1044:.\Generated_Source\PSoC4/W5100.c **** 		 * data from the pointer to the end of the buffer, then write the portion
1045:.\Generated_Source\PSoC4/W5100.c **** 		 * remaining to the start (base ptr) of the socket buffer
1046:.\Generated_Source\PSoC4/W5100.c **** 		 */
1047:.\Generated_Source\PSoC4/W5100.c **** 		W5100_W51_ReadBlock(addr, buffer, size);
 749              		.loc 1 1047 0
 750 003e 311C     		mov	r1, r6
1048:.\Generated_Source\PSoC4/W5100.c **** 		W5100_W51_ReadBlock(W5100_SOCKET_RX_BASE(socket), &buffer[size], length - size);
1049:.\Generated_Source\PSoC4/W5100.c **** 	}
1050:.\Generated_Source\PSoC4/W5100.c **** 	else {
1051:.\Generated_Source\PSoC4/W5100.c **** 		/* 
ARM GAS  C:\Users\CHUCK~1.ERH\AppData\Local\Temp\cc506n3q.s 			page 34


1052:.\Generated_Source\PSoC4/W5100.c **** 		 * there is enough available space from the write point to the end of buffer
1053:.\Generated_Source\PSoC4/W5100.c **** 		 * to hold the whole packe of information, so just write it to the memory
1054:.\Generated_Source\PSoC4/W5100.c **** 		 */
1055:.\Generated_Source\PSoC4/W5100.c **** 		W5100_W51_ReadBlock(addr,buffer,length);
 751              		.loc 1 1055 0
 752 0040 221E     		sub	r2, r4, #0
 753              	.LVL92:
1040:.\Generated_Source\PSoC4/W5100.c **** 	if ( length > size) {
 754              		.loc 1 1040 0
 755 0042 AA42     		cmp	r2, r5
 756 0044 06D9     		bls	.L50
1047:.\Generated_Source\PSoC4/W5100.c **** 		W5100_W51_ReadBlock(addr, buffer, size);
 757              		.loc 1 1047 0
 758 0046 2A1C     		mov	r2, r5
 759 0048 FFF7FEFF 		bl	W5100_W51_ReadBlock
 760              	.LVL93:
1048:.\Generated_Source\PSoC4/W5100.c **** 		W5100_W51_ReadBlock(W5100_SOCKET_RX_BASE(socket), &buffer[size], length - size);
 761              		.loc 1 1048 0
 762 004c 7119     		add	r1, r6, r5
 763 004e 0198     		ldr	r0, [sp, #4]
 764 0050 661B     		sub	r6, r4, r5
 765              	.LVL94:
 766 0052 B2B2     		uxth	r2, r6
 767              	.L50:
 768              		.loc 1 1055 0
 769 0054 FFF7FEFF 		bl	W5100_W51_ReadBlock
 770              	.LVL95:
1056:.\Generated_Source\PSoC4/W5100.c **** 	}
1057:.\Generated_Source\PSoC4/W5100.c **** 	if ( (flags & 0x01) == 0 ) { /* V1.1: Added ==0 condition to lookahead flag check */
1058:.\Generated_Source\PSoC4/W5100.c **** 		/* move the write pointer */
1059:.\Generated_Source\PSoC4/W5100.c **** 		base += length;
 771              		.loc 1 1059 0
 772 0058 0098     		ldr	r0, [sp]
1060:.\Generated_Source\PSoC4/W5100.c **** 		/* 
1061:.\Generated_Source\PSoC4/W5100.c **** 		 * Store the new write pointer so that the device knows that there is data waiting
1062:.\Generated_Source\PSoC4/W5100.c **** 		 * to be transmitted over the link.
1063:.\Generated_Source\PSoC4/W5100.c **** 		 */
1064:.\Generated_Source\PSoC4/W5100.c **** 		W5100_SetSocketRxReadPtr(socket, base);
1065:.\Generated_Source\PSoC4/W5100.c **** 	}
1066:.\Generated_Source\PSoC4/W5100.c **** }
 773              		.loc 1 1066 0
 774              		@ sp needed for prologue
1059:.\Generated_Source\PSoC4/W5100.c **** 		base += length;
 775              		.loc 1 1059 0
 776 005a 0419     		add	r4, r0, r4
 777              	.LVL96:
 778              	.LBB46:
 779              	.LBB47:
 876:.\Generated_Source\PSoC4/W5100.c **** { W5100_W51_Write16(W5100_SOCKET_BASE(socket)+0x28,ptr); }
 780              		.loc 1 876 0
 781 005c A1B2     		uxth	r1, r4
 782 005e 381C     		mov	r0, r7
 783 0060 FFF7FEFF 		bl	W5100_W51_Write16
 784              	.LVL97:
 785              	.LVL98:
 786              	.LBE47:
 787              	.LBE46:
ARM GAS  C:\Users\CHUCK~1.ERH\AppData\Local\Temp\cc506n3q.s 			page 35


 788              		.loc 1 1066 0
 789 0064 F7BD     		pop	{r0, r1, r2, r4, r5, r6, r7, pc}
 790              		.cfi_endproc
 791              	.LFE112:
 792              		.size	W5100_ProcessRxData.constprop.1, .-W5100_ProcessRxData.constprop.1
 793              		.section	.text.W5100_ExecuteSocketCommand,"ax",%progbits
 794              		.align	1
 795              		.code	16
 796              		.thumb_func
 797              		.type	W5100_ExecuteSocketCommand, %function
 798              	W5100_ExecuteSocketCommand:
 799              	.LFB69:
 892:.\Generated_Source\PSoC4/W5100.c **** {
 800              		.loc 1 892 0
 801              		.cfi_startproc
 802              	.LVL99:
 803 0000 38B5     		push	{r3, r4, r5, lr}
 804              	.LCFI11:
 805              		.cfi_def_cfa_offset 16
 806              		.cfi_offset 3, -16
 807              		.cfi_offset 4, -12
 808              		.cfi_offset 5, -8
 809              		.cfi_offset 14, -4
 810              	.LBB52:
 811              	.LBB53:
 652:.\Generated_Source\PSoC4/W5100.c **** { W5100_W51_Write(W5100_SOCKET_BASE(socket)+1, cmd); }
 812              		.loc 1 652 0
 813 0002 0B4B     		ldr	r3, .L58
 814 0004 0502     		lsl	r5, r0, #8
 815 0006 E818     		add	r0, r5, r3
 816              	.LVL100:
 817 0008 85B2     		uxth	r5, r0
 818 000a C9B2     		uxtb	r1, r1
 819              	.LVL101:
 820 000c 281C     		mov	r0, r5
 821 000e FFF7FEFF 		bl	W5100_W51_Write
 822              	.LVL102:
 894:.\Generated_Source\PSoC4/W5100.c **** 	timeout = 0;
 823              		.loc 1 894 0
 824 0012 0024     		mov	r4, #0
 825              	.LVL103:
 826              	.L52:
 827              	.LBE53:
 828              	.LBE52:
 829              	.LBB54:
 830              	.LBB55:
 660:.\Generated_Source\PSoC4/W5100.c **** { return W5100_W51_Read(W5100_SOCKET_BASE(socket)+1); }
 831              		.loc 1 660 0 discriminator 1
 832 0014 281C     		mov	r0, r5
 833 0016 FFF7FEFF 		bl	W5100_W51_Read
 834              	.LVL104:
 835              	.LBE55:
 836              	.LBE54:
 897:.\Generated_Source\PSoC4/W5100.c **** 	while ( ( W5100_GetSocketCommand(socket) ) && (timeout < 125))
 837              		.loc 1 897 0 discriminator 1
 838 001a 0028     		cmp	r0, #0
 839 001c 06D0     		beq	.L53
ARM GAS  C:\Users\CHUCK~1.ERH\AppData\Local\Temp\cc506n3q.s 			page 36


 897:.\Generated_Source\PSoC4/W5100.c **** 	while ( ( W5100_GetSocketCommand(socket) ) && (timeout < 125))
 840              		.loc 1 897 0 is_stmt 0 discriminator 2
 841 001e 7D2C     		cmp	r4, #125
 842 0020 04D0     		beq	.L53
 843              	.L54:
 900:.\Generated_Source\PSoC4/W5100.c **** 		CyDelay(1);
 844              		.loc 1 900 0 is_stmt 1
 845 0022 0120     		mov	r0, #1
 899:.\Generated_Source\PSoC4/W5100.c **** 		++timeout;
 846              		.loc 1 899 0
 847 0024 0134     		add	r4, r4, #1
 848              	.LVL105:
 900:.\Generated_Source\PSoC4/W5100.c **** 		CyDelay(1);
 849              		.loc 1 900 0
 850 0026 FFF7FEFF 		bl	CyDelay
 851              	.LVL106:
 852 002a F3E7     		b	.L52
 853              	.L53:
 903:.\Generated_Source\PSoC4/W5100.c **** }
 854              		.loc 1 903 0
 855 002c 201C     		mov	r0, r4
 856              		@ sp needed for prologue
 857              	.LVL107:
 858 002e 38BD     		pop	{r3, r4, r5, pc}
 859              	.L59:
 860              		.align	2
 861              	.L58:
 862 0030 01040000 		.word	1025
 863              		.cfi_endproc
 864              	.LFE69:
 865              		.size	W5100_ExecuteSocketCommand, .-W5100_ExecuteSocketCommand
 866              		.section	.text.W5100_W51_GetIP.constprop.7,"ax",%progbits
 867              		.align	1
 868              		.code	16
 869              		.thumb_func
 870              		.type	W5100_W51_GetIP.constprop.7, %function
 871              	W5100_W51_GetIP.constprop.7:
 872              	.LFB106:
 386:.\Generated_Source\PSoC4/W5100.c **** static uint32 W5100_W51_GetIP( uint16 addr )
 873              		.loc 1 386 0
 874              		.cfi_startproc
 875              	.LVL108:
 876 0000 13B5     		push	{r0, r1, r4, lr}
 877              	.LCFI12:
 878              		.cfi_def_cfa_offset 16
 879              		.cfi_offset 0, -16
 880              		.cfi_offset 1, -12
 881              		.cfi_offset 4, -8
 882              		.cfi_offset 14, -4
 883              	.LVL109:
 393:.\Generated_Source\PSoC4/W5100.c **** 	*ip = 0;
 884              		.loc 1 393 0
 885 0002 0024     		mov	r4, #0
 886 0004 0194     		str	r4, [sp, #4]
 887              	.LVL110:
 888              	.L61:
 386:.\Generated_Source\PSoC4/W5100.c **** static uint32 W5100_W51_GetIP( uint16 addr )
ARM GAS  C:\Users\CHUCK~1.ERH\AppData\Local\Temp\cc506n3q.s 			page 37


 889              		.loc 1 386 0
 890 0006 201C     		mov	r0, r4
 891 0008 0F30     		add	r0, r0, #15
 395:.\Generated_Source\PSoC4/W5100.c **** 		buffer[index] = W5100_W51_Read(addr+index);
 892              		.loc 1 395 0
 893 000a 80B2     		uxth	r0, r0
 894 000c FFF7FEFF 		bl	W5100_W51_Read
 895              	.LVL111:
 896 0010 01AB     		add	r3, sp, #4
 897              	.LVL112:
 898 0012 E054     		strb	r0, [r4, r3]
 394:.\Generated_Source\PSoC4/W5100.c **** 	for(index=0;index<4;++index) {
 899              		.loc 1 394 0
 900 0014 0134     		add	r4, r4, #1
 901              	.LVL113:
 902 0016 042C     		cmp	r4, #4
 903 0018 F5D1     		bne	.L61
 398:.\Generated_Source\PSoC4/W5100.c **** }
 904              		.loc 1 398 0
 905 001a 0198     		ldr	r0, [sp, #4]
 906              		@ sp needed for prologue
 907              	.LVL114:
 908 001c 16BD     		pop	{r1, r2, r4, pc}
 909              		.cfi_endproc
 910              	.LFE106:
 911              		.size	W5100_W51_GetIP.constprop.7, .-W5100_W51_GetIP.constprop.7
 912              		.section	.text.W5100_SocketSend,"ax",%progbits
 913              		.align	1
 914              		.code	16
 915              		.thumb_func
 916              		.type	W5100_SocketSend, %function
 917              	W5100_SocketSend:
 918              	.LFB88:
1067:.\Generated_Source\PSoC4/W5100.c **** #endif
1068:.\Generated_Source\PSoC4/W5100.c **** /* ======================================================================== */
1069:.\Generated_Source\PSoC4/W5100.c **** /* Driver Initialization */
1070:.\Generated_Source\PSoC4/W5100.c **** #if (1)
1071:.\Generated_Source\PSoC4/W5100.c **** /* ------------------------------------------------------------------------ */
1072:.\Generated_Source\PSoC4/W5100.c **** void
1073:.\Generated_Source\PSoC4/W5100.c **** W5100_Init(uint8* mac, uint32 ip, uint32 subnet, uint32 gateway)
1074:.\Generated_Source\PSoC4/W5100.c **** {
1075:.\Generated_Source\PSoC4/W5100.c **** 	/*
1076:.\Generated_Source\PSoC4/W5100.c **** 	 * Initialize the device and the address configuration, then
1077:.\Generated_Source\PSoC4/W5100.c **** 	 * execute socket memory initialization for the local allocation
1078:.\Generated_Source\PSoC4/W5100.c **** 	 * table.
1079:.\Generated_Source\PSoC4/W5100.c **** 	 */
1080:.\Generated_Source\PSoC4/W5100.c **** 	int index;
1081:.\Generated_Source\PSoC4/W5100.c **** 	
1082:.\Generated_Source\PSoC4/W5100.c **** 	CyDelay( 250 ); /* Fixed Boot Delay or chip inintialization will fail */
1083:.\Generated_Source\PSoC4/W5100.c **** 	
1084:.\Generated_Source\PSoC4/W5100.c **** 	/* Reset the device */
1085:.\Generated_Source\PSoC4/W5100.c **** 	W5100_SetMode(0x80); /* Send Reset Command */
1086:.\Generated_Source\PSoC4/W5100.c **** 	/* Wait for the chip initialization delay */
1087:.\Generated_Source\PSoC4/W5100.c **** 	CyDelay( 10 );
1088:.\Generated_Source\PSoC4/W5100.c **** 	
1089:.\Generated_Source\PSoC4/W5100.c **** 	/* Close all of the socket, and clear the memory to make them available. */
1090:.\Generated_Source\PSoC4/W5100.c **** 	for(index=0;index<4;++index) {
ARM GAS  C:\Users\CHUCK~1.ERH\AppData\Local\Temp\cc506n3q.s 			page 38


1091:.\Generated_Source\PSoC4/W5100.c **** 		W5100_SocketClose( index );
1092:.\Generated_Source\PSoC4/W5100.c **** 	}
1093:.\Generated_Source\PSoC4/W5100.c **** 	/* Write the default configruation for memory size to the device */
1094:.\Generated_Source\PSoC4/W5100.c **** 	W5100_SetTxMemSize(0x55); /* 2K each */
1095:.\Generated_Source\PSoC4/W5100.c **** 	W5100_SetRxMemSize(0x55); /* 2K Each */
1096:.\Generated_Source\PSoC4/W5100.c **** 	/* Set device gateway address */
1097:.\Generated_Source\PSoC4/W5100.c **** 	W5100_SetGatewayAddress(gateway);
1098:.\Generated_Source\PSoC4/W5100.c **** 	W5100_SetSubnetMask( subnet );
1099:.\Generated_Source\PSoC4/W5100.c **** 	/* Store the subnet mask for later use, for ERRATA fix */
1100:.\Generated_Source\PSoC4/W5100.c **** 	W5100_SubnetMask = subnet;
1101:.\Generated_Source\PSoC4/W5100.c **** 	/* store the device mac */
1102:.\Generated_Source\PSoC4/W5100.c **** 	W5100_SetSourceMAC( mac );
1103:.\Generated_Source\PSoC4/W5100.c **** 	/* store the IP address */
1104:.\Generated_Source\PSoC4/W5100.c **** 	W5100_SetSourceIP( ip );
1105:.\Generated_Source\PSoC4/W5100.c **** 	/* clear pending interrupts */
1106:.\Generated_Source\PSoC4/W5100.c **** 	W5100_SetIR(0xFF);
1107:.\Generated_Source\PSoC4/W5100.c **** 	/* clear the subnet mask register (W5100 Errata Fix) */
1108:.\Generated_Source\PSoC4/W5100.c **** 	W5100_SetSubnetMask( 0 );
1109:.\Generated_Source\PSoC4/W5100.c **** }
1110:.\Generated_Source\PSoC4/W5100.c **** /* ------------------------------------------------------------------------ */
1111:.\Generated_Source\PSoC4/W5100.c **** void
1112:.\Generated_Source\PSoC4/W5100.c **** W5100_Start( void )
1113:.\Generated_Source\PSoC4/W5100.c **** {
1114:.\Generated_Source\PSoC4/W5100.c **** 	uint32 ip;
1115:.\Generated_Source\PSoC4/W5100.c **** 	uint32 gateway;
1116:.\Generated_Source\PSoC4/W5100.c **** 	uint32 sub;
1117:.\Generated_Source\PSoC4/W5100.c **** 	
1118:.\Generated_Source\PSoC4/W5100.c **** 	/* Check for SPI initialization */
1119:.\Generated_Source\PSoC4/W5100.c **** 	if (SPI_initVar == 0) {
1120:.\Generated_Source\PSoC4/W5100.c **** 		/*
1121:.\Generated_Source\PSoC4/W5100.c **** 		 * the hardware has not yet been initialized.  Before anything can be
1122:.\Generated_Source\PSoC4/W5100.c **** 		 * initialized within the driver, the external hardware must be started
1123:.\Generated_Source\PSoC4/W5100.c **** 		 */
1124:.\Generated_Source\PSoC4/W5100.c **** 		SPI_Start();
1125:.\Generated_Source\PSoC4/W5100.c **** 	}
1126:.\Generated_Source\PSoC4/W5100.c **** 		
1127:.\Generated_Source\PSoC4/W5100.c **** 	/* wait for power on PLL Lock */
1128:.\Generated_Source\PSoC4/W5100.c **** 	CyDelay( 10 );
1129:.\Generated_Source\PSoC4/W5100.c **** 	/* V1.2 new -- Parse MAC Address string */
1130:.\Generated_Source\PSoC4/W5100.c **** 	if ( W5100_ParseMAC("00-DE-AD-BE-EF-00", &W5100_MAC[0]) == CYRET_BAD_DATA) {
1131:.\Generated_Source\PSoC4/W5100.c **** 		W5100_MAC[0] = 0;
1132:.\Generated_Source\PSoC4/W5100.c **** 		W5100_MAC[1] = 0xDE;
1133:.\Generated_Source\PSoC4/W5100.c **** 		W5100_MAC[2] = 0xAD;
1134:.\Generated_Source\PSoC4/W5100.c **** 		W5100_MAC[3] = 0xC0;
1135:.\Generated_Source\PSoC4/W5100.c **** 		W5100_MAC[4] = 0xDE;
1136:.\Generated_Source\PSoC4/W5100.c **** 		W5100_MAC[5] = 0;
1137:.\Generated_Source\PSoC4/W5100.c **** 	}
1138:.\Generated_Source\PSoC4/W5100.c **** 	/* END of V1.2 Update ------ */
1139:.\Generated_Source\PSoC4/W5100.c **** 	ip = W5100_ParseIP("192.168.1.101");
1140:.\Generated_Source\PSoC4/W5100.c **** 	sub = W5100_ParseIP("255.255.255.0");
1141:.\Generated_Source\PSoC4/W5100.c **** 	gateway = W5100_ParseIP("192.168.1.1");
1142:.\Generated_Source\PSoC4/W5100.c **** 	/* Initialize the device with the default data */
1143:.\Generated_Source\PSoC4/W5100.c **** 	W5100_Init( &W5100_MAC[0], ip, sub, gateway  );
1144:.\Generated_Source\PSoC4/W5100.c **** }
1145:.\Generated_Source\PSoC4/W5100.c **** /* ------------------------------------------------------------------------ */
1146:.\Generated_Source\PSoC4/W5100.c **** uint32
1147:.\Generated_Source\PSoC4/W5100.c **** W5100_ParseIP( const char* ipString )
ARM GAS  C:\Users\CHUCK~1.ERH\AppData\Local\Temp\cc506n3q.s 			page 39


1148:.\Generated_Source\PSoC4/W5100.c **** {
1149:.\Generated_Source\PSoC4/W5100.c **** 	/*
1150:.\Generated_Source\PSoC4/W5100.c **** 	 * Parse a human readable string in to a IP address usable by the hardare
1151:.\Generated_Source\PSoC4/W5100.c **** 	 */
1152:.\Generated_Source\PSoC4/W5100.c **** 	int index;
1153:.\Generated_Source\PSoC4/W5100.c **** 	char digit[5];
1154:.\Generated_Source\PSoC4/W5100.c **** 	uint8 ip[4];
1155:.\Generated_Source\PSoC4/W5100.c **** 	int counter;
1156:.\Generated_Source\PSoC4/W5100.c **** 	int dindex;
1157:.\Generated_Source\PSoC4/W5100.c **** 	
1158:.\Generated_Source\PSoC4/W5100.c **** 	index = 0;
1159:.\Generated_Source\PSoC4/W5100.c **** 	dindex = 0;
1160:.\Generated_Source\PSoC4/W5100.c **** 	counter = 0;
1161:.\Generated_Source\PSoC4/W5100.c **** 	
1162:.\Generated_Source\PSoC4/W5100.c **** 	while ( (counter < 4) && ((unsigned int)index < strlen(ipString) ) ) {
1163:.\Generated_Source\PSoC4/W5100.c **** 		if ( (ipString[index] >= '0' ) && (ipString[index] <= '9') ) {
1164:.\Generated_Source\PSoC4/W5100.c **** 			if (dindex > 3) return( 0xFFFFFFFF );
1165:.\Generated_Source\PSoC4/W5100.c **** 			digit[dindex++] = ipString[index];
1166:.\Generated_Source\PSoC4/W5100.c **** 			
1167:.\Generated_Source\PSoC4/W5100.c **** 		}
1168:.\Generated_Source\PSoC4/W5100.c **** 		
1169:.\Generated_Source\PSoC4/W5100.c **** 		if ( (ipString[index] == '.') || (ipString[index+1] == 0) ) {
1170:.\Generated_Source\PSoC4/W5100.c **** 			digit[dindex] = 0;
1171:.\Generated_Source\PSoC4/W5100.c **** 			dindex = 0;
1172:.\Generated_Source\PSoC4/W5100.c **** 			/* convert the value and store in the buffer */
1173:.\Generated_Source\PSoC4/W5100.c **** 			ip[counter] = 0;
1174:.\Generated_Source\PSoC4/W5100.c **** 			while (digit[dindex] != 0) {
1175:.\Generated_Source\PSoC4/W5100.c **** 				ip[counter] = (ip[counter]*10) + (digit[dindex]-'0');
1176:.\Generated_Source\PSoC4/W5100.c **** 				++dindex;
1177:.\Generated_Source\PSoC4/W5100.c **** 				// ip[counter] = ...
1178:.\Generated_Source\PSoC4/W5100.c **** 			}
1179:.\Generated_Source\PSoC4/W5100.c **** 			/* reset the digit index to start accumulating digits again*/
1180:.\Generated_Source\PSoC4/W5100.c **** 			dindex = 0;
1181:.\Generated_Source\PSoC4/W5100.c **** 			/* move to the next address byte */
1182:.\Generated_Source\PSoC4/W5100.c **** 			++counter;
1183:.\Generated_Source\PSoC4/W5100.c **** 		}
1184:.\Generated_Source\PSoC4/W5100.c **** 		++index;
1185:.\Generated_Source\PSoC4/W5100.c **** 	}
1186:.\Generated_Source\PSoC4/W5100.c **** 	
1187:.\Generated_Source\PSoC4/W5100.c **** 	if (counter != 4) {
1188:.\Generated_Source\PSoC4/W5100.c **** 		return( 0xFFFFFFFF );
1189:.\Generated_Source\PSoC4/W5100.c **** 	}
1190:.\Generated_Source\PSoC4/W5100.c **** 	else {
1191:.\Generated_Source\PSoC4/W5100.c **** 		return( W5100_IPADDRESS(ip[0], ip[1], ip[2], ip[3]) );
1192:.\Generated_Source\PSoC4/W5100.c **** 	}
1193:.\Generated_Source\PSoC4/W5100.c **** }
1194:.\Generated_Source\PSoC4/W5100.c **** /* ------------------------------------------------------------------------ */
1195:.\Generated_Source\PSoC4/W5100.c **** /**
1196:.\Generated_Source\PSoC4/W5100.c ****  * /brief Parse a MAC Address string in to a 6-byte mac address
1197:.\Generated_Source\PSoC4/W5100.c ****  * /param *macString Pointer to the ASCII-Z String containing the MAC address
1198:.\Generated_Source\PSoC4/W5100.c ****  * /param *mac Pointer to the 6-byte array to hold the output mac addres
1199:.\Generated_Source\PSoC4/W5100.c ****  */
1200:.\Generated_Source\PSoC4/W5100.c **** cystatus W5100_ParseMAC(const char *macString, uint8 *mac)
1201:.\Generated_Source\PSoC4/W5100.c **** {
1202:.\Generated_Source\PSoC4/W5100.c **** 	/* 
1203:.\Generated_Source\PSoC4/W5100.c **** 	 * a mac address is specified as a string of 6 hex bytes with
1204:.\Generated_Source\PSoC4/W5100.c **** 	 * dashes ('-') seperating the bytes.  An invalidly formed
ARM GAS  C:\Users\CHUCK~1.ERH\AppData\Local\Temp\cc506n3q.s 			page 40


1205:.\Generated_Source\PSoC4/W5100.c **** 	 * address will only process the values up the error and return BAD_DATA
1206:.\Generated_Source\PSoC4/W5100.c **** 	 * otherwise, SUCESS is returned.
1207:.\Generated_Source\PSoC4/W5100.c **** 	 */
1208:.\Generated_Source\PSoC4/W5100.c **** 	int digit;
1209:.\Generated_Source\PSoC4/W5100.c **** 	int index;
1210:.\Generated_Source\PSoC4/W5100.c **** 	cystatus result;
1211:.\Generated_Source\PSoC4/W5100.c **** 	
1212:.\Generated_Source\PSoC4/W5100.c **** 	result = CYRET_SUCCESS;
1213:.\Generated_Source\PSoC4/W5100.c **** 	index = 0;
1214:.\Generated_Source\PSoC4/W5100.c **** 	for(digit = 0;(digit<6) && (result == CYRET_SUCCESS)&&(macString[index] != 0);++digit) {
1215:.\Generated_Source\PSoC4/W5100.c **** 		// process the first nibble
1216:.\Generated_Source\PSoC4/W5100.c **** 		if (W5100_ISXDIGIT(macString[index]) ) {
1217:.\Generated_Source\PSoC4/W5100.c **** 			mac[digit] = W5100_HEX2BIN(macString[index++]);
1218:.\Generated_Source\PSoC4/W5100.c **** 			mac[digit] <<= 4;
1219:.\Generated_Source\PSoC4/W5100.c **** 			if (W5100_ISXDIGIT(macString[index])) {
1220:.\Generated_Source\PSoC4/W5100.c **** 				mac[digit] += W5100_HEX2BIN(macString[index++]);
1221:.\Generated_Source\PSoC4/W5100.c **** 				/*
1222:.\Generated_Source\PSoC4/W5100.c **** 				 * now for digits other than digit 5 (the last one) look for
1223:.\Generated_Source\PSoC4/W5100.c **** 				 * the dash seperator.  If there is no dash, return bad data
1224:.\Generated_Source\PSoC4/W5100.c **** 				 */
1225:.\Generated_Source\PSoC4/W5100.c **** 				if (digit<5) {
1226:.\Generated_Source\PSoC4/W5100.c **** 					if (macString[index]!='-') {
1227:.\Generated_Source\PSoC4/W5100.c **** 						result = CYRET_BAD_DATA;
1228:.\Generated_Source\PSoC4/W5100.c **** 					}
1229:.\Generated_Source\PSoC4/W5100.c **** 					++index; // move conversion pointer to the next value
1230:.\Generated_Source\PSoC4/W5100.c **** 				}
1231:.\Generated_Source\PSoC4/W5100.c **** 			}
1232:.\Generated_Source\PSoC4/W5100.c **** 			else {
1233:.\Generated_Source\PSoC4/W5100.c **** 				result = CYRET_BAD_DATA;
1234:.\Generated_Source\PSoC4/W5100.c **** 			}
1235:.\Generated_Source\PSoC4/W5100.c **** 		}
1236:.\Generated_Source\PSoC4/W5100.c **** 		else {
1237:.\Generated_Source\PSoC4/W5100.c **** 			result = CYRET_BAD_DATA;
1238:.\Generated_Source\PSoC4/W5100.c **** 		}
1239:.\Generated_Source\PSoC4/W5100.c **** 	}
1240:.\Generated_Source\PSoC4/W5100.c **** 	return( result );
1241:.\Generated_Source\PSoC4/W5100.c **** }
1242:.\Generated_Source\PSoC4/W5100.c **** /* ------------------------------------------------------------------------ */
1243:.\Generated_Source\PSoC4/W5100.c **** void W5100_StringMAC(char *macString)
1244:.\Generated_Source\PSoC4/W5100.c **** {
1245:.\Generated_Source\PSoC4/W5100.c **** 	uint8 mac[6];
1246:.\Generated_Source\PSoC4/W5100.c **** 	int digit;
1247:.\Generated_Source\PSoC4/W5100.c **** 	int index;
1248:.\Generated_Source\PSoC4/W5100.c **** 	
1249:.\Generated_Source\PSoC4/W5100.c **** 	/*
1250:.\Generated_Source\PSoC4/W5100.c **** 	 * first read the MAC address from the chip
1251:.\Generated_Source\PSoC4/W5100.c **** 	 * and inintialize some locals so that the
1252:.\Generated_Source\PSoC4/W5100.c **** 	 * string formater will function properly
1253:.\Generated_Source\PSoC4/W5100.c **** 	 */
1254:.\Generated_Source\PSoC4/W5100.c **** 	W5100_GetSourceMAC( &mac[0] );
1255:.\Generated_Source\PSoC4/W5100.c **** 	index = 0;
1256:.\Generated_Source\PSoC4/W5100.c **** 	for(digit=0;digit<6;++digit) {
1257:.\Generated_Source\PSoC4/W5100.c **** 		// convert the first nibble
1258:.\Generated_Source\PSoC4/W5100.c **** 		macString[index++] = W5100_BIN2HEX(((mac[digit]>>4)&0x0F));
1259:.\Generated_Source\PSoC4/W5100.c **** 		macString[index++] = W5100_BIN2HEX((mac[digit]&0x0F));
1260:.\Generated_Source\PSoC4/W5100.c **** 		if (digit<5) {
1261:.\Generated_Source\PSoC4/W5100.c **** 			macString[index++] = '-';
ARM GAS  C:\Users\CHUCK~1.ERH\AppData\Local\Temp\cc506n3q.s 			page 41


1262:.\Generated_Source\PSoC4/W5100.c **** 		}
1263:.\Generated_Source\PSoC4/W5100.c **** 		else {
1264:.\Generated_Source\PSoC4/W5100.c **** 			macString[index] = 0;
1265:.\Generated_Source\PSoC4/W5100.c **** 		}
1266:.\Generated_Source\PSoC4/W5100.c **** 	}
1267:.\Generated_Source\PSoC4/W5100.c **** }
1268:.\Generated_Source\PSoC4/W5100.c **** /* ------------------------------------------------------------------------ */
1269:.\Generated_Source\PSoC4/W5100.c **** void W5100_StringIP( char *ipString )
1270:.\Generated_Source\PSoC4/W5100.c **** {
1271:.\Generated_Source\PSoC4/W5100.c **** 	uint32 ip;
1272:.\Generated_Source\PSoC4/W5100.c **** 	uint8 *ipBytes;
1273:.\Generated_Source\PSoC4/W5100.c **** 	int index;
1274:.\Generated_Source\PSoC4/W5100.c **** 	int digit;
1275:.\Generated_Source\PSoC4/W5100.c **** 	int work, temp;
1276:.\Generated_Source\PSoC4/W5100.c **** 	
1277:.\Generated_Source\PSoC4/W5100.c **** 	ip = W5100_GetSourceIP();
1278:.\Generated_Source\PSoC4/W5100.c **** 	ipBytes = (uint8*)&ip;
1279:.\Generated_Source\PSoC4/W5100.c **** 	index = 0;
1280:.\Generated_Source\PSoC4/W5100.c **** 	for(digit=0;digit<4;++digit) {
1281:.\Generated_Source\PSoC4/W5100.c **** 		work = ipBytes[digit];
1282:.\Generated_Source\PSoC4/W5100.c **** 		if (work >= 100) {
1283:.\Generated_Source\PSoC4/W5100.c **** 			temp = work/100;
1284:.\Generated_Source\PSoC4/W5100.c **** 			work -= (temp*100);
1285:.\Generated_Source\PSoC4/W5100.c **** 			ipString[index++] = '0' + temp;
1286:.\Generated_Source\PSoC4/W5100.c **** 		}
1287:.\Generated_Source\PSoC4/W5100.c **** 		if (work >= 10) {
1288:.\Generated_Source\PSoC4/W5100.c **** 			temp = work /10;
1289:.\Generated_Source\PSoC4/W5100.c **** 			work -= (temp*10);
1290:.\Generated_Source\PSoC4/W5100.c **** 			ipString[index++] = '0'+temp;
1291:.\Generated_Source\PSoC4/W5100.c **** 		}
1292:.\Generated_Source\PSoC4/W5100.c **** 		ipString[index++] = '0'+work;
1293:.\Generated_Source\PSoC4/W5100.c **** 		if (digit <3) {
1294:.\Generated_Source\PSoC4/W5100.c **** 			ipString[index++] = '.';
1295:.\Generated_Source\PSoC4/W5100.c **** 		}
1296:.\Generated_Source\PSoC4/W5100.c **** 		else {
1297:.\Generated_Source\PSoC4/W5100.c **** 			ipString[index] = 0;
1298:.\Generated_Source\PSoC4/W5100.c **** 		}
1299:.\Generated_Source\PSoC4/W5100.c **** 	}
1300:.\Generated_Source\PSoC4/W5100.c **** }
1301:.\Generated_Source\PSoC4/W5100.c **** 
1302:.\Generated_Source\PSoC4/W5100.c **** /* ------------------------------------------------------------------------ */
1303:.\Generated_Source\PSoC4/W5100.c **** uint8
1304:.\Generated_Source\PSoC4/W5100.c **** W5100_SetIP( uint32 ip )
1305:.\Generated_Source\PSoC4/W5100.c **** {
1306:.\Generated_Source\PSoC4/W5100.c **** 	uint8 ok = 0;
1307:.\Generated_Source\PSoC4/W5100.c **** 	
1308:.\Generated_Source\PSoC4/W5100.c **** 	if ( ( ip != 0) && (ip != 0xFFFFFFFF) ) {
1309:.\Generated_Source\PSoC4/W5100.c **** 		W5100_SetSourceIP( ip );
1310:.\Generated_Source\PSoC4/W5100.c **** 		ok = 0xFF;
1311:.\Generated_Source\PSoC4/W5100.c **** 	}
1312:.\Generated_Source\PSoC4/W5100.c **** 	
1313:.\Generated_Source\PSoC4/W5100.c **** 	return ok;
1314:.\Generated_Source\PSoC4/W5100.c **** }
1315:.\Generated_Source\PSoC4/W5100.c **** /* ------------------------------------------------------------------------ */
1316:.\Generated_Source\PSoC4/W5100.c **** uint32
1317:.\Generated_Source\PSoC4/W5100.c **** W5100_GetIP( void )
1318:.\Generated_Source\PSoC4/W5100.c **** {
ARM GAS  C:\Users\CHUCK~1.ERH\AppData\Local\Temp\cc506n3q.s 			page 42


1319:.\Generated_Source\PSoC4/W5100.c **** 	return W5100_GetSourceIP();
1320:.\Generated_Source\PSoC4/W5100.c **** }
1321:.\Generated_Source\PSoC4/W5100.c **** /* ------------------------------------------------------------------------ */
1322:.\Generated_Source\PSoC4/W5100.c **** void
1323:.\Generated_Source\PSoC4/W5100.c **** W5100_SetMAC( uint8* mac )
1324:.\Generated_Source\PSoC4/W5100.c **** {
1325:.\Generated_Source\PSoC4/W5100.c **** 	W5100_SetSourceMAC( mac );
1326:.\Generated_Source\PSoC4/W5100.c **** }
1327:.\Generated_Source\PSoC4/W5100.c **** /* ------------------------------------------------------------------------ */
1328:.\Generated_Source\PSoC4/W5100.c **** void
1329:.\Generated_Source\PSoC4/W5100.c **** W5100_GetMAC( uint8* mac )
1330:.\Generated_Source\PSoC4/W5100.c **** {
1331:.\Generated_Source\PSoC4/W5100.c **** 	W5100_GetSourceMAC( mac );
1332:.\Generated_Source\PSoC4/W5100.c **** }
1333:.\Generated_Source\PSoC4/W5100.c **** #endif
1334:.\Generated_Source\PSoC4/W5100.c **** /* ======================================================================== */
1335:.\Generated_Source\PSoC4/W5100.c **** /* Socket Controls */
1336:.\Generated_Source\PSoC4/W5100.c **** #if (1)
1337:.\Generated_Source\PSoC4/W5100.c **** /* ------------------------------------------------------------------------ */
1338:.\Generated_Source\PSoC4/W5100.c **** uint8
1339:.\Generated_Source\PSoC4/W5100.c **** W5100_SocketOpen( uint8 Protocol, uint16 port, uint8 flags )
1340:.\Generated_Source\PSoC4/W5100.c **** {
1341:.\Generated_Source\PSoC4/W5100.c **** 	uint8 socket;
1342:.\Generated_Source\PSoC4/W5100.c **** 	int index;
1343:.\Generated_Source\PSoC4/W5100.c **** 	
1344:.\Generated_Source\PSoC4/W5100.c **** 	/*
1345:.\Generated_Source\PSoC4/W5100.c **** 	 * This function will look for the first available socket for allocation
1346:.\Generated_Source\PSoC4/W5100.c **** 	 * using the defined protocol.  The socket configuration will then be
1347:.\Generated_Source\PSoC4/W5100.c **** 	 * initialized and saved in the allocation table. If the requested socket
1348:.\Generated_Source\PSoC4/W5100.c **** 	 * can not be initialized, 0xFF is returned
1349:.\Generated_Source\PSoC4/W5100.c **** 	 */
1350:.\Generated_Source\PSoC4/W5100.c **** 	socket = 0xFF;
1351:.\Generated_Source\PSoC4/W5100.c **** 	/* find the first available socket to open, and how much memory is available */
1352:.\Generated_Source\PSoC4/W5100.c **** 	for( index = 0;index<4;++index) {
1353:.\Generated_Source\PSoC4/W5100.c **** 		if ( (socket == 0xFF) && (W5100_SocketConfig[index].Protocol == 0) ) {
1354:.\Generated_Source\PSoC4/W5100.c **** 			/*
1355:.\Generated_Source\PSoC4/W5100.c **** 			 * Since the W5100 does not support MAC mode commucications, check to see
1356:.\Generated_Source\PSoC4/W5100.c **** 			 * if the socket that is free was socket 0.  If the mac protocol was
1357:.\Generated_Source\PSoC4/W5100.c **** 			 * selected, ignore socket 0
1358:.\Generated_Source\PSoC4/W5100.c **** 			 */
1359:.\Generated_Source\PSoC4/W5100.c **** 			if ( (Protocol != W5100_PROTO_MAC) || (index != 0) ) {
1360:.\Generated_Source\PSoC4/W5100.c **** 				/* store this socket number for allocation */
1361:.\Generated_Source\PSoC4/W5100.c **** 				socket = index;
1362:.\Generated_Source\PSoC4/W5100.c **** 			}
1363:.\Generated_Source\PSoC4/W5100.c **** 		}
1364:.\Generated_Source\PSoC4/W5100.c **** 	}
1365:.\Generated_Source\PSoC4/W5100.c **** 	if (socket != 0xFF ) {
1366:.\Generated_Source\PSoC4/W5100.c **** 		/* Store the socket information in the allocation table */
1367:.\Generated_Source\PSoC4/W5100.c **** 		W5100_SocketConfig[socket].Protocol = Protocol;
1368:.\Generated_Source\PSoC4/W5100.c **** 		W5100_SocketConfig[socket].SocketFlags = flags;
1369:.\Generated_Source\PSoC4/W5100.c **** 		W5100_SocketConfig[socket].SourcePort = port;
1370:.\Generated_Source\PSoC4/W5100.c **** 		W5100_SocketConfig[socket].ServerFlag = 0;
1371:.\Generated_Source\PSoC4/W5100.c **** 		/* Send the socket open with the correct protocol information */
1372:.\Generated_Source\PSoC4/W5100.c **** 		W5100_SetSocketSourcePort( socket, port );
1373:.\Generated_Source\PSoC4/W5100.c **** 		W5100_SetSocketMode( socket, Protocol | flags );
1374:.\Generated_Source\PSoC4/W5100.c **** 		W5100_ExecuteSocketCommand( socket, 1 );
1375:.\Generated_Source\PSoC4/W5100.c **** 	}
ARM GAS  C:\Users\CHUCK~1.ERH\AppData\Local\Temp\cc506n3q.s 			page 43


1376:.\Generated_Source\PSoC4/W5100.c **** 	return socket;
1377:.\Generated_Source\PSoC4/W5100.c **** }
1378:.\Generated_Source\PSoC4/W5100.c **** /* ------------------------------------------------------------------------ */
1379:.\Generated_Source\PSoC4/W5100.c **** void
1380:.\Generated_Source\PSoC4/W5100.c **** W5100_SocketClose( uint8 socket )
1381:.\Generated_Source\PSoC4/W5100.c **** {
1382:.\Generated_Source\PSoC4/W5100.c **** 	/*
1383:.\Generated_Source\PSoC4/W5100.c **** 	 * Set the socket allocation to empty, and issue the close command
1384:.\Generated_Source\PSoC4/W5100.c **** 	 * to the socket
1385:.\Generated_Source\PSoC4/W5100.c **** 	 */
1386:.\Generated_Source\PSoC4/W5100.c **** 	if (socket < 4) {
1387:.\Generated_Source\PSoC4/W5100.c **** 		/* clear the socket memory allocations */
1388:.\Generated_Source\PSoC4/W5100.c **** 		W5100_SocketConfig[socket].Protocol = 0;
1389:.\Generated_Source\PSoC4/W5100.c **** 		W5100_SocketConfig[socket].SocketFlags = 0;
1390:.\Generated_Source\PSoC4/W5100.c **** 		/* close the socket */
1391:.\Generated_Source\PSoC4/W5100.c **** 		W5100_ExecuteSocketCommand( socket, 0x10 );
1392:.\Generated_Source\PSoC4/W5100.c **** 		/* Clear pending Interrupts */
1393:.\Generated_Source\PSoC4/W5100.c **** 		W5100_SetSocketIR( socket, 0xFF);
1394:.\Generated_Source\PSoC4/W5100.c **** 	}
1395:.\Generated_Source\PSoC4/W5100.c **** }
1396:.\Generated_Source\PSoC4/W5100.c **** /* ------------------------------------------------------------------------ */
1397:.\Generated_Source\PSoC4/W5100.c **** uint8
1398:.\Generated_Source\PSoC4/W5100.c **** W5100_SocketProcessConnections( uint8 socket )
1399:.\Generated_Source\PSoC4/W5100.c **** {
1400:.\Generated_Source\PSoC4/W5100.c **** 	uint8 status;
1401:.\Generated_Source\PSoC4/W5100.c **** 	
1402:.\Generated_Source\PSoC4/W5100.c **** 	status = W5100_GetSocketStatus(socket);
1403:.\Generated_Source\PSoC4/W5100.c **** 	/* has a connection termination been requested by remote system */
1404:.\Generated_Source\PSoC4/W5100.c **** 	if (status == 0x1C) {
1405:.\Generated_Source\PSoC4/W5100.c **** 		/* Close the socket on this end */
1406:.\Generated_Source\PSoC4/W5100.c **** 		W5100_SocketClose(socket);
1407:.\Generated_Source\PSoC4/W5100.c **** 	}
1408:.\Generated_Source\PSoC4/W5100.c **** 	return (W5100_GetSocketStatus(socket) == 0x00);
1409:.\Generated_Source\PSoC4/W5100.c **** }
1410:.\Generated_Source\PSoC4/W5100.c **** /* ------------------------------------------------------------------------ */
1411:.\Generated_Source\PSoC4/W5100.c **** uint8
1412:.\Generated_Source\PSoC4/W5100.c **** W5100_SocketEstablished( uint8 socket )
1413:.\Generated_Source\PSoC4/W5100.c **** {
1414:.\Generated_Source\PSoC4/W5100.c **** 	return (W5100_GetSocketStatus( socket ) == 0x17);
1415:.\Generated_Source\PSoC4/W5100.c **** }
1416:.\Generated_Source\PSoC4/W5100.c **** /* ------------------------------------------------------------------------ */
1417:.\Generated_Source\PSoC4/W5100.c **** /**
1418:.\Generated_Source\PSoC4/W5100.c ****  * \brief Transmit a SEND operation over a socket
1419:.\Generated_Source\PSoC4/W5100.c ****  * \param socket the socket to which the send command will be sent
1420:.\Generated_Source\PSoC4/W5100.c ****  */
1421:.\Generated_Source\PSoC4/W5100.c **** static void
1422:.\Generated_Source\PSoC4/W5100.c **** W5100_SocketSend(uint8 socket )
1423:.\Generated_Source\PSoC4/W5100.c **** {
 919              		.loc 1 1423 0
 920              		.cfi_startproc
 921              	.LVL115:
 922              	.LBB66:
 923              	.LBB67:
 491:.\Generated_Source\PSoC4/W5100.c **** static void W5100_SetSubnetMask( uint32 ip ) { W5100_W51_SetIP(5, ip); }
 924              		.loc 1 491 0
 925 0000 104B     		ldr	r3, .L68
 926              	.LBE67:
ARM GAS  C:\Users\CHUCK~1.ERH\AppData\Local\Temp\cc506n3q.s 			page 44


 927              	.LBE66:
 928              		.loc 1 1423 0
 929 0002 10B5     		push	{r4, lr}
 930              	.LCFI13:
 931              		.cfi_def_cfa_offset 8
 932              		.cfi_offset 4, -8
 933              		.cfi_offset 14, -4
 934              	.LBB70:
 935              	.LBB68:
 491:.\Generated_Source\PSoC4/W5100.c **** static void W5100_SetSubnetMask( uint32 ip ) { W5100_W51_SetIP(5, ip); }
 936              		.loc 1 491 0
 937 0004 1968     		ldr	r1, [r3]
 938              	.LBE68:
 939              	.LBE70:
 940              		.loc 1 1423 0
 941 0006 041C     		mov	r4, r0
 942              	.LBB71:
 943              	.LBB69:
 491:.\Generated_Source\PSoC4/W5100.c **** static void W5100_SetSubnetMask( uint32 ip ) { W5100_W51_SetIP(5, ip); }
 944              		.loc 1 491 0
 945 0008 0520     		mov	r0, #5
 946              	.LVL116:
 947 000a FFF7FEFF 		bl	W5100_W51_SetIP
 948              	.LVL117:
 949              	.LBE69:
 950              	.LBE71:
1424:.\Generated_Source\PSoC4/W5100.c **** 	uint8 ir;
1425:.\Generated_Source\PSoC4/W5100.c **** 	
1426:.\Generated_Source\PSoC4/W5100.c **** 	/* initialize the subnet mask register : ERRATA FIX */
1427:.\Generated_Source\PSoC4/W5100.c **** 	W5100_SetSubnetMask( W5100_SubnetMask );
1428:.\Generated_Source\PSoC4/W5100.c **** 	/* Issue the SEND command */
1429:.\Generated_Source\PSoC4/W5100.c **** 	W5100_ExecuteSocketCommand( socket, 0x20 );
 951              		.loc 1 1429 0
 952 000e 201C     		mov	r0, r4
 953 0010 2021     		mov	r1, #32
 954 0012 FFF7FEFF 		bl	W5100_ExecuteSocketCommand
 955              	.LVL118:
 956              	.LBB72:
 957              	.LBB73:
 676:.\Generated_Source\PSoC4/W5100.c **** { return W5100_W51_Read(W5100_SOCKET_BASE(socket)+2); }
 958              		.loc 1 676 0
 959 0016 0C49     		ldr	r1, .L68+4
 960 0018 2002     		lsl	r0, r4, #8
 961 001a 4218     		add	r2, r0, r1
 962 001c 94B2     		uxth	r4, r2
 963              	.LVL119:
 964              	.L66:
 965              	.LBE73:
 966              	.LBE72:
 967              	.LBB74:
 968              	.LBB75:
 969 001e 201C     		mov	r0, r4
 970 0020 FFF7FEFF 		bl	W5100_W51_Read
 971              	.LVL120:
 972              	.LBE75:
 973              	.LBE74:
1430:.\Generated_Source\PSoC4/W5100.c **** 	/* wait for the SEND to complete, or for a timeout */
ARM GAS  C:\Users\CHUCK~1.ERH\AppData\Local\Temp\cc506n3q.s 			page 45


1431:.\Generated_Source\PSoC4/W5100.c **** 	ir = W5100_GetSocketIR( socket );
1432:.\Generated_Source\PSoC4/W5100.c **** 	/* while SEND is not done, and the socket hasnot timed out or been dsconnected */
1433:.\Generated_Source\PSoC4/W5100.c **** 	while ( ((ir & 0x10) == 0) && (!(ir&0x0A)) ) {
 974              		.loc 1 1433 0
 975 0024 1A23     		mov	r3, #26
 976 0026 1842     		tst	r0, r3
 977 0028 03D1     		bne	.L67
 978              	.L65:
1434:.\Generated_Source\PSoC4/W5100.c **** 		CyDelay(1);
 979              		.loc 1 1434 0
 980 002a 0120     		mov	r0, #1
 981              	.LVL121:
 982 002c FFF7FEFF 		bl	CyDelay
 983              	.LVL122:
 984 0030 F5E7     		b	.L66
 985              	.LVL123:
 986              	.L67:
 987              	.LBB76:
 988              	.LBB77:
 668:.\Generated_Source\PSoC4/W5100.c **** { W5100_W51_Write(W5100_SOCKET_BASE(socket)+2,ir); }
 989              		.loc 1 668 0
 990 0032 201C     		mov	r0, r4
 991              	.LVL124:
 992 0034 1021     		mov	r1, #16
 993 0036 FFF7FEFF 		bl	W5100_W51_Write
 994              	.LVL125:
 995              	.LBE77:
 996              	.LBE76:
 997              	.LBB78:
 998              	.LBB79:
 491:.\Generated_Source\PSoC4/W5100.c **** static void W5100_SetSubnetMask( uint32 ip ) { W5100_W51_SetIP(5, ip); }
 999              		.loc 1 491 0
 1000 003a 0520     		mov	r0, #5
 1001 003c 0021     		mov	r1, #0
 1002 003e FFF7FEFF 		bl	W5100_W51_SetIP
 1003              	.LVL126:
 1004              	.LBE79:
 1005              	.LBE78:
1435:.\Generated_Source\PSoC4/W5100.c **** 		ir = W5100_GetSocketIR( socket );
1436:.\Generated_Source\PSoC4/W5100.c **** 		
1437:.\Generated_Source\PSoC4/W5100.c **** 	}
1438:.\Generated_Source\PSoC4/W5100.c **** 	/* clear the SEND_OK flag from the register */
1439:.\Generated_Source\PSoC4/W5100.c **** 	W5100_SetSocketIR( socket, 0x10 );
1440:.\Generated_Source\PSoC4/W5100.c **** 	/* reset the subnet mask : ERRATA FIX */
1441:.\Generated_Source\PSoC4/W5100.c **** 	W5100_SetSubnetMask( 0 );
1442:.\Generated_Source\PSoC4/W5100.c **** }
 1006              		.loc 1 1442 0
 1007              		@ sp needed for prologue
 1008 0042 10BD     		pop	{r4, pc}
 1009              	.L69:
 1010              		.align	2
 1011              	.L68:
 1012 0044 00000000 		.word	.LANCHOR0
 1013 0048 02040000 		.word	1026
 1014              		.cfi_endproc
 1015              	.LFE88:
 1016              		.size	W5100_SocketSend, .-W5100_SocketSend
ARM GAS  C:\Users\CHUCK~1.ERH\AppData\Local\Temp\cc506n3q.s 			page 46


 1017              		.section	.text.W5100_ParseIP,"ax",%progbits
 1018              		.align	1
 1019              		.global	W5100_ParseIP
 1020              		.code	16
 1021              		.thumb_func
 1022              		.type	W5100_ParseIP, %function
 1023              	W5100_ParseIP:
 1024              	.LFB76:
1148:.\Generated_Source\PSoC4/W5100.c **** {
 1025              		.loc 1 1148 0
 1026              		.cfi_startproc
 1027              	.LVL127:
 1028 0000 F0B5     		push	{r4, r5, r6, r7, lr}
 1029              	.LCFI14:
 1030              		.cfi_def_cfa_offset 20
 1031              		.cfi_offset 4, -20
 1032              		.cfi_offset 5, -16
 1033              		.cfi_offset 6, -12
 1034              		.cfi_offset 7, -8
 1035              		.cfi_offset 14, -4
1159:.\Generated_Source\PSoC4/W5100.c **** 	dindex = 0;
 1036              		.loc 1 1159 0
 1037 0002 0024     		mov	r4, #0
1148:.\Generated_Source\PSoC4/W5100.c **** {
 1038              		.loc 1 1148 0
 1039 0004 87B0     		sub	sp, sp, #28
 1040              	.LCFI15:
 1041              		.cfi_def_cfa_offset 48
1148:.\Generated_Source\PSoC4/W5100.c **** {
 1042              		.loc 1 1148 0
 1043 0006 071C     		mov	r7, r0
1160:.\Generated_Source\PSoC4/W5100.c **** 	counter = 0;
 1044              		.loc 1 1160 0
 1045 0008 251C     		mov	r5, r4
1158:.\Generated_Source\PSoC4/W5100.c **** 	index = 0;
 1046              		.loc 1 1158 0
 1047 000a 261C     		mov	r6, r4
 1048              	.LVL128:
 1049              	.L71:
1162:.\Generated_Source\PSoC4/W5100.c **** 	while ( (counter < 4) && ((unsigned int)index < strlen(ipString) ) ) {
 1050              		.loc 1 1162 0 discriminator 2
 1051 000c 381C     		mov	r0, r7
 1052 000e FFF7FEFF 		bl	strlen
 1053              	.LVL129:
 1054 0012 8642     		cmp	r6, r0
 1055 0014 06D2     		bcs	.L82
 1056              	.L81:
1163:.\Generated_Source\PSoC4/W5100.c **** 		if ( (ipString[index] >= '0' ) && (ipString[index] <= '9') ) {
 1057              		.loc 1 1163 0
 1058 0016 BB5D     		ldrb	r3, [r7, r6]
 1059 0018 1A1C     		mov	r2, r3
 1060 001a 303A     		sub	r2, r2, #48
 1061 001c 092A     		cmp	r2, #9
 1062 001e 08D8     		bhi	.L72
1164:.\Generated_Source\PSoC4/W5100.c **** 			if (dindex > 3) return( 0xFFFFFFFF );
 1063              		.loc 1 1164 0
 1064 0020 032C     		cmp	r4, #3
ARM GAS  C:\Users\CHUCK~1.ERH\AppData\Local\Temp\cc506n3q.s 			page 47


 1065 0022 02DD     		ble	.L73
 1066              	.L82:
 1067 0024 0123     		mov	r3, #1
 1068 0026 5842     		neg	r0, r3
 1069 0028 2CE0     		b	.L74
 1070              	.L73:
1165:.\Generated_Source\PSoC4/W5100.c **** 			digit[dindex++] = ipString[index];
 1071              		.loc 1 1165 0
 1072 002a 04A8     		add	r0, sp, #16
 1073 002c 0355     		strb	r3, [r0, r4]
 1074 002e 0134     		add	r4, r4, #1
 1075              	.LVL130:
 1076 0030 01E0     		b	.L75
 1077              	.LVL131:
 1078              	.L72:
1169:.\Generated_Source\PSoC4/W5100.c **** 		if ( (ipString[index] == '.') || (ipString[index+1] == 0) ) {
 1079              		.loc 1 1169 0
 1080 0032 2E2B     		cmp	r3, #46
 1081 0034 03D0     		beq	.L76
 1082              	.L75:
1147:.\Generated_Source\PSoC4/W5100.c **** W5100_ParseIP( const char* ipString )
 1083              		.loc 1 1147 0 discriminator 1
 1084 0036 B919     		add	r1, r7, r6
1169:.\Generated_Source\PSoC4/W5100.c **** 		if ( (ipString[index] == '.') || (ipString[index+1] == 0) ) {
 1085              		.loc 1 1169 0 discriminator 1
 1086 0038 4B78     		ldrb	r3, [r1, #1]
 1087 003a 002B     		cmp	r3, #0
 1088 003c 12D1     		bne	.L77
 1089              	.L76:
1170:.\Generated_Source\PSoC4/W5100.c **** 			digit[dindex] = 0;
 1090              		.loc 1 1170 0
 1091 003e 0023     		mov	r3, #0
 1092 0040 04AA     		add	r2, sp, #16
 1093 0042 1355     		strb	r3, [r2, r4]
 1094              	.LVL132:
1173:.\Generated_Source\PSoC4/W5100.c **** 			ip[counter] = 0;
 1095              		.loc 1 1173 0
 1096 0044 03AC     		add	r4, sp, #12
 1097 0046 6355     		strb	r3, [r4, r5]
 1098              	.LVL133:
 1099              	.L78:
1174:.\Generated_Source\PSoC4/W5100.c **** 			while (digit[dindex] != 0) {
 1100              		.loc 1 1174 0 discriminator 1
 1101 0048 04A8     		add	r0, sp, #16
 1102 004a C45C     		ldrb	r4, [r0, r3]
 1103 004c 002C     		cmp	r4, #0
 1104 004e 08D0     		beq	.L86
 1105              	.L79:
1175:.\Generated_Source\PSoC4/W5100.c **** 				ip[counter] = (ip[counter]*10) + (digit[dindex]-'0');
 1106              		.loc 1 1175 0
 1107 0050 03A9     		add	r1, sp, #12
 1108 0052 4A5D     		ldrb	r2, [r1, r5]
 1109 0054 0A20     		mov	r0, #10
 1110 0056 5043     		mul	r0, r2
 1111 0058 3038     		sub	r0, r0, #48
 1112 005a 2418     		add	r4, r4, r0
 1113 005c 4C55     		strb	r4, [r1, r5]
ARM GAS  C:\Users\CHUCK~1.ERH\AppData\Local\Temp\cc506n3q.s 			page 48


1176:.\Generated_Source\PSoC4/W5100.c **** 				++dindex;
 1114              		.loc 1 1176 0
 1115 005e 0133     		add	r3, r3, #1
 1116              	.LVL134:
 1117 0060 F2E7     		b	.L78
 1118              	.L86:
 1119              	.LVL135:
1182:.\Generated_Source\PSoC4/W5100.c **** 			++counter;
 1120              		.loc 1 1182 0
 1121 0062 0135     		add	r5, r5, #1
 1122              	.LVL136:
 1123              	.L77:
1184:.\Generated_Source\PSoC4/W5100.c **** 		++index;
 1124              		.loc 1 1184 0
 1125 0064 0136     		add	r6, r6, #1
 1126              	.LVL137:
1162:.\Generated_Source\PSoC4/W5100.c **** 	while ( (counter < 4) && ((unsigned int)index < strlen(ipString) ) ) {
 1127              		.loc 1 1162 0
 1128 0066 032D     		cmp	r5, #3
 1129 0068 D0DD     		ble	.L71
 1130              	.L80:
1187:.\Generated_Source\PSoC4/W5100.c **** 	if (counter != 4) {
 1131              		.loc 1 1187 0
 1132 006a 042D     		cmp	r5, #4
 1133 006c DAD1     		bne	.L82
1191:.\Generated_Source\PSoC4/W5100.c **** 		return( W5100_IPADDRESS(ip[0], ip[1], ip[2], ip[3]) );
 1134              		.loc 1 1191 0
 1135 006e 03AD     		add	r5, sp, #12
 1136              	.LVL138:
 1137 0070 EE78     		ldrb	r6, [r5, #3]
 1138              	.LVL139:
 1139 0072 2978     		ldrb	r1, [r5]
 1140 0074 6A78     		ldrb	r2, [r5, #1]
 1141 0076 3706     		lsl	r7, r6, #24
 1142              	.LVL140:
 1143 0078 AD78     		ldrb	r5, [r5, #2]
 1144 007a 1002     		lsl	r0, r2, #8
 1145 007c 7B18     		add	r3, r7, r1
 1146 007e 1C18     		add	r4, r3, r0
 1147              	.LVL141:
 1148 0080 2E04     		lsl	r6, r5, #16
 1149 0082 A019     		add	r0, r4, r6
 1150              	.L74:
1193:.\Generated_Source\PSoC4/W5100.c **** }
 1151              		.loc 1 1193 0
 1152 0084 07B0     		add	sp, sp, #28
 1153              		@ sp needed for prologue
 1154 0086 F0BD     		pop	{r4, r5, r6, r7, pc}
 1155              		.cfi_endproc
 1156              	.LFE76:
 1157              		.size	W5100_ParseIP, .-W5100_ParseIP
 1158              		.section	.text.W5100_ParseMAC,"ax",%progbits
 1159              		.align	1
 1160              		.global	W5100_ParseMAC
 1161              		.code	16
 1162              		.thumb_func
 1163              		.type	W5100_ParseMAC, %function
ARM GAS  C:\Users\CHUCK~1.ERH\AppData\Local\Temp\cc506n3q.s 			page 49


 1164              	W5100_ParseMAC:
 1165              	.LFB77:
1201:.\Generated_Source\PSoC4/W5100.c **** {
 1166              		.loc 1 1201 0
 1167              		.cfi_startproc
 1168              	.LVL142:
 1169 0000 F7B5     		push	{r0, r1, r2, r4, r5, r6, r7, lr}
 1170              	.LCFI16:
 1171              		.cfi_def_cfa_offset 32
 1172              		.cfi_offset 0, -32
 1173              		.cfi_offset 1, -28
 1174              		.cfi_offset 2, -24
 1175              		.cfi_offset 4, -20
 1176              		.cfi_offset 5, -16
 1177              		.cfi_offset 6, -12
 1178              		.cfi_offset 7, -8
 1179              		.cfi_offset 14, -4
1213:.\Generated_Source\PSoC4/W5100.c **** 	index = 0;
 1180              		.loc 1 1213 0
 1181 0002 0022     		mov	r2, #0
1201:.\Generated_Source\PSoC4/W5100.c **** {
 1182              		.loc 1 1201 0
 1183 0004 031C     		mov	r3, r0
1214:.\Generated_Source\PSoC4/W5100.c **** 	for(digit = 0;(digit<6) && (result == CYRET_SUCCESS)&&(macString[index] != 0);++digit) {
 1184              		.loc 1 1214 0
 1185 0006 141C     		mov	r4, r2
 1186              	.LVL143:
 1187              	.L88:
1214:.\Generated_Source\PSoC4/W5100.c **** 	for(digit = 0;(digit<6) && (result == CYRET_SUCCESS)&&(macString[index] != 0);++digit) {
 1188              		.loc 1 1214 0 is_stmt 0 discriminator 1
 1189 0008 985C     		ldrb	r0, [r3, r2]
 1190 000a 0028     		cmp	r0, #0
 1191 000c 7ED0     		beq	.L99
 1192              	.L100:
1216:.\Generated_Source\PSoC4/W5100.c **** 		if (W5100_ISXDIGIT(macString[index]) ) {
 1193              		.loc 1 1216 0 is_stmt 1
 1194 000e 051C     		mov	r5, r0
 1195 0010 661C     		add	r6, r4, #1
 1196 0012 303D     		sub	r5, r5, #48
 1197 0014 0196     		str	r6, [sp, #4]
 1198 0016 092D     		cmp	r5, #9
 1199 0018 05D9     		bls	.L89
1216:.\Generated_Source\PSoC4/W5100.c **** 		if (W5100_ISXDIGIT(macString[index]) ) {
 1200              		.loc 1 1216 0 is_stmt 0 discriminator 1
 1201 001a 313D     		sub	r5, r5, #49
 1202 001c 052D     		cmp	r5, #5
 1203 001e 02D9     		bls	.L89
 1204 0020 2035     		add	r5, r5, #32
 1205 0022 052D     		cmp	r5, #5
 1206 0024 68D8     		bhi	.L104
 1207              	.L89:
1217:.\Generated_Source\PSoC4/W5100.c **** 			mac[digit] = W5100_HEX2BIN(macString[index++]);
 1208              		.loc 1 1217 0 is_stmt 1
 1209 0026 571C     		add	r7, r2, #1
 1210              	.LVL144:
 1211 0028 2F28     		cmp	r0, #47
 1212 002a 08D9     		bls	.L91
ARM GAS  C:\Users\CHUCK~1.ERH\AppData\Local\Temp\cc506n3q.s 			page 50


1217:.\Generated_Source\PSoC4/W5100.c **** 			mac[digit] = W5100_HEX2BIN(macString[index++]);
 1213              		.loc 1 1217 0 is_stmt 0 discriminator 1
 1214 002c D85D     		ldrb	r0, [r3, r7]
 1215 002e 971C     		add	r7, r2, #2
 1216              	.LVL145:
 1217 0030 3928     		cmp	r0, #57
 1218 0032 04D8     		bhi	.L91
 1219 0034 D85D     		ldrb	r0, [r3, r7]
 1220 0036 0332     		add	r2, r2, #3
 1221              	.LVL146:
 1222 0038 3038     		sub	r0, r0, #48
 1223 003a C6B2     		uxtb	r6, r0
 1224 003c 19E0     		b	.L92
 1225              	.LVL147:
 1226              	.L91:
1217:.\Generated_Source\PSoC4/W5100.c **** 			mac[digit] = W5100_HEX2BIN(macString[index++]);
 1227              		.loc 1 1217 0 discriminator 2
 1228 003e DA5D     		ldrb	r2, [r3, r7]
 1229 0040 781C     		add	r0, r7, #1
 1230              	.LVL148:
 1231 0042 602A     		cmp	r2, #96
 1232 0044 08D9     		bls	.L93
1217:.\Generated_Source\PSoC4/W5100.c **** 			mac[digit] = W5100_HEX2BIN(macString[index++]);
 1233              		.loc 1 1217 0 discriminator 4
 1234 0046 1D5C     		ldrb	r5, [r3, r0]
 1235 0048 B81C     		add	r0, r7, #2
 1236              	.LVL149:
 1237 004a 662D     		cmp	r5, #102
 1238 004c 04D8     		bhi	.L93
1217:.\Generated_Source\PSoC4/W5100.c **** 			mac[digit] = W5100_HEX2BIN(macString[index++]);
 1239              		.loc 1 1217 0 discriminator 2
 1240 004e 1A5C     		ldrb	r2, [r3, r0]
 1241 0050 573A     		sub	r2, r2, #87
 1242 0052 D6B2     		uxtb	r6, r2
 1243 0054 FA1C     		add	r2, r7, #3
 1244              	.LVL150:
 1245 0056 0CE0     		b	.L92
 1246              	.LVL151:
 1247              	.L93:
1217:.\Generated_Source\PSoC4/W5100.c **** 			mac[digit] = W5100_HEX2BIN(macString[index++]);
 1248              		.loc 1 1217 0 discriminator 5
 1249 0058 1F5C     		ldrb	r7, [r3, r0]
 1250 005a 421C     		add	r2, r0, #1
 1251              	.LVL152:
 1252 005c 0026     		mov	r6, #0
 1253 005e 402F     		cmp	r7, #64
 1254 0060 07D9     		bls	.L92
1217:.\Generated_Source\PSoC4/W5100.c **** 			mac[digit] = W5100_HEX2BIN(macString[index++]);
 1255              		.loc 1 1217 0 discriminator 7
 1256 0062 9D5C     		ldrb	r5, [r3, r2]
 1257 0064 821C     		add	r2, r0, #2
 1258              	.LVL153:
 1259 0066 462D     		cmp	r5, #70
 1260 0068 03D8     		bhi	.L92
1217:.\Generated_Source\PSoC4/W5100.c **** 			mac[digit] = W5100_HEX2BIN(macString[index++]);
 1261              		.loc 1 1217 0 discriminator 3
 1262 006a 9E5C     		ldrb	r6, [r3, r2]
ARM GAS  C:\Users\CHUCK~1.ERH\AppData\Local\Temp\cc506n3q.s 			page 51


 1263 006c C21C     		add	r2, r0, #3
 1264              	.LVL154:
 1265 006e 373E     		sub	r6, r6, #55
 1266 0070 F6B2     		uxtb	r6, r6
 1267              	.L92:
1218:.\Generated_Source\PSoC4/W5100.c **** 			mac[digit] <<= 4;
 1268              		.loc 1 1218 0 is_stmt 1 discriminator 3
 1269 0072 3701     		lsl	r7, r6, #4
 1270 0074 FEB2     		uxtb	r6, r7
 1271 0076 0E55     		strb	r6, [r1, r4]
1219:.\Generated_Source\PSoC4/W5100.c **** 			if (W5100_ISXDIGIT(macString[index])) {
 1272              		.loc 1 1219 0 discriminator 3
 1273 0078 985C     		ldrb	r0, [r3, r2]
 1274 007a 051C     		mov	r5, r0
 1275 007c 303D     		sub	r5, r5, #48
 1276 007e 092D     		cmp	r5, #9
 1277 0080 05D9     		bls	.L94
1219:.\Generated_Source\PSoC4/W5100.c **** 			if (W5100_ISXDIGIT(macString[index])) {
 1278              		.loc 1 1219 0 is_stmt 0 discriminator 1
 1279 0082 313D     		sub	r5, r5, #49
 1280 0084 052D     		cmp	r5, #5
 1281 0086 02D9     		bls	.L94
 1282 0088 2035     		add	r5, r5, #32
 1283 008a 052D     		cmp	r5, #5
 1284 008c 34D8     		bhi	.L104
 1285              	.L94:
1220:.\Generated_Source\PSoC4/W5100.c **** 				mac[digit] += W5100_HEX2BIN(macString[index++]);
 1286              		.loc 1 1220 0 is_stmt 1
 1287 008e 571C     		add	r7, r2, #1
 1288              	.LVL155:
 1289 0090 2F28     		cmp	r0, #47
 1290 0092 08D9     		bls	.L95
1220:.\Generated_Source\PSoC4/W5100.c **** 				mac[digit] += W5100_HEX2BIN(macString[index++]);
 1291              		.loc 1 1220 0 is_stmt 0 discriminator 1
 1292 0094 D85D     		ldrb	r0, [r3, r7]
 1293 0096 971C     		add	r7, r2, #2
 1294              	.LVL156:
 1295 0098 3928     		cmp	r0, #57
 1296 009a 04D8     		bhi	.L95
 1297 009c DF5D     		ldrb	r7, [r3, r7]
 1298              	.LVL157:
 1299 009e 0332     		add	r2, r2, #3
 1300              	.LVL158:
 1301 00a0 303F     		sub	r7, r7, #48
 1302 00a2 FDB2     		uxtb	r5, r7
 1303              	.LVL159:
 1304 00a4 1BE0     		b	.L96
 1305              	.LVL160:
 1306              	.L95:
1220:.\Generated_Source\PSoC4/W5100.c **** 				mac[digit] += W5100_HEX2BIN(macString[index++]);
 1307              		.loc 1 1220 0 discriminator 2
 1308 00a6 DA5D     		ldrb	r2, [r3, r7]
 1309 00a8 781C     		add	r0, r7, #1
 1310              	.LVL161:
 1311 00aa 602A     		cmp	r2, #96
 1312 00ac 08D9     		bls	.L97
1220:.\Generated_Source\PSoC4/W5100.c **** 				mac[digit] += W5100_HEX2BIN(macString[index++]);
ARM GAS  C:\Users\CHUCK~1.ERH\AppData\Local\Temp\cc506n3q.s 			page 52


 1313              		.loc 1 1220 0 discriminator 4
 1314 00ae 1D5C     		ldrb	r5, [r3, r0]
 1315 00b0 B81C     		add	r0, r7, #2
 1316              	.LVL162:
 1317 00b2 662D     		cmp	r5, #102
 1318 00b4 04D8     		bhi	.L97
1220:.\Generated_Source\PSoC4/W5100.c **** 				mac[digit] += W5100_HEX2BIN(macString[index++]);
 1319              		.loc 1 1220 0 discriminator 2
 1320 00b6 185C     		ldrb	r0, [r3, r0]
 1321              	.LVL163:
 1322 00b8 FA1C     		add	r2, r7, #3
 1323              	.LVL164:
 1324 00ba 5738     		sub	r0, r0, #87
 1325 00bc C5B2     		uxtb	r5, r0
 1326 00be 0EE0     		b	.L96
 1327              	.LVL165:
 1328              	.L97:
1220:.\Generated_Source\PSoC4/W5100.c **** 				mac[digit] += W5100_HEX2BIN(macString[index++]);
 1329              		.loc 1 1220 0 discriminator 5
 1330 00c0 1F5C     		ldrb	r7, [r3, r0]
 1331 00c2 421C     		add	r2, r0, #1
 1332              	.LVL166:
 1333 00c4 0025     		mov	r5, #0
 1334 00c6 402F     		cmp	r7, #64
 1335 00c8 09D9     		bls	.L96
1220:.\Generated_Source\PSoC4/W5100.c **** 				mac[digit] += W5100_HEX2BIN(macString[index++]);
 1336              		.loc 1 1220 0 discriminator 7
 1337 00ca 9A5C     		ldrb	r2, [r3, r2]
 1338 00cc 9446     		mov	ip, r2
 1339 00ce 6746     		mov	r7, ip
 1340 00d0 821C     		add	r2, r0, #2
 1341 00d2 462F     		cmp	r7, #70
 1342 00d4 03D8     		bhi	.L96
1220:.\Generated_Source\PSoC4/W5100.c **** 				mac[digit] += W5100_HEX2BIN(macString[index++]);
 1343              		.loc 1 1220 0 discriminator 3
 1344 00d6 9D5C     		ldrb	r5, [r3, r2]
 1345 00d8 C21C     		add	r2, r0, #3
 1346 00da 373D     		sub	r5, r5, #55
 1347 00dc EDB2     		uxtb	r5, r5
 1348              	.L96:
 1349 00de AE19     		add	r6, r5, r6
 1350 00e0 0E55     		strb	r6, [r1, r4]
1225:.\Generated_Source\PSoC4/W5100.c **** 				if (digit<5) {
 1351              		.loc 1 1225 0 is_stmt 1 discriminator 3
 1352 00e2 052C     		cmp	r4, #5
 1353 00e4 0AD0     		beq	.L107
1226:.\Generated_Source\PSoC4/W5100.c **** 					if (macString[index]!='-') {
 1354              		.loc 1 1226 0
 1355 00e6 9D5C     		ldrb	r5, [r3, r2]
1229:.\Generated_Source\PSoC4/W5100.c **** 					++index; // move conversion pointer to the next value
 1356              		.loc 1 1229 0
 1357 00e8 0132     		add	r2, r2, #1
1226:.\Generated_Source\PSoC4/W5100.c **** 					if (macString[index]!='-') {
 1358              		.loc 1 1226 0
 1359 00ea 2D3D     		sub	r5, r5, #45
 1360 00ec 6C1E     		sub	r4, r5, #1
 1361 00ee A541     		sbc	r5, r5, r4
ARM GAS  C:\Users\CHUCK~1.ERH\AppData\Local\Temp\cc506n3q.s 			page 53


 1362 00f0 6842     		neg	r0, r5
 1363 00f2 0624     		mov	r4, #6
 1364 00f4 2040     		and	r0, r4
 1365              	.LVL167:
 1366 00f6 03E0     		b	.L90
 1367              	.LVL168:
 1368              	.L104:
1233:.\Generated_Source\PSoC4/W5100.c **** 				result = CYRET_BAD_DATA;
 1369              		.loc 1 1233 0
 1370 00f8 0620     		mov	r0, #6
 1371 00fa 01E0     		b	.L90
 1372              	.L107:
1225:.\Generated_Source\PSoC4/W5100.c **** 				if (digit<5) {
 1373              		.loc 1 1225 0
 1374 00fc 0020     		mov	r0, #0
 1375 00fe 05E0     		b	.L99
 1376              	.L90:
 1377              	.LVL169:
1214:.\Generated_Source\PSoC4/W5100.c **** 	for(digit = 0;(digit<6) && (result == CYRET_SUCCESS)&&(macString[index] != 0);++digit) {
 1378              		.loc 1 1214 0
 1379 0100 019C     		ldr	r4, [sp, #4]
 1380              	.LVL170:
 1381 0102 062C     		cmp	r4, #6
 1382 0104 02D0     		beq	.L99
1214:.\Generated_Source\PSoC4/W5100.c **** 	for(digit = 0;(digit<6) && (result == CYRET_SUCCESS)&&(macString[index] != 0);++digit) {
 1383              		.loc 1 1214 0 is_stmt 0 discriminator 2
 1384 0106 0028     		cmp	r0, #0
 1385 0108 00D1     		bne	.LCB1345
 1386 010a 7DE7     		b	.L88	@long jump
 1387              	.LCB1345:
 1388              	.LVL171:
 1389              	.L99:
1241:.\Generated_Source\PSoC4/W5100.c **** }
 1390              		.loc 1 1241 0 is_stmt 1
 1391              		@ sp needed for prologue
 1392 010c FEBD     		pop	{r1, r2, r3, r4, r5, r6, r7, pc}
 1393              		.cfi_endproc
 1394              	.LFE77:
 1395              		.size	W5100_ParseMAC, .-W5100_ParseMAC
 1396              		.section	.text.W5100_StringMAC,"ax",%progbits
 1397              		.align	1
 1398              		.global	W5100_StringMAC
 1399              		.code	16
 1400              		.thumb_func
 1401              		.type	W5100_StringMAC, %function
 1402              	W5100_StringMAC:
 1403              	.LFB78:
1244:.\Generated_Source\PSoC4/W5100.c **** {
 1404              		.loc 1 1244 0
 1405              		.cfi_startproc
 1406              	.LVL172:
 1407 0000 73B5     		push	{r0, r1, r4, r5, r6, lr}
 1408              	.LCFI17:
 1409              		.cfi_def_cfa_offset 24
 1410              		.cfi_offset 0, -24
 1411              		.cfi_offset 1, -20
 1412              		.cfi_offset 4, -16
ARM GAS  C:\Users\CHUCK~1.ERH\AppData\Local\Temp\cc506n3q.s 			page 54


 1413              		.cfi_offset 5, -12
 1414              		.cfi_offset 6, -8
 1415              		.cfi_offset 14, -4
 1416              	.LVL173:
1244:.\Generated_Source\PSoC4/W5100.c **** {
 1417              		.loc 1 1244 0
 1418 0002 051C     		mov	r5, r0
 360:.\Generated_Source\PSoC4/W5100.c **** 	for(index=0;index<6;++index) {
 1419              		.loc 1 360 0
 1420 0004 0024     		mov	r4, #0
 1421              	.LVL174:
 1422              	.L113:
 1423              	.LBB84:
 1424              	.LBB85:
 1425              	.LBB86:
1243:.\Generated_Source\PSoC4/W5100.c **** void W5100_StringMAC(char *macString)
 1426              		.loc 1 1243 0
 1427 0006 201C     		mov	r0, r4
 1428 0008 0930     		add	r0, r0, #9
 361:.\Generated_Source\PSoC4/W5100.c **** 		mac[index] = W5100_W51_Read(addr+index);
 1429              		.loc 1 361 0
 1430 000a 80B2     		uxth	r0, r0
 1431 000c FFF7FEFF 		bl	W5100_W51_Read
 1432              	.LVL175:
 1433 0010 6B46     		mov	r3, sp
 1434              	.LVL176:
 1435 0012 E054     		strb	r0, [r4, r3]
 360:.\Generated_Source\PSoC4/W5100.c **** 	for(index=0;index<6;++index) {
 1436              		.loc 1 360 0
 1437 0014 0134     		add	r4, r4, #1
 1438              	.LVL177:
 1439 0016 062C     		cmp	r4, #6
 1440 0018 F5D1     		bne	.L113
 1441 001a 0023     		mov	r3, #0
 1442              	.LVL178:
 1443 001c 1A1C     		mov	r2, r3
 1444              	.LVL179:
 1445              	.L120:
 1446              	.LBE86:
 1447              	.LBE85:
 1448              	.LBE84:
1258:.\Generated_Source\PSoC4/W5100.c **** 		macString[index++] = W5100_BIN2HEX(((mac[digit]>>4)&0x0F));
 1449              		.loc 1 1258 0
 1450 001e 6946     		mov	r1, sp
 1451              	.LVL180:
 1452 0020 895C     		ldrb	r1, [r1, r2]
 1453              	.LVL181:
 1454 0022 EE18     		add	r6, r5, r3
 1455 0024 0809     		lsr	r0, r1, #4
 1456 0026 041C     		mov	r4, r0
 1457 0028 3034     		add	r4, r4, #48
 1458 002a 0928     		cmp	r0, #9
 1459 002c 00DD     		ble	.L115
1258:.\Generated_Source\PSoC4/W5100.c **** 		macString[index++] = W5100_BIN2HEX(((mac[digit]>>4)&0x0F));
 1460              		.loc 1 1258 0 is_stmt 0 discriminator 1
 1461 002e 0734     		add	r4, r4, #7
 1462              	.L115:
ARM GAS  C:\Users\CHUCK~1.ERH\AppData\Local\Temp\cc506n3q.s 			page 55


1259:.\Generated_Source\PSoC4/W5100.c **** 		macString[index++] = W5100_BIN2HEX((mac[digit]&0x0F));
 1463              		.loc 1 1259 0 is_stmt 1 discriminator 3
 1464 0030 0F20     		mov	r0, #15
1258:.\Generated_Source\PSoC4/W5100.c **** 		macString[index++] = W5100_BIN2HEX(((mac[digit]>>4)&0x0F));
 1465              		.loc 1 1258 0 discriminator 3
 1466 0032 3470     		strb	r4, [r6]
 1467              	.LVL182:
1259:.\Generated_Source\PSoC4/W5100.c **** 		macString[index++] = W5100_BIN2HEX((mac[digit]&0x0F));
 1468              		.loc 1 1259 0 discriminator 3
 1469 0034 0140     		and	r1, r0
1258:.\Generated_Source\PSoC4/W5100.c **** 		macString[index++] = W5100_BIN2HEX(((mac[digit]>>4)&0x0F));
 1470              		.loc 1 1258 0 discriminator 3
 1471 0036 5E1C     		add	r6, r3, #1
 1472              	.LVL183:
1259:.\Generated_Source\PSoC4/W5100.c **** 		macString[index++] = W5100_BIN2HEX((mac[digit]&0x0F));
 1473              		.loc 1 1259 0 discriminator 3
 1474 0038 AC19     		add	r4, r5, r6
 1475 003a 0E1C     		mov	r6, r1
 1476              	.LVL184:
 1477 003c 3036     		add	r6, r6, #48
 1478 003e 0929     		cmp	r1, #9
 1479 0040 00DD     		ble	.L117
1259:.\Generated_Source\PSoC4/W5100.c **** 		macString[index++] = W5100_BIN2HEX((mac[digit]&0x0F));
 1480              		.loc 1 1259 0 is_stmt 0 discriminator 1
 1481 0042 0736     		add	r6, r6, #7
 1482              	.L117:
1259:.\Generated_Source\PSoC4/W5100.c **** 		macString[index++] = W5100_BIN2HEX((mac[digit]&0x0F));
 1483              		.loc 1 1259 0 discriminator 3
 1484 0044 2670     		strb	r6, [r4]
 1485 0046 991C     		add	r1, r3, #2
 1486              	.LVL185:
 1487 0048 541C     		add	r4, r2, #1
1260:.\Generated_Source\PSoC4/W5100.c **** 		if (digit<5) {
 1488              		.loc 1 1260 0 is_stmt 1 discriminator 3
 1489 004a 052A     		cmp	r2, #5
 1490 004c 06D0     		beq	.L118
1261:.\Generated_Source\PSoC4/W5100.c **** 			macString[index++] = '-';
 1491              		.loc 1 1261 0
 1492 004e 2D20     		mov	r0, #45
 1493 0050 6854     		strb	r0, [r5, r1]
 1494 0052 0333     		add	r3, r3, #3
 1495              	.LVL186:
1256:.\Generated_Source\PSoC4/W5100.c **** 	for(digit=0;digit<6;++digit) {
 1496              		.loc 1 1256 0
 1497 0054 221E     		sub	r2, r4, #0
 1498              	.LVL187:
 1499 0056 062A     		cmp	r2, #6
 1500 0058 E1D1     		bne	.L120
 1501 005a 01E0     		b	.L123
 1502              	.LVL188:
 1503              	.L118:
1264:.\Generated_Source\PSoC4/W5100.c **** 			macString[index] = 0;
 1504              		.loc 1 1264 0
 1505 005c 0022     		mov	r2, #0
 1506 005e 6A54     		strb	r2, [r5, r1]
 1507              	.LVL189:
 1508              	.L123:
ARM GAS  C:\Users\CHUCK~1.ERH\AppData\Local\Temp\cc506n3q.s 			page 56


1267:.\Generated_Source\PSoC4/W5100.c **** }
 1509              		.loc 1 1267 0
 1510              		@ sp needed for prologue
 1511              	.LVL190:
 1512 0060 73BD     		pop	{r0, r1, r4, r5, r6, pc}
 1513              		.cfi_endproc
 1514              	.LFE78:
 1515              		.size	W5100_StringMAC, .-W5100_StringMAC
 1516              		.global	__aeabi_idiv
 1517              		.section	.text.W5100_StringIP,"ax",%progbits
 1518              		.align	1
 1519              		.global	W5100_StringIP
 1520              		.code	16
 1521              		.thumb_func
 1522              		.type	W5100_StringIP, %function
 1523              	W5100_StringIP:
 1524              	.LFB79:
1270:.\Generated_Source\PSoC4/W5100.c **** {
 1525              		.loc 1 1270 0
 1526              		.cfi_startproc
 1527              	.LVL191:
 1528 0000 F7B5     		push	{r0, r1, r2, r4, r5, r6, r7, lr}
 1529              	.LCFI18:
 1530              		.cfi_def_cfa_offset 32
 1531              		.cfi_offset 0, -32
 1532              		.cfi_offset 1, -28
 1533              		.cfi_offset 2, -24
 1534              		.cfi_offset 4, -20
 1535              		.cfi_offset 5, -16
 1536              		.cfi_offset 6, -12
 1537              		.cfi_offset 7, -8
 1538              		.cfi_offset 14, -4
1270:.\Generated_Source\PSoC4/W5100.c **** {
 1539              		.loc 1 1270 0
 1540 0002 071C     		mov	r7, r0
 1541              	.LBB89:
 1542              	.LBB90:
 509:.\Generated_Source\PSoC4/W5100.c **** static uint32 W5100_GetSourceIP( void ) { return W5100_W51_GetIP( 0x0F ); }
 1543              		.loc 1 509 0
 1544 0004 FFF7FEFF 		bl	W5100_W51_GetIP.constprop.7
 1545              	.LVL192:
 1546              	.LBE90:
 1547              	.LBE89:
1280:.\Generated_Source\PSoC4/W5100.c **** 	for(digit=0;digit<4;++digit) {
 1548              		.loc 1 1280 0
 1549 0008 0026     		mov	r6, #0
1277:.\Generated_Source\PSoC4/W5100.c **** 	ip = W5100_GetSourceIP();
 1550              		.loc 1 1277 0
 1551 000a 0190     		str	r0, [sp, #4]
 1552              	.LVL193:
1279:.\Generated_Source\PSoC4/W5100.c **** 	index = 0;
 1553              		.loc 1 1279 0
 1554 000c 341C     		mov	r4, r6
 1555              	.LVL194:
 1556              	.L129:
1281:.\Generated_Source\PSoC4/W5100.c **** 		work = ipBytes[digit];
 1557              		.loc 1 1281 0
ARM GAS  C:\Users\CHUCK~1.ERH\AppData\Local\Temp\cc506n3q.s 			page 57


 1558 000e 01AB     		add	r3, sp, #4
 1559              	.LVL195:
 1560 0010 F55C     		ldrb	r5, [r6, r3]
 1561              	.LVL196:
1282:.\Generated_Source\PSoC4/W5100.c **** 		if (work >= 100) {
 1562              		.loc 1 1282 0
 1563 0012 632D     		cmp	r5, #99
 1564 0014 0ADD     		ble	.L125
1283:.\Generated_Source\PSoC4/W5100.c **** 			temp = work/100;
 1565              		.loc 1 1283 0
 1566 0016 281C     		mov	r0, r5
 1567 0018 6421     		mov	r1, #100
 1568 001a FFF7FEFF 		bl	__aeabi_idiv
 1569              	.LVL197:
1284:.\Generated_Source\PSoC4/W5100.c **** 			work -= (temp*100);
 1570              		.loc 1 1284 0
 1571 001e 6421     		mov	r1, #100
 1572 0020 4A42     		neg	r2, r1
 1573 0022 4243     		mul	r2, r0
1285:.\Generated_Source\PSoC4/W5100.c **** 			ipString[index++] = '0' + temp;
 1574              		.loc 1 1285 0
 1575 0024 3030     		add	r0, r0, #48
 1576              	.LVL198:
 1577 0026 3855     		strb	r0, [r7, r4]
1284:.\Generated_Source\PSoC4/W5100.c **** 			work -= (temp*100);
 1578              		.loc 1 1284 0
 1579 0028 AD18     		add	r5, r5, r2
 1580              	.LVL199:
1285:.\Generated_Source\PSoC4/W5100.c **** 			ipString[index++] = '0' + temp;
 1581              		.loc 1 1285 0
 1582 002a 0134     		add	r4, r4, #1
 1583              	.LVL200:
 1584              	.L125:
1287:.\Generated_Source\PSoC4/W5100.c **** 		if (work >= 10) {
 1585              		.loc 1 1287 0
 1586 002c 092D     		cmp	r5, #9
 1587 002e 0ADD     		ble	.L126
1288:.\Generated_Source\PSoC4/W5100.c **** 			temp = work /10;
 1588              		.loc 1 1288 0
 1589 0030 281C     		mov	r0, r5
 1590 0032 0A21     		mov	r1, #10
 1591 0034 FFF7FEFF 		bl	__aeabi_idiv
 1592              	.LVL201:
1289:.\Generated_Source\PSoC4/W5100.c **** 			work -= (temp*10);
 1593              		.loc 1 1289 0
 1594 0038 0A23     		mov	r3, #10
 1595 003a 5942     		neg	r1, r3
 1596 003c 4143     		mul	r1, r0
1290:.\Generated_Source\PSoC4/W5100.c **** 			ipString[index++] = '0'+temp;
 1597              		.loc 1 1290 0
 1598 003e 3030     		add	r0, r0, #48
 1599              	.LVL202:
 1600 0040 3855     		strb	r0, [r7, r4]
1289:.\Generated_Source\PSoC4/W5100.c **** 			work -= (temp*10);
 1601              		.loc 1 1289 0
 1602 0042 6D18     		add	r5, r5, r1
 1603              	.LVL203:
ARM GAS  C:\Users\CHUCK~1.ERH\AppData\Local\Temp\cc506n3q.s 			page 58


1290:.\Generated_Source\PSoC4/W5100.c **** 			ipString[index++] = '0'+temp;
 1604              		.loc 1 1290 0
 1605 0044 0134     		add	r4, r4, #1
 1606              	.LVL204:
 1607              	.L126:
1292:.\Generated_Source\PSoC4/W5100.c **** 		ipString[index++] = '0'+work;
 1608              		.loc 1 1292 0
 1609 0046 3035     		add	r5, r5, #48
 1610              	.LVL205:
 1611 0048 3D55     		strb	r5, [r7, r4]
 1612 004a 601C     		add	r0, r4, #1
 1613              	.LVL206:
 1614 004c 721C     		add	r2, r6, #1
1293:.\Generated_Source\PSoC4/W5100.c **** 		if (digit <3) {
 1615              		.loc 1 1293 0
 1616 004e 032E     		cmp	r6, #3
 1617 0050 06D0     		beq	.L127
1294:.\Generated_Source\PSoC4/W5100.c **** 			ipString[index++] = '.';
 1618              		.loc 1 1294 0
 1619 0052 2E23     		mov	r3, #46
 1620 0054 3B54     		strb	r3, [r7, r0]
 1621 0056 0234     		add	r4, r4, #2
 1622              	.LVL207:
1280:.\Generated_Source\PSoC4/W5100.c **** 	for(digit=0;digit<4;++digit) {
 1623              		.loc 1 1280 0
 1624 0058 161E     		sub	r6, r2, #0
 1625              	.LVL208:
 1626 005a 042E     		cmp	r6, #4
 1627 005c D7D1     		bne	.L129
 1628 005e 01E0     		b	.L131
 1629              	.LVL209:
 1630              	.L127:
1297:.\Generated_Source\PSoC4/W5100.c **** 			ipString[index] = 0;
 1631              		.loc 1 1297 0
 1632 0060 0026     		mov	r6, #0
 1633 0062 3E54     		strb	r6, [r7, r0]
 1634              	.LVL210:
 1635              	.L131:
1300:.\Generated_Source\PSoC4/W5100.c **** }
 1636              		.loc 1 1300 0
 1637              		@ sp needed for prologue
 1638              	.LVL211:
 1639              	.LVL212:
 1640 0064 F7BD     		pop	{r0, r1, r2, r4, r5, r6, r7, pc}
 1641              		.cfi_endproc
 1642              	.LFE79:
 1643              		.size	W5100_StringIP, .-W5100_StringIP
 1644              		.section	.text.W5100_SetIP,"ax",%progbits
 1645              		.align	1
 1646              		.global	W5100_SetIP
 1647              		.code	16
 1648              		.thumb_func
 1649              		.type	W5100_SetIP, %function
 1650              	W5100_SetIP:
 1651              	.LFB80:
1305:.\Generated_Source\PSoC4/W5100.c **** {
 1652              		.loc 1 1305 0
ARM GAS  C:\Users\CHUCK~1.ERH\AppData\Local\Temp\cc506n3q.s 			page 59


 1653              		.cfi_startproc
 1654              	.LVL213:
 1655 0000 08B5     		push	{r3, lr}
 1656              	.LCFI19:
 1657              		.cfi_def_cfa_offset 8
 1658              		.cfi_offset 3, -8
 1659              		.cfi_offset 14, -4
1308:.\Generated_Source\PSoC4/W5100.c **** 	if ( ( ip != 0) && (ip != 0xFFFFFFFF) ) {
 1660              		.loc 1 1308 0
 1661 0002 431E     		sub	r3, r0, #1
1305:.\Generated_Source\PSoC4/W5100.c **** {
 1662              		.loc 1 1305 0
 1663 0004 011C     		mov	r1, r0
1306:.\Generated_Source\PSoC4/W5100.c **** 	uint8 ok = 0;
 1664              		.loc 1 1306 0
 1665 0006 0020     		mov	r0, #0
 1666              	.LVL214:
1308:.\Generated_Source\PSoC4/W5100.c **** 	if ( ( ip != 0) && (ip != 0xFFFFFFFF) ) {
 1667              		.loc 1 1308 0
 1668 0008 0333     		add	r3, r3, #3
 1669 000a 03D8     		bhi	.L133
 1670              	.LVL215:
 1671              	.LBB93:
 1672              	.LBB94:
 503:.\Generated_Source\PSoC4/W5100.c **** static void W5100_SetSourceIP( uint32 ip ) { W5100_W51_SetIP( 0x0F, ip ); }
 1673              		.loc 1 503 0
 1674 000c 0F20     		mov	r0, #15
 1675 000e FFF7FEFF 		bl	W5100_W51_SetIP
 1676              	.LVL216:
1310:.\Generated_Source\PSoC4/W5100.c **** 		ok = 0xFF;
 1677              		.loc 1 1310 0
 1678 0012 FF20     		mov	r0, #255
 1679              	.LVL217:
 1680              	.L133:
 1681              	.LBE94:
 1682              	.LBE93:
1314:.\Generated_Source\PSoC4/W5100.c **** }
 1683              		.loc 1 1314 0
 1684              		@ sp needed for prologue
 1685 0014 08BD     		pop	{r3, pc}
 1686              		.cfi_endproc
 1687              	.LFE80:
 1688              		.size	W5100_SetIP, .-W5100_SetIP
 1689              		.section	.text.W5100_GetIP,"ax",%progbits
 1690              		.align	1
 1691              		.global	W5100_GetIP
 1692              		.code	16
 1693              		.thumb_func
 1694              		.type	W5100_GetIP, %function
 1695              	W5100_GetIP:
 1696              	.LFB81:
1318:.\Generated_Source\PSoC4/W5100.c **** {
 1697              		.loc 1 1318 0
 1698              		.cfi_startproc
 1699 0000 08B5     		push	{r3, lr}
 1700              	.LCFI20:
 1701              		.cfi_def_cfa_offset 8
ARM GAS  C:\Users\CHUCK~1.ERH\AppData\Local\Temp\cc506n3q.s 			page 60


 1702              		.cfi_offset 3, -8
 1703              		.cfi_offset 14, -4
 1704              	.LBB97:
 1705              	.LBB98:
 509:.\Generated_Source\PSoC4/W5100.c **** static uint32 W5100_GetSourceIP( void ) { return W5100_W51_GetIP( 0x0F ); }
 1706              		.loc 1 509 0
 1707 0002 FFF7FEFF 		bl	W5100_W51_GetIP.constprop.7
 1708              	.LVL218:
 1709              	.LBE98:
 1710              	.LBE97:
1320:.\Generated_Source\PSoC4/W5100.c **** }
 1711              		.loc 1 1320 0
 1712              		@ sp needed for prologue
 1713 0006 08BD     		pop	{r3, pc}
 1714              		.cfi_endproc
 1715              	.LFE81:
 1716              		.size	W5100_GetIP, .-W5100_GetIP
 1717              		.section	.text.W5100_SetMAC,"ax",%progbits
 1718              		.align	1
 1719              		.global	W5100_SetMAC
 1720              		.code	16
 1721              		.thumb_func
 1722              		.type	W5100_SetMAC, %function
 1723              	W5100_SetMAC:
 1724              	.LFB82:
1324:.\Generated_Source\PSoC4/W5100.c **** {
 1725              		.loc 1 1324 0
 1726              		.cfi_startproc
 1727              	.LVL219:
 1728 0000 38B5     		push	{r3, r4, r5, lr}
 1729              	.LCFI21:
 1730              		.cfi_def_cfa_offset 16
 1731              		.cfi_offset 3, -16
 1732              		.cfi_offset 4, -12
 1733              		.cfi_offset 5, -8
 1734              		.cfi_offset 14, -4
1324:.\Generated_Source\PSoC4/W5100.c **** {
 1735              		.loc 1 1324 0
 1736 0002 051C     		mov	r5, r0
 1737              	.LVL220:
 346:.\Generated_Source\PSoC4/W5100.c **** 	for(index = 0;index<6;++index)
 1738              		.loc 1 346 0
 1739 0004 0024     		mov	r4, #0
 1740              	.LVL221:
 1741              	.L137:
 1742              	.LBB103:
 1743              	.LBB104:
 1744              	.LBB105:
1323:.\Generated_Source\PSoC4/W5100.c **** W5100_SetMAC( uint8* mac )
 1745              		.loc 1 1323 0
 1746 0006 201C     		mov	r0, r4
 1747 0008 0930     		add	r0, r0, #9
 348:.\Generated_Source\PSoC4/W5100.c **** 		W5100_W51_Write(addr+index,mac[index]);
 1748              		.loc 1 348 0
 1749 000a 295D     		ldrb	r1, [r5, r4]
 1750 000c 80B2     		uxth	r0, r0
 346:.\Generated_Source\PSoC4/W5100.c **** 	for(index = 0;index<6;++index)
ARM GAS  C:\Users\CHUCK~1.ERH\AppData\Local\Temp\cc506n3q.s 			page 61


 1751              		.loc 1 346 0
 1752 000e 0134     		add	r4, r4, #1
 348:.\Generated_Source\PSoC4/W5100.c **** 		W5100_W51_Write(addr+index,mac[index]);
 1753              		.loc 1 348 0
 1754 0010 FFF7FEFF 		bl	W5100_W51_Write
 1755              	.LVL222:
 346:.\Generated_Source\PSoC4/W5100.c **** 	for(index = 0;index<6;++index)
 1756              		.loc 1 346 0
 1757 0014 062C     		cmp	r4, #6
 1758 0016 F6D1     		bne	.L137
 1759              	.LBE105:
 1760              	.LBE104:
 1761              	.LBE103:
1326:.\Generated_Source\PSoC4/W5100.c **** }
 1762              		.loc 1 1326 0
 1763              		@ sp needed for prologue
 1764              	.LVL223:
 1765              	.LVL224:
 1766 0018 38BD     		pop	{r3, r4, r5, pc}
 1767              		.cfi_endproc
 1768              	.LFE82:
 1769              		.size	W5100_SetMAC, .-W5100_SetMAC
 1770              		.section	.text.W5100_GetMAC,"ax",%progbits
 1771              		.align	1
 1772              		.global	W5100_GetMAC
 1773              		.code	16
 1774              		.thumb_func
 1775              		.type	W5100_GetMAC, %function
 1776              	W5100_GetMAC:
 1777              	.LFB83:
1330:.\Generated_Source\PSoC4/W5100.c **** {
 1778              		.loc 1 1330 0
 1779              		.cfi_startproc
 1780              	.LVL225:
 1781 0000 38B5     		push	{r3, r4, r5, lr}
 1782              	.LCFI22:
 1783              		.cfi_def_cfa_offset 16
 1784              		.cfi_offset 3, -16
 1785              		.cfi_offset 4, -12
 1786              		.cfi_offset 5, -8
 1787              		.cfi_offset 14, -4
1330:.\Generated_Source\PSoC4/W5100.c **** {
 1788              		.loc 1 1330 0
 1789 0002 051C     		mov	r5, r0
 1790              	.LVL226:
 360:.\Generated_Source\PSoC4/W5100.c **** 	for(index=0;index<6;++index) {
 1791              		.loc 1 360 0
 1792 0004 0024     		mov	r4, #0
 1793              	.LVL227:
 1794              	.L140:
 1795              	.LBB110:
 1796              	.LBB111:
 1797              	.LBB112:
1329:.\Generated_Source\PSoC4/W5100.c **** W5100_GetMAC( uint8* mac )
 1798              		.loc 1 1329 0
 1799 0006 201C     		mov	r0, r4
 1800 0008 0930     		add	r0, r0, #9
ARM GAS  C:\Users\CHUCK~1.ERH\AppData\Local\Temp\cc506n3q.s 			page 62


 361:.\Generated_Source\PSoC4/W5100.c **** 		mac[index] = W5100_W51_Read(addr+index);
 1801              		.loc 1 361 0
 1802 000a 80B2     		uxth	r0, r0
 1803 000c FFF7FEFF 		bl	W5100_W51_Read
 1804              	.LVL228:
 1805 0010 2855     		strb	r0, [r5, r4]
 360:.\Generated_Source\PSoC4/W5100.c **** 	for(index=0;index<6;++index) {
 1806              		.loc 1 360 0
 1807 0012 0134     		add	r4, r4, #1
 1808              	.LVL229:
 1809 0014 062C     		cmp	r4, #6
 1810 0016 F6D1     		bne	.L140
 1811              	.LBE112:
 1812              	.LBE111:
 1813              	.LBE110:
1332:.\Generated_Source\PSoC4/W5100.c **** }
 1814              		.loc 1 1332 0
 1815              		@ sp needed for prologue
 1816              	.LVL230:
 1817              	.LVL231:
 1818 0018 38BD     		pop	{r3, r4, r5, pc}
 1819              		.cfi_endproc
 1820              	.LFE83:
 1821              		.size	W5100_GetMAC, .-W5100_GetMAC
 1822              		.section	.text.W5100_SocketOpen,"ax",%progbits
 1823              		.align	1
 1824              		.global	W5100_SocketOpen
 1825              		.code	16
 1826              		.thumb_func
 1827              		.type	W5100_SocketOpen, %function
 1828              	W5100_SocketOpen:
 1829              	.LFB84:
1340:.\Generated_Source\PSoC4/W5100.c **** {
 1830              		.loc 1 1340 0
 1831              		.cfi_startproc
 1832              	.LVL232:
 1833 0000 F8B5     		push	{r3, r4, r5, r6, r7, lr}
 1834              	.LCFI23:
 1835              		.cfi_def_cfa_offset 24
 1836              		.cfi_offset 3, -24
 1837              		.cfi_offset 4, -20
 1838              		.cfi_offset 5, -16
 1839              		.cfi_offset 6, -12
 1840              		.cfi_offset 7, -8
 1841              		.cfi_offset 14, -4
1340:.\Generated_Source\PSoC4/W5100.c **** {
 1842              		.loc 1 1340 0
 1843 0002 051C     		mov	r5, r0
 1844 0004 161C     		mov	r6, r2
1352:.\Generated_Source\PSoC4/W5100.c **** 	for( index = 0;index<4;++index) {
 1845              		.loc 1 1352 0
 1846 0006 0023     		mov	r3, #0
1350:.\Generated_Source\PSoC4/W5100.c **** 	socket = 0xFF;
 1847              		.loc 1 1350 0
 1848 0008 FF24     		mov	r4, #255
 1849              	.LVL233:
 1850              	.L152:
ARM GAS  C:\Users\CHUCK~1.ERH\AppData\Local\Temp\cc506n3q.s 			page 63


 1851 000a 5A1C     		add	r2, r3, #1
1353:.\Generated_Source\PSoC4/W5100.c **** 		if ( (socket == 0xFF) && (W5100_SocketConfig[index].Protocol == 0) ) {
 1852              		.loc 1 1353 0
 1853 000c FF2C     		cmp	r4, #255
 1854 000e 0DD1     		bne	.L143
1339:.\Generated_Source\PSoC4/W5100.c **** W5100_SocketOpen( uint8 Protocol, uint16 port, uint8 flags )
 1855              		.loc 1 1339 0 discriminator 1
 1856 0010 0627     		mov	r7, #6
 1857 0012 5F43     		mul	r7, r3
1353:.\Generated_Source\PSoC4/W5100.c **** 		if ( (socket == 0xFF) && (W5100_SocketConfig[index].Protocol == 0) ) {
 1858              		.loc 1 1353 0 discriminator 1
 1859 0014 1748     		ldr	r0, .L153
 1860 0016 0430     		add	r0, r0, #4
 1861 0018 3F5C     		ldrb	r7, [r7, r0]
 1862 001a 002F     		cmp	r7, #0
 1863 001c 06D1     		bne	.L143
1359:.\Generated_Source\PSoC4/W5100.c **** 			if ( (Protocol != W5100_PROTO_MAC) || (index != 0) ) {
 1864              		.loc 1 1359 0
 1865 001e 042D     		cmp	r5, #4
 1866 0020 03D1     		bne	.L144
1359:.\Generated_Source\PSoC4/W5100.c **** 			if ( (Protocol != W5100_PROTO_MAC) || (index != 0) ) {
 1867              		.loc 1 1359 0 is_stmt 0 discriminator 1
 1868 0022 002B     		cmp	r3, #0
 1869 0024 01D1     		bne	.L144
 1870 0026 131C     		mov	r3, r2
 1871 0028 EFE7     		b	.L152
 1872              	.L144:
1361:.\Generated_Source\PSoC4/W5100.c **** 				socket = index;
 1873              		.loc 1 1361 0 is_stmt 1
 1874 002a DCB2     		uxtb	r4, r3
 1875              	.LVL234:
 1876              	.L143:
1352:.\Generated_Source\PSoC4/W5100.c **** 	for( index = 0;index<4;++index) {
 1877              		.loc 1 1352 0
 1878 002c 131E     		sub	r3, r2, #0
 1879              	.LVL235:
 1880 002e 042B     		cmp	r3, #4
 1881 0030 EBD1     		bne	.L152
 1882              	.LVL236:
1365:.\Generated_Source\PSoC4/W5100.c **** 	if (socket != 0xFF ) {
 1883              		.loc 1 1365 0
 1884 0032 FF2C     		cmp	r4, #255
 1885 0034 1BD0     		beq	.L146
1367:.\Generated_Source\PSoC4/W5100.c **** 		W5100_SocketConfig[socket].Protocol = Protocol;
 1886              		.loc 1 1367 0
 1887 0036 0620     		mov	r0, #6
 1888 0038 6043     		mul	r0, r4
 1889 003a 0E4A     		ldr	r2, .L153
 1890              	.LVL237:
1370:.\Generated_Source\PSoC4/W5100.c **** 		W5100_SocketConfig[socket].ServerFlag = 0;
 1891              		.loc 1 1370 0
 1892 003c 0023     		mov	r3, #0
 1893              	.LVL238:
1367:.\Generated_Source\PSoC4/W5100.c **** 		W5100_SocketConfig[socket].Protocol = Protocol;
 1894              		.loc 1 1367 0
 1895 003e 1718     		add	r7, r2, r0
 1896              	.LBB117:
ARM GAS  C:\Users\CHUCK~1.ERH\AppData\Local\Temp\cc506n3q.s 			page 64


 1897              	.LBB118:
 700:.\Generated_Source\PSoC4/W5100.c **** { W5100_W51_Write16(W5100_SOCKET_BASE(socket)+4,port); }
 1898              		.loc 1 700 0
 1899 0040 0D4A     		ldr	r2, .L153+4
 1900              	.LBE118:
 1901              	.LBE117:
1367:.\Generated_Source\PSoC4/W5100.c **** 		W5100_SocketConfig[socket].Protocol = Protocol;
 1902              		.loc 1 1367 0
 1903 0042 381D     		add	r0, r7, #4
1369:.\Generated_Source\PSoC4/W5100.c **** 		W5100_SocketConfig[socket].SourcePort = port;
 1904              		.loc 1 1369 0
 1905 0044 F980     		strh	r1, [r7, #6]
1367:.\Generated_Source\PSoC4/W5100.c **** 		W5100_SocketConfig[socket].Protocol = Protocol;
 1906              		.loc 1 1367 0
 1907 0046 3D71     		strb	r5, [r7, #4]
1368:.\Generated_Source\PSoC4/W5100.c **** 		W5100_SocketConfig[socket].SocketFlags = flags;
 1908              		.loc 1 1368 0
 1909 0048 7E71     		strb	r6, [r7, #5]
 1910              	.LBB121:
 1911              	.LBB119:
 700:.\Generated_Source\PSoC4/W5100.c **** { W5100_W51_Write16(W5100_SOCKET_BASE(socket)+4,port); }
 1912              		.loc 1 700 0
 1913 004a 2702     		lsl	r7, r4, #8
 1914              	.LBE119:
 1915              	.LBE121:
1370:.\Generated_Source\PSoC4/W5100.c **** 		W5100_SocketConfig[socket].ServerFlag = 0;
 1916              		.loc 1 1370 0
 1917 004c 0371     		strb	r3, [r0, #4]
 1918              	.LVL239:
 1919              	.LBB122:
 1920              	.LBB120:
 700:.\Generated_Source\PSoC4/W5100.c **** { W5100_W51_Write16(W5100_SOCKET_BASE(socket)+4,port); }
 1921              		.loc 1 700 0
 1922 004e B818     		add	r0, r7, r2
 1923 0050 80B2     		uxth	r0, r0
 1924 0052 FFF7FEFF 		bl	W5100_W51_Write16
 1925              	.LVL240:
 1926              	.LBE120:
 1927              	.LBE122:
 1928              	.LBB123:
 1929              	.LBB124:
 636:.\Generated_Source\PSoC4/W5100.c **** { W5100_W51_Write(W5100_SOCKET_BASE(socket), mode); }
 1930              		.loc 1 636 0
 1931 0056 8021     		mov	r1, #128
 1932 0058 CB00     		lsl	r3, r1, #3
 1933 005a FF18     		add	r7, r7, r3
 1934 005c 311C     		mov	r1, r6
 1935 005e B8B2     		uxth	r0, r7
 1936 0060 2943     		orr	r1, r5
 1937 0062 FFF7FEFF 		bl	W5100_W51_Write
 1938              	.LVL241:
 1939              	.LBE124:
 1940              	.LBE123:
1374:.\Generated_Source\PSoC4/W5100.c **** 		W5100_ExecuteSocketCommand( socket, 1 );
 1941              		.loc 1 1374 0
 1942 0066 201C     		mov	r0, r4
 1943 0068 0121     		mov	r1, #1
ARM GAS  C:\Users\CHUCK~1.ERH\AppData\Local\Temp\cc506n3q.s 			page 65


 1944 006a FFF7FEFF 		bl	W5100_ExecuteSocketCommand
 1945              	.LVL242:
 1946              	.L146:
1377:.\Generated_Source\PSoC4/W5100.c **** }
 1947              		.loc 1 1377 0
 1948 006e 201C     		mov	r0, r4
 1949              		@ sp needed for prologue
 1950              	.LVL243:
 1951 0070 F8BD     		pop	{r3, r4, r5, r6, r7, pc}
 1952              	.L154:
 1953 0072 C046     		.align	2
 1954              	.L153:
 1955 0074 00000000 		.word	.LANCHOR0
 1956 0078 04040000 		.word	1028
 1957              		.cfi_endproc
 1958              	.LFE84:
 1959              		.size	W5100_SocketOpen, .-W5100_SocketOpen
 1960              		.section	.text.W5100_SocketClose,"ax",%progbits
 1961              		.align	1
 1962              		.global	W5100_SocketClose
 1963              		.code	16
 1964              		.thumb_func
 1965              		.type	W5100_SocketClose, %function
 1966              	W5100_SocketClose:
 1967              	.LFB85:
1381:.\Generated_Source\PSoC4/W5100.c **** {
 1968              		.loc 1 1381 0
 1969              		.cfi_startproc
 1970              	.LVL244:
 1971 0000 10B5     		push	{r4, lr}
 1972              	.LCFI24:
 1973              		.cfi_def_cfa_offset 8
 1974              		.cfi_offset 4, -8
 1975              		.cfi_offset 14, -4
1381:.\Generated_Source\PSoC4/W5100.c **** {
 1976              		.loc 1 1381 0
 1977 0002 041E     		sub	r4, r0, #0
1386:.\Generated_Source\PSoC4/W5100.c **** 	if (socket < 4) {
 1978              		.loc 1 1386 0
 1979 0004 032C     		cmp	r4, #3
 1980 0006 11D8     		bhi	.L155
 1981              	.LVL245:
 1982              	.LBB129:
 1983              	.LBB130:
1388:.\Generated_Source\PSoC4/W5100.c **** 		W5100_SocketConfig[socket].Protocol = 0;
 1984              		.loc 1 1388 0
 1985 0008 0622     		mov	r2, #6
 1986 000a 4243     		mul	r2, r0
 1987 000c 084B     		ldr	r3, .L157
 1988 000e 0021     		mov	r1, #0
 1989 0010 9818     		add	r0, r3, r2
 1990              	.LVL246:
 1991 0012 0171     		strb	r1, [r0, #4]
1389:.\Generated_Source\PSoC4/W5100.c **** 		W5100_SocketConfig[socket].SocketFlags = 0;
 1992              		.loc 1 1389 0
 1993 0014 4171     		strb	r1, [r0, #5]
1391:.\Generated_Source\PSoC4/W5100.c **** 		W5100_ExecuteSocketCommand( socket, 0x10 );
ARM GAS  C:\Users\CHUCK~1.ERH\AppData\Local\Temp\cc506n3q.s 			page 66


 1994              		.loc 1 1391 0
 1995 0016 201C     		mov	r0, r4
 1996 0018 1021     		mov	r1, #16
 1997 001a FFF7FEFF 		bl	W5100_ExecuteSocketCommand
 1998              	.LVL247:
 1999              	.LBB131:
 2000              	.LBB132:
 668:.\Generated_Source\PSoC4/W5100.c **** { W5100_W51_Write(W5100_SOCKET_BASE(socket)+2,ir); }
 2001              		.loc 1 668 0
 2002 001e 054A     		ldr	r2, .L157+4
 2003 0020 2402     		lsl	r4, r4, #8
 2004              	.LVL248:
 2005 0022 A318     		add	r3, r4, r2
 2006 0024 98B2     		uxth	r0, r3
 2007 0026 FF21     		mov	r1, #255
 2008 0028 FFF7FEFF 		bl	W5100_W51_Write
 2009              	.LVL249:
 2010              	.L155:
 2011              	.LBE132:
 2012              	.LBE131:
 2013              	.LBE130:
 2014              	.LBE129:
1395:.\Generated_Source\PSoC4/W5100.c **** }
 2015              		.loc 1 1395 0
 2016              		@ sp needed for prologue
 2017 002c 10BD     		pop	{r4, pc}
 2018              	.L158:
 2019 002e C046     		.align	2
 2020              	.L157:
 2021 0030 00000000 		.word	.LANCHOR0
 2022 0034 02040000 		.word	1026
 2023              		.cfi_endproc
 2024              	.LFE85:
 2025              		.size	W5100_SocketClose, .-W5100_SocketClose
 2026              		.section	.text.W5100_Init,"ax",%progbits
 2027              		.align	1
 2028              		.global	W5100_Init
 2029              		.code	16
 2030              		.thumb_func
 2031              		.type	W5100_Init, %function
 2032              	W5100_Init:
 2033              	.LFB74:
1074:.\Generated_Source\PSoC4/W5100.c **** {
 2034              		.loc 1 1074 0
 2035              		.cfi_startproc
 2036              	.LVL250:
 2037 0000 F8B5     		push	{r3, r4, r5, r6, r7, lr}
 2038              	.LCFI25:
 2039              		.cfi_def_cfa_offset 24
 2040              		.cfi_offset 3, -24
 2041              		.cfi_offset 4, -20
 2042              		.cfi_offset 5, -16
 2043              		.cfi_offset 6, -12
 2044              		.cfi_offset 7, -8
 2045              		.cfi_offset 14, -4
1074:.\Generated_Source\PSoC4/W5100.c **** {
 2046              		.loc 1 1074 0
ARM GAS  C:\Users\CHUCK~1.ERH\AppData\Local\Temp\cc506n3q.s 			page 67


 2047 0002 061C     		mov	r6, r0
1082:.\Generated_Source\PSoC4/W5100.c **** 	CyDelay( 250 ); /* Fixed Boot Delay or chip inintialization will fail */
 2048              		.loc 1 1082 0
 2049 0004 FA20     		mov	r0, #250
 2050              	.LVL251:
1074:.\Generated_Source\PSoC4/W5100.c **** {
 2051              		.loc 1 1074 0
 2052 0006 141C     		mov	r4, r2
 2053 0008 1F1C     		mov	r7, r3
 2054 000a 0D1C     		mov	r5, r1
1082:.\Generated_Source\PSoC4/W5100.c **** 	CyDelay( 250 ); /* Fixed Boot Delay or chip inintialization will fail */
 2055              		.loc 1 1082 0
 2056 000c FFF7FEFF 		bl	CyDelay
 2057              	.LVL252:
 2058              	.LBB153:
 2059              	.LBB154:
 515:.\Generated_Source\PSoC4/W5100.c **** static void W5100_SetMode( uint8 mode ) { W5100_W51_Write(0,mode); }
 2060              		.loc 1 515 0
 2061 0010 8021     		mov	r1, #128
 2062 0012 0020     		mov	r0, #0
 2063 0014 FFF7FEFF 		bl	W5100_W51_Write
 2064              	.LVL253:
 2065              	.LBE154:
 2066              	.LBE153:
1087:.\Generated_Source\PSoC4/W5100.c **** 	CyDelay( 10 );
 2067              		.loc 1 1087 0
 2068 0018 0A20     		mov	r0, #10
 2069 001a FFF7FEFF 		bl	CyDelay
 2070              	.LVL254:
1091:.\Generated_Source\PSoC4/W5100.c **** 		W5100_SocketClose( index );
 2071              		.loc 1 1091 0
 2072 001e 0020     		mov	r0, #0
 2073 0020 FFF7FEFF 		bl	W5100_SocketClose
 2074              	.LVL255:
 2075 0024 0120     		mov	r0, #1
 2076 0026 FFF7FEFF 		bl	W5100_SocketClose
 2077              	.LVL256:
 2078 002a 0220     		mov	r0, #2
 2079 002c FFF7FEFF 		bl	W5100_SocketClose
 2080              	.LVL257:
 2081 0030 0320     		mov	r0, #3
 2082 0032 FFF7FEFF 		bl	W5100_SocketClose
 2083              	.LVL258:
 2084              	.LBB155:
 2085              	.LBB156:
 587:.\Generated_Source\PSoC4/W5100.c **** static void W5100_SetTxMemSize( uint8 size ) { W5100_W51_Write( 0x1B, size); }
 2086              		.loc 1 587 0
 2087 0036 1B20     		mov	r0, #27
 2088 0038 5521     		mov	r1, #85
 2089 003a FFF7FEFF 		bl	W5100_W51_Write
 2090              	.LVL259:
 2091              	.LBE156:
 2092              	.LBE155:
 2093              	.LBB157:
 2094              	.LBB158:
 575:.\Generated_Source\PSoC4/W5100.c **** static void W5100_SetRxMemSize( uint8 size ) { W5100_W51_Write( 0x1A, size ); }
 2095              		.loc 1 575 0
ARM GAS  C:\Users\CHUCK~1.ERH\AppData\Local\Temp\cc506n3q.s 			page 68


 2096 003e 1A20     		mov	r0, #26
 2097 0040 5521     		mov	r1, #85
 2098 0042 FFF7FEFF 		bl	W5100_W51_Write
 2099              	.LVL260:
 2100              	.LBE158:
 2101              	.LBE157:
 2102              	.LBB159:
 2103              	.LBB160:
 479:.\Generated_Source\PSoC4/W5100.c **** static void W5100_SetGatewayAddress(uint32 ip) { W5100_W51_SetIP(1,ip); }
 2104              		.loc 1 479 0
 2105 0046 0120     		mov	r0, #1
 2106 0048 391C     		mov	r1, r7
 2107 004a FFF7FEFF 		bl	W5100_W51_SetIP
 2108              	.LVL261:
 2109              	.LBE160:
 2110              	.LBE159:
 2111              	.LBB161:
 2112              	.LBB162:
 491:.\Generated_Source\PSoC4/W5100.c **** static void W5100_SetSubnetMask( uint32 ip ) { W5100_W51_SetIP(5, ip); }
 2113              		.loc 1 491 0
 2114 004e 211C     		mov	r1, r4
 2115 0050 0520     		mov	r0, #5
 2116 0052 FFF7FEFF 		bl	W5100_W51_SetIP
 2117              	.LVL262:
 2118              	.LBE162:
 2119              	.LBE161:
1100:.\Generated_Source\PSoC4/W5100.c **** 	W5100_SubnetMask = subnet;
 2120              		.loc 1 1100 0
 2121 0056 0C4B     		ldr	r3, .L162
 2122 0058 1C60     		str	r4, [r3]
 2123              	.LVL263:
 346:.\Generated_Source\PSoC4/W5100.c **** 	for(index = 0;index<6;++index)
 2124              		.loc 1 346 0
 2125 005a 0024     		mov	r4, #0
 2126              	.LVL264:
 2127              	.L160:
 2128              	.LBB163:
 2129              	.LBB164:
 2130              	.LBB165:
1073:.\Generated_Source\PSoC4/W5100.c **** W5100_Init(uint8* mac, uint32 ip, uint32 subnet, uint32 gateway)
 2131              		.loc 1 1073 0
 2132 005c 201C     		mov	r0, r4
 2133 005e 0930     		add	r0, r0, #9
 348:.\Generated_Source\PSoC4/W5100.c **** 		W5100_W51_Write(addr+index,mac[index]);
 2134              		.loc 1 348 0
 2135 0060 315D     		ldrb	r1, [r6, r4]
 2136 0062 80B2     		uxth	r0, r0
 346:.\Generated_Source\PSoC4/W5100.c **** 	for(index = 0;index<6;++index)
 2137              		.loc 1 346 0
 2138 0064 0134     		add	r4, r4, #1
 348:.\Generated_Source\PSoC4/W5100.c **** 		W5100_W51_Write(addr+index,mac[index]);
 2139              		.loc 1 348 0
 2140 0066 FFF7FEFF 		bl	W5100_W51_Write
 2141              	.LVL265:
 346:.\Generated_Source\PSoC4/W5100.c **** 	for(index = 0;index<6;++index)
 2142              		.loc 1 346 0
 2143 006a 062C     		cmp	r4, #6
ARM GAS  C:\Users\CHUCK~1.ERH\AppData\Local\Temp\cc506n3q.s 			page 69


 2144 006c F6D1     		bne	.L160
 2145              	.LVL266:
 2146              	.LBE165:
 2147              	.LBE164:
 2148              	.LBE163:
 2149              	.LBB166:
 2150              	.LBB167:
 503:.\Generated_Source\PSoC4/W5100.c **** static void W5100_SetSourceIP( uint32 ip ) { W5100_W51_SetIP( 0x0F, ip ); }
 2151              		.loc 1 503 0
 2152 006e 291C     		mov	r1, r5
 2153 0070 0F20     		mov	r0, #15
 2154 0072 FFF7FEFF 		bl	W5100_W51_SetIP
 2155              	.LVL267:
 2156              	.LBE167:
 2157              	.LBE166:
 2158              	.LBB168:
 2159              	.LBB169:
 527:.\Generated_Source\PSoC4/W5100.c **** static void W5100_SetIR( uint8 ir ) { W5100_W51_Write(0x0015,ir); }
 2160              		.loc 1 527 0
 2161 0076 1520     		mov	r0, #21
 2162 0078 FF21     		mov	r1, #255
 2163 007a FFF7FEFF 		bl	W5100_W51_Write
 2164              	.LVL268:
 2165              	.LBE169:
 2166              	.LBE168:
 2167              	.LBB170:
 2168              	.LBB171:
 491:.\Generated_Source\PSoC4/W5100.c **** static void W5100_SetSubnetMask( uint32 ip ) { W5100_W51_SetIP(5, ip); }
 2169              		.loc 1 491 0
 2170 007e 0520     		mov	r0, #5
 2171 0080 0021     		mov	r1, #0
 2172 0082 FFF7FEFF 		bl	W5100_W51_SetIP
 2173              	.LVL269:
 2174              	.LBE171:
 2175              	.LBE170:
1109:.\Generated_Source\PSoC4/W5100.c **** }
 2176              		.loc 1 1109 0
 2177              		@ sp needed for prologue
 2178              	.LVL270:
 2179              	.LVL271:
 2180              	.LVL272:
 2181              	.LVL273:
 2182 0086 F8BD     		pop	{r3, r4, r5, r6, r7, pc}
 2183              	.L163:
 2184              		.align	2
 2185              	.L162:
 2186 0088 00000000 		.word	.LANCHOR0
 2187              		.cfi_endproc
 2188              	.LFE74:
 2189              		.size	W5100_Init, .-W5100_Init
 2190              		.section	.text.W5100_Start,"ax",%progbits
 2191              		.align	1
 2192              		.global	W5100_Start
 2193              		.code	16
 2194              		.thumb_func
 2195              		.type	W5100_Start, %function
 2196              	W5100_Start:
ARM GAS  C:\Users\CHUCK~1.ERH\AppData\Local\Temp\cc506n3q.s 			page 70


 2197              	.LFB75:
1113:.\Generated_Source\PSoC4/W5100.c **** {
 2198              		.loc 1 1113 0
 2199              		.cfi_startproc
 2200 0000 70B5     		push	{r4, r5, r6, lr}
 2201              	.LCFI26:
 2202              		.cfi_def_cfa_offset 16
 2203              		.cfi_offset 4, -16
 2204              		.cfi_offset 5, -12
 2205              		.cfi_offset 6, -8
 2206              		.cfi_offset 14, -4
1119:.\Generated_Source\PSoC4/W5100.c **** 	if (SPI_initVar == 0) {
 2207              		.loc 1 1119 0
 2208 0002 184B     		ldr	r3, .L167
 2209 0004 1878     		ldrb	r0, [r3]
 2210 0006 0028     		cmp	r0, #0
 2211 0008 01D1     		bne	.L165
1124:.\Generated_Source\PSoC4/W5100.c **** 		SPI_Start();
 2212              		.loc 1 1124 0
 2213 000a FFF7FEFF 		bl	SPI_Start
 2214              	.LVL274:
 2215              	.L165:
1128:.\Generated_Source\PSoC4/W5100.c **** 	CyDelay( 10 );
 2216              		.loc 1 1128 0
 2217 000e 0A20     		mov	r0, #10
 2218 0010 FFF7FEFF 		bl	CyDelay
 2219              	.LVL275:
1130:.\Generated_Source\PSoC4/W5100.c **** 	if ( W5100_ParseMAC("00-DE-AD-BE-EF-00", &W5100_MAC[0]) == CYRET_BAD_DATA) {
 2220              		.loc 1 1130 0
 2221 0014 144C     		ldr	r4, .L167+4
 2222 0016 1548     		ldr	r0, .L167+8
 2223 0018 211C     		mov	r1, r4
 2224 001a 1C31     		add	r1, r1, #28
 2225 001c FFF7FEFF 		bl	W5100_ParseMAC
 2226              	.LVL276:
 2227 0020 0628     		cmp	r0, #6
 2228 0022 0BD1     		bne	.L166
1131:.\Generated_Source\PSoC4/W5100.c **** 		W5100_MAC[0] = 0;
 2229              		.loc 1 1131 0
 2230 0024 0025     		mov	r5, #0
1132:.\Generated_Source\PSoC4/W5100.c **** 		W5100_MAC[1] = 0xDE;
 2231              		.loc 1 1132 0
 2232 0026 DE22     		mov	r2, #222
1133:.\Generated_Source\PSoC4/W5100.c **** 		W5100_MAC[2] = 0xAD;
 2233              		.loc 1 1133 0
 2234 0028 AD21     		mov	r1, #173
1134:.\Generated_Source\PSoC4/W5100.c **** 		W5100_MAC[3] = 0xC0;
 2235              		.loc 1 1134 0
 2236 002a C026     		mov	r6, #192
1135:.\Generated_Source\PSoC4/W5100.c **** 		W5100_MAC[4] = 0xDE;
 2237              		.loc 1 1135 0
 2238 002c 631C     		add	r3, r4, #1
1136:.\Generated_Source\PSoC4/W5100.c **** 		W5100_MAC[5] = 0;
 2239              		.loc 1 1136 0
 2240 002e A01C     		add	r0, r4, #2
1131:.\Generated_Source\PSoC4/W5100.c **** 		W5100_MAC[0] = 0;
 2241              		.loc 1 1131 0
ARM GAS  C:\Users\CHUCK~1.ERH\AppData\Local\Temp\cc506n3q.s 			page 71


 2242 0030 2577     		strb	r5, [r4, #28]
1132:.\Generated_Source\PSoC4/W5100.c **** 		W5100_MAC[1] = 0xDE;
 2243              		.loc 1 1132 0
 2244 0032 6277     		strb	r2, [r4, #29]
1133:.\Generated_Source\PSoC4/W5100.c **** 		W5100_MAC[2] = 0xAD;
 2245              		.loc 1 1133 0
 2246 0034 A177     		strb	r1, [r4, #30]
1134:.\Generated_Source\PSoC4/W5100.c **** 		W5100_MAC[3] = 0xC0;
 2247              		.loc 1 1134 0
 2248 0036 E677     		strb	r6, [r4, #31]
1135:.\Generated_Source\PSoC4/W5100.c **** 		W5100_MAC[4] = 0xDE;
 2249              		.loc 1 1135 0
 2250 0038 DA77     		strb	r2, [r3, #31]
1136:.\Generated_Source\PSoC4/W5100.c **** 		W5100_MAC[5] = 0;
 2251              		.loc 1 1136 0
 2252 003a C577     		strb	r5, [r0, #31]
 2253              	.L166:
1139:.\Generated_Source\PSoC4/W5100.c **** 	ip = W5100_ParseIP("192.168.1.101");
 2254              		.loc 1 1139 0
 2255 003c 0C48     		ldr	r0, .L167+12
 2256 003e FFF7FEFF 		bl	W5100_ParseIP
 2257              	.LVL277:
 2258 0042 061C     		mov	r6, r0
 2259              	.LVL278:
1140:.\Generated_Source\PSoC4/W5100.c **** 	sub = W5100_ParseIP("255.255.255.0");
 2260              		.loc 1 1140 0
 2261 0044 0B48     		ldr	r0, .L167+16
 2262              	.LVL279:
 2263 0046 FFF7FEFF 		bl	W5100_ParseIP
 2264              	.LVL280:
 2265 004a 051C     		mov	r5, r0
 2266              	.LVL281:
1141:.\Generated_Source\PSoC4/W5100.c **** 	gateway = W5100_ParseIP("192.168.1.1");
 2267              		.loc 1 1141 0
 2268 004c 0A48     		ldr	r0, .L167+20
 2269              	.LVL282:
 2270 004e FFF7FEFF 		bl	W5100_ParseIP
 2271              	.LVL283:
 2272 0052 031C     		mov	r3, r0
 2273              	.LVL284:
1143:.\Generated_Source\PSoC4/W5100.c **** 	W5100_Init( &W5100_MAC[0], ip, sub, gateway  );
 2274              		.loc 1 1143 0
 2275 0054 201C     		mov	r0, r4
 2276              	.LVL285:
 2277 0056 311C     		mov	r1, r6
 2278 0058 2A1C     		mov	r2, r5
 2279 005a 1C30     		add	r0, r0, #28
 2280 005c FFF7FEFF 		bl	W5100_Init
 2281              	.LVL286:
1144:.\Generated_Source\PSoC4/W5100.c **** }
 2282              		.loc 1 1144 0
 2283              		@ sp needed for prologue
 2284              	.LVL287:
 2285              	.LVL288:
 2286 0060 70BD     		pop	{r4, r5, r6, pc}
 2287              	.L168:
 2288 0062 C046     		.align	2
ARM GAS  C:\Users\CHUCK~1.ERH\AppData\Local\Temp\cc506n3q.s 			page 72


 2289              	.L167:
 2290 0064 00000000 		.word	SPI_initVar
 2291 0068 00000000 		.word	.LANCHOR0
 2292 006c 00000000 		.word	.LC8
 2293 0070 12000000 		.word	.LC11
 2294 0074 20000000 		.word	.LC13
 2295 0078 2E000000 		.word	.LC15
 2296              		.cfi_endproc
 2297              	.LFE75:
 2298              		.size	W5100_Start, .-W5100_Start
 2299              		.section	.text.W5100_SocketProcessConnections,"ax",%progbits
 2300              		.align	1
 2301              		.global	W5100_SocketProcessConnections
 2302              		.code	16
 2303              		.thumb_func
 2304              		.type	W5100_SocketProcessConnections, %function
 2305              	W5100_SocketProcessConnections:
 2306              	.LFB86:
1399:.\Generated_Source\PSoC4/W5100.c **** {
 2307              		.loc 1 1399 0
 2308              		.cfi_startproc
 2309              	.LVL289:
 2310 0000 10B5     		push	{r4, lr}
 2311              	.LCFI27:
 2312              		.cfi_def_cfa_offset 8
 2313              		.cfi_offset 4, -8
 2314              		.cfi_offset 14, -4
1399:.\Generated_Source\PSoC4/W5100.c **** {
 2315              		.loc 1 1399 0
 2316 0002 041C     		mov	r4, r0
1402:.\Generated_Source\PSoC4/W5100.c **** 	status = W5100_GetSocketStatus(socket);
 2317              		.loc 1 1402 0
 2318 0004 FFF7FEFF 		bl	W5100_GetSocketStatus
 2319              	.LVL290:
1404:.\Generated_Source\PSoC4/W5100.c **** 	if (status == 0x1C) {
 2320              		.loc 1 1404 0
 2321 0008 1C28     		cmp	r0, #28
 2322 000a 02D1     		bne	.L170
1406:.\Generated_Source\PSoC4/W5100.c **** 		W5100_SocketClose(socket);
 2323              		.loc 1 1406 0
 2324 000c 201C     		mov	r0, r4
 2325              	.LVL291:
 2326 000e FFF7FEFF 		bl	W5100_SocketClose
 2327              	.LVL292:
 2328              	.L170:
1408:.\Generated_Source\PSoC4/W5100.c **** 	return (W5100_GetSocketStatus(socket) == 0x00);
 2329              		.loc 1 1408 0
 2330 0012 201C     		mov	r0, r4
 2331 0014 FFF7FEFF 		bl	W5100_GetSocketStatus
 2332              	.LVL293:
1409:.\Generated_Source\PSoC4/W5100.c **** }
 2333              		.loc 1 1409 0
 2334              		@ sp needed for prologue
1408:.\Generated_Source\PSoC4/W5100.c **** 	return (W5100_GetSocketStatus(socket) == 0x00);
 2335              		.loc 1 1408 0
 2336 0018 4342     		neg	r3, r0
 2337 001a 5841     		adc	r0, r0, r3
ARM GAS  C:\Users\CHUCK~1.ERH\AppData\Local\Temp\cc506n3q.s 			page 73


1409:.\Generated_Source\PSoC4/W5100.c **** }
 2338              		.loc 1 1409 0
 2339 001c 10BD     		pop	{r4, pc}
 2340              		.cfi_endproc
 2341              	.LFE86:
 2342              		.size	W5100_SocketProcessConnections, .-W5100_SocketProcessConnections
 2343              		.section	.text.W5100_SocketEstablished,"ax",%progbits
 2344              		.align	1
 2345              		.global	W5100_SocketEstablished
 2346              		.code	16
 2347              		.thumb_func
 2348              		.type	W5100_SocketEstablished, %function
 2349              	W5100_SocketEstablished:
 2350              	.LFB87:
1413:.\Generated_Source\PSoC4/W5100.c **** {
 2351              		.loc 1 1413 0
 2352              		.cfi_startproc
 2353              	.LVL294:
 2354 0000 08B5     		push	{r3, lr}
 2355              	.LCFI28:
 2356              		.cfi_def_cfa_offset 8
 2357              		.cfi_offset 3, -8
 2358              		.cfi_offset 14, -4
1414:.\Generated_Source\PSoC4/W5100.c **** 	return (W5100_GetSocketStatus( socket ) == 0x17);
 2359              		.loc 1 1414 0
 2360 0002 FFF7FEFF 		bl	W5100_GetSocketStatus
 2361              	.LVL295:
 2362 0006 1738     		sub	r0, r0, #23
 2363 0008 4342     		neg	r3, r0
 2364 000a 5841     		adc	r0, r0, r3
1415:.\Generated_Source\PSoC4/W5100.c **** }
 2365              		.loc 1 1415 0
 2366              		@ sp needed for prologue
 2367 000c 08BD     		pop	{r3, pc}
 2368              		.cfi_endproc
 2369              	.LFE87:
 2370              		.size	W5100_SocketEstablished, .-W5100_SocketEstablished
 2371              		.section	.text.W5100_SocketRxDataWaiting,"ax",%progbits
 2372              		.align	1
 2373              		.global	W5100_SocketRxDataWaiting
 2374              		.code	16
 2375              		.thumb_func
 2376              		.type	W5100_SocketRxDataWaiting, %function
 2377              	W5100_SocketRxDataWaiting:
 2378              	.LFB90:
1443:.\Generated_Source\PSoC4/W5100.c **** /* ------------------------------------------------------------------------ */
1444:.\Generated_Source\PSoC4/W5100.c **** /**
1445:.\Generated_Source\PSoC4/W5100.c ****  * \brief Execute a SEND without an ARP.
1446:.\Generated_Source\PSoC4/W5100.c ****  * \param socket the socket to which the SEND will be executed.
1447:.\Generated_Source\PSoC4/W5100.c ****  */
1448:.\Generated_Source\PSoC4/W5100.c **** static void
1449:.\Generated_Source\PSoC4/W5100.c **** W5100_SocketSendMac(uint8 socket )
1450:.\Generated_Source\PSoC4/W5100.c **** {
1451:.\Generated_Source\PSoC4/W5100.c **** 	uint8 ir;
1452:.\Generated_Source\PSoC4/W5100.c **** 	
1453:.\Generated_Source\PSoC4/W5100.c **** 	/* initialize the subnet mask register : ERRATA FIX */
1454:.\Generated_Source\PSoC4/W5100.c **** 	W5100_SetSubnetMask( W5100_SubnetMask );
ARM GAS  C:\Users\CHUCK~1.ERH\AppData\Local\Temp\cc506n3q.s 			page 74


1455:.\Generated_Source\PSoC4/W5100.c **** 	/* Issue the SEND command */
1456:.\Generated_Source\PSoC4/W5100.c **** 	W5100_ExecuteSocketCommand( socket, 0x21 );
1457:.\Generated_Source\PSoC4/W5100.c **** 	/* wait for the SEND to complete, or for a timeout */
1458:.\Generated_Source\PSoC4/W5100.c **** 	ir = W5100_GetSocketIR( socket );
1459:.\Generated_Source\PSoC4/W5100.c **** 	/* while SEND is not done, and the socket hasnot timed out or been dsconnected */
1460:.\Generated_Source\PSoC4/W5100.c **** 	while ( ((ir & 0x10) == 0) && (!(ir&0x0A)) ) {
1461:.\Generated_Source\PSoC4/W5100.c **** 		CyDelay(1);
1462:.\Generated_Source\PSoC4/W5100.c **** 		ir = W5100_GetSocketIR( socket );
1463:.\Generated_Source\PSoC4/W5100.c **** 		
1464:.\Generated_Source\PSoC4/W5100.c **** 	}
1465:.\Generated_Source\PSoC4/W5100.c **** 	/* clear the SEND_OK flag from the register */
1466:.\Generated_Source\PSoC4/W5100.c **** 	W5100_SetSocketIR( socket, 0x10 );
1467:.\Generated_Source\PSoC4/W5100.c **** 	/* reset the subnet mask : ERRATA FIX */
1468:.\Generated_Source\PSoC4/W5100.c **** 	W5100_SetSubnetMask( 0 );
1469:.\Generated_Source\PSoC4/W5100.c **** }
1470:.\Generated_Source\PSoC4/W5100.c **** /* ------------------------------------------------------------------------ */
1471:.\Generated_Source\PSoC4/W5100.c **** uint16
1472:.\Generated_Source\PSoC4/W5100.c **** W5100_SocketRxDataWaiting( uint8 socket )
1473:.\Generated_Source\PSoC4/W5100.c **** {
 2379              		.loc 1 1473 0
 2380              		.cfi_startproc
 2381              	.LVL296:
 2382 0000 08B5     		push	{r3, lr}
 2383              	.LCFI29:
 2384              		.cfi_def_cfa_offset 8
 2385              		.cfi_offset 3, -8
 2386              		.cfi_offset 14, -4
1474:.\Generated_Source\PSoC4/W5100.c **** 	return W5100_GetRxSize( socket );
 2387              		.loc 1 1474 0
 2388 0002 FFF7FEFF 		bl	W5100_GetRxSize
 2389              	.LVL297:
1475:.\Generated_Source\PSoC4/W5100.c **** }
 2390              		.loc 1 1475 0
 2391              		@ sp needed for prologue
 2392 0006 08BD     		pop	{r3, pc}
 2393              		.cfi_endproc
 2394              	.LFE90:
 2395              		.size	W5100_SocketRxDataWaiting, .-W5100_SocketRxDataWaiting
 2396              		.section	.text.W5100_TcpOpen,"ax",%progbits
 2397              		.align	1
 2398              		.global	W5100_TcpOpen
 2399              		.code	16
 2400              		.thumb_func
 2401              		.type	W5100_TcpOpen, %function
 2402              	W5100_TcpOpen:
 2403              	.LFB91:
1476:.\Generated_Source\PSoC4/W5100.c **** #endif
1477:.\Generated_Source\PSoC4/W5100.c **** /* ======================================================================== */
1478:.\Generated_Source\PSoC4/W5100.c **** /* TCP/IP */
1479:.\Generated_Source\PSoC4/W5100.c **** #if (1)
1480:.\Generated_Source\PSoC4/W5100.c **** /* ------------------------------------------------------------------------ */
1481:.\Generated_Source\PSoC4/W5100.c **** uint8
1482:.\Generated_Source\PSoC4/W5100.c **** W5100_TcpOpen(uint16 port)
1483:.\Generated_Source\PSoC4/W5100.c **** {
 2404              		.loc 1 1483 0
 2405              		.cfi_startproc
 2406              	.LVL298:
ARM GAS  C:\Users\CHUCK~1.ERH\AppData\Local\Temp\cc506n3q.s 			page 75


 2407 0000 08B5     		push	{r3, lr}
 2408              	.LCFI30:
 2409              		.cfi_def_cfa_offset 8
 2410              		.cfi_offset 3, -8
 2411              		.cfi_offset 14, -4
 2412              		.loc 1 1483 0
 2413 0002 011C     		mov	r1, r0
1484:.\Generated_Source\PSoC4/W5100.c **** 	return W5100_SocketOpen(W5100_PROTO_TCP, port, 0);
 2414              		.loc 1 1484 0
 2415 0004 0022     		mov	r2, #0
 2416 0006 0120     		mov	r0, #1
 2417              	.LVL299:
 2418 0008 FFF7FEFF 		bl	W5100_SocketOpen
 2419              	.LVL300:
1485:.\Generated_Source\PSoC4/W5100.c **** }
 2420              		.loc 1 1485 0
 2421              		@ sp needed for prologue
 2422 000c 08BD     		pop	{r3, pc}
 2423              		.cfi_endproc
 2424              	.LFE91:
 2425              		.size	W5100_TcpOpen, .-W5100_TcpOpen
 2426              		.section	.text.W5100_TcpStartServer,"ax",%progbits
 2427              		.align	1
 2428              		.global	W5100_TcpStartServer
 2429              		.code	16
 2430              		.thumb_func
 2431              		.type	W5100_TcpStartServer, %function
 2432              	W5100_TcpStartServer:
 2433              	.LFB92:
1486:.\Generated_Source\PSoC4/W5100.c **** /* ------------------------------------------------------------------------ */
1487:.\Generated_Source\PSoC4/W5100.c **** void
1488:.\Generated_Source\PSoC4/W5100.c **** W5100_TcpStartServer( uint8 socket )
1489:.\Generated_Source\PSoC4/W5100.c **** {
 2434              		.loc 1 1489 0
 2435              		.cfi_startproc
 2436              	.LVL301:
 2437 0000 08B5     		push	{r3, lr}
 2438              	.LCFI31:
 2439              		.cfi_def_cfa_offset 8
 2440              		.cfi_offset 3, -8
 2441              		.cfi_offset 14, -4
1490:.\Generated_Source\PSoC4/W5100.c **** 	/*
1491:.\Generated_Source\PSoC4/W5100.c **** 	 * Start a open socket listening for a connection
1492:.\Generated_Source\PSoC4/W5100.c **** 	 */
1493:.\Generated_Source\PSoC4/W5100.c **** 	/* was this a valid socket? */
1494:.\Generated_Source\PSoC4/W5100.c **** 	if (socket < 4) {
 2442              		.loc 1 1494 0
 2443 0002 0328     		cmp	r0, #3
 2444 0004 02D8     		bhi	.L174
1495:.\Generated_Source\PSoC4/W5100.c **** 		/* Execute the listen command */
1496:.\Generated_Source\PSoC4/W5100.c **** 		W5100_ExecuteSocketCommand( socket, 0x02 );
 2445              		.loc 1 1496 0
 2446 0006 0221     		mov	r1, #2
 2447 0008 FFF7FEFF 		bl	W5100_ExecuteSocketCommand
 2448              	.LVL302:
 2449              	.L174:
1497:.\Generated_Source\PSoC4/W5100.c **** 	}
ARM GAS  C:\Users\CHUCK~1.ERH\AppData\Local\Temp\cc506n3q.s 			page 76


1498:.\Generated_Source\PSoC4/W5100.c **** }
 2450              		.loc 1 1498 0
 2451              		@ sp needed for prologue
 2452 000c 08BD     		pop	{r3, pc}
 2453              		.cfi_endproc
 2454              	.LFE92:
 2455              		.size	W5100_TcpStartServer, .-W5100_TcpStartServer
 2456              		.section	.text.W5100_TcpStartServerWait,"ax",%progbits
 2457              		.align	1
 2458              		.global	W5100_TcpStartServerWait
 2459              		.code	16
 2460              		.thumb_func
 2461              		.type	W5100_TcpStartServerWait, %function
 2462              	W5100_TcpStartServerWait:
 2463              	.LFB93:
1499:.\Generated_Source\PSoC4/W5100.c **** /* ------------------------------------------------------------------------ */
1500:.\Generated_Source\PSoC4/W5100.c **** void
1501:.\Generated_Source\PSoC4/W5100.c **** W5100_TcpStartServerWait( uint8 socket )
1502:.\Generated_Source\PSoC4/W5100.c **** {
 2464              		.loc 1 1502 0
 2465              		.cfi_startproc
 2466              	.LVL303:
 2467 0000 10B5     		push	{r4, lr}
 2468              	.LCFI32:
 2469              		.cfi_def_cfa_offset 8
 2470              		.cfi_offset 4, -8
 2471              		.cfi_offset 14, -4
 2472              		.loc 1 1502 0
 2473 0002 041C     		mov	r4, r0
1503:.\Generated_Source\PSoC4/W5100.c **** 	W5100_TcpStartServer(socket);
 2474              		.loc 1 1503 0
 2475 0004 FFF7FEFF 		bl	W5100_TcpStartServer
 2476              	.LVL304:
 2477              	.L177:
1504:.\Generated_Source\PSoC4/W5100.c **** 	/* wait for socket establishment */
1505:.\Generated_Source\PSoC4/W5100.c **** 	while ( !W5100_SocketEstablished(socket) ) {
 2478              		.loc 1 1505 0 discriminator 1
 2479 0008 201C     		mov	r0, r4
 2480 000a FFF7FEFF 		bl	W5100_SocketEstablished
 2481              	.LVL305:
 2482 000e 0028     		cmp	r0, #0
 2483 0010 03D1     		bne	.L179
 2484              	.L178:
1506:.\Generated_Source\PSoC4/W5100.c **** 		CyDelay(1);
 2485              		.loc 1 1506 0
 2486 0012 0120     		mov	r0, #1
 2487 0014 FFF7FEFF 		bl	CyDelay
 2488              	.LVL306:
 2489 0018 F6E7     		b	.L177
 2490              	.L179:
1507:.\Generated_Source\PSoC4/W5100.c **** 	}
1508:.\Generated_Source\PSoC4/W5100.c **** }
 2491              		.loc 1 1508 0
 2492              		@ sp needed for prologue
 2493 001a 10BD     		pop	{r4, pc}
 2494              		.cfi_endproc
 2495              	.LFE93:
ARM GAS  C:\Users\CHUCK~1.ERH\AppData\Local\Temp\cc506n3q.s 			page 77


 2496              		.size	W5100_TcpStartServerWait, .-W5100_TcpStartServerWait
 2497              		.section	.text.W5100_TcpConnect,"ax",%progbits
 2498              		.align	1
 2499              		.global	W5100_TcpConnect
 2500              		.code	16
 2501              		.thumb_func
 2502              		.type	W5100_TcpConnect, %function
 2503              	W5100_TcpConnect:
 2504              	.LFB94:
1509:.\Generated_Source\PSoC4/W5100.c **** /* ------------------------------------------------------------------------ */
1510:.\Generated_Source\PSoC4/W5100.c **** void
1511:.\Generated_Source\PSoC4/W5100.c **** W5100_TcpConnect( uint8 socket, uint32 ip, uint16 port )
1512:.\Generated_Source\PSoC4/W5100.c **** {
 2505              		.loc 1 1512 0
 2506              		.cfi_startproc
 2507              	.LVL307:
 2508 0000 F8B5     		push	{r3, r4, r5, r6, r7, lr}
 2509              	.LCFI33:
 2510              		.cfi_def_cfa_offset 24
 2511              		.cfi_offset 3, -24
 2512              		.cfi_offset 4, -20
 2513              		.cfi_offset 5, -16
 2514              		.cfi_offset 6, -12
 2515              		.cfi_offset 7, -8
 2516              		.cfi_offset 14, -4
1513:.\Generated_Source\PSoC4/W5100.c **** 	uint32 timeout;
1514:.\Generated_Source\PSoC4/W5100.c **** 	uint8 ir;
1515:.\Generated_Source\PSoC4/W5100.c **** 	
1516:.\Generated_Source\PSoC4/W5100.c **** 	if ( (ip != 0xFFFFFFFF) && (ip != 0) ) {
 2517              		.loc 1 1516 0
 2518 0002 4B1E     		sub	r3, r1, #1
1512:.\Generated_Source\PSoC4/W5100.c **** {
 2519              		.loc 1 1512 0
 2520 0004 061C     		mov	r6, r0
 2521 0006 171C     		mov	r7, r2
 2522              		.loc 1 1516 0
 2523 0008 0333     		add	r3, r3, #3
 2524 000a 2ED8     		bhi	.L180
 2525              	.LVL308:
 2526              	.LBB182:
 2527              	.LBB183:
 732:.\Generated_Source\PSoC4/W5100.c **** { W5100_W51_SetIP(W5100_SOCKET_BASE(socket)+12,ip); }
 2528              		.loc 1 732 0
 2529 000c 0502     		lsl	r5, r0, #8
 2530 000e 1748     		ldr	r0, .L188
 2531              	.LVL309:
 2532 0010 2A18     		add	r2, r5, r0
 2533              	.LVL310:
 2534 0012 90B2     		uxth	r0, r2
 2535 0014 FFF7FEFF 		bl	W5100_W51_SetIP
 2536              	.LVL311:
 2537              	.LBE183:
 2538              	.LBE182:
 2539              	.LBB184:
 2540              	.LBB185:
 748:.\Generated_Source\PSoC4/W5100.c **** { W5100_W51_Write16( W5100_SOCKET_BASE(socket)+16, port); }
 2541              		.loc 1 748 0
ARM GAS  C:\Users\CHUCK~1.ERH\AppData\Local\Temp\cc506n3q.s 			page 78


 2542 0018 8221     		mov	r1, #130
 2543 001a CB00     		lsl	r3, r1, #3
 2544 001c E818     		add	r0, r5, r3
 2545 001e 391C     		mov	r1, r7
 2546 0020 80B2     		uxth	r0, r0
 2547 0022 FFF7FEFF 		bl	W5100_W51_Write16
 2548              	.LVL312:
 2549              	.LBE185:
 2550              	.LBE184:
 2551              	.LBB186:
 2552              	.LBB187:
 491:.\Generated_Source\PSoC4/W5100.c **** static void W5100_SetSubnetMask( uint32 ip ) { W5100_W51_SetIP(5, ip); }
 2553              		.loc 1 491 0
 2554 0026 124F     		ldr	r7, .L188+4
 2555              	.LVL313:
 2556 0028 0520     		mov	r0, #5
 2557 002a 3968     		ldr	r1, [r7]
 2558 002c FFF7FEFF 		bl	W5100_W51_SetIP
 2559              	.LVL314:
 2560              	.LBE187:
 2561              	.LBE186:
1517:.\Generated_Source\PSoC4/W5100.c **** 		W5100_SetSocketDestIP( socket, ip );
1518:.\Generated_Source\PSoC4/W5100.c **** 		W5100_SetSocketDestPort( socket, port );
1519:.\Generated_Source\PSoC4/W5100.c **** 		/* set socket subnet mask */
1520:.\Generated_Source\PSoC4/W5100.c **** 		W5100_SetSubnetMask( W5100_SubnetMask );
1521:.\Generated_Source\PSoC4/W5100.c **** 		W5100_ExecuteSocketCommand( socket, 0x04);
 2562              		.loc 1 1521 0
 2563 0030 301C     		mov	r0, r6
 2564 0032 0421     		mov	r1, #4
 2565 0034 FFF7FEFF 		bl	W5100_ExecuteSocketCommand
 2566              	.LVL315:
 2567              	.L187:
1522:.\Generated_Source\PSoC4/W5100.c **** 		/* wait for the socket connection to the remote host is established */
1523:.\Generated_Source\PSoC4/W5100.c **** 		while ( (!W5100_SocketEstablished(socket))  && (timeout < 3000) ) {
 2568              		.loc 1 1523 0 discriminator 1
 2569 0038 301C     		mov	r0, r6
 2570 003a FFF7FEFF 		bl	W5100_SocketEstablished
 2571              	.LVL316:
 2572 003e 0028     		cmp	r0, #0
 2573 0040 0FD1     		bne	.L184
 2574              		.loc 1 1523 0 is_stmt 0 discriminator 2
 2575 0042 0C4F     		ldr	r7, .L188+8
 2576 0044 BC42     		cmp	r4, r7
 2577 0046 0CD0     		beq	.L184
 2578              	.L185:
1524:.\Generated_Source\PSoC4/W5100.c **** 			CyDelay(1);
 2579              		.loc 1 1524 0 is_stmt 1
 2580 0048 0120     		mov	r0, #1
 2581 004a FFF7FEFF 		bl	CyDelay
 2582              	.LVL317:
 2583              	.LBB188:
 2584              	.LBB189:
 676:.\Generated_Source\PSoC4/W5100.c **** { return W5100_W51_Read(W5100_SOCKET_BASE(socket)+2); }
 2585              		.loc 1 676 0
 2586 004e 0A4A     		ldr	r2, .L188+12
 2587              	.LBE189:
 2588              	.LBE188:
ARM GAS  C:\Users\CHUCK~1.ERH\AppData\Local\Temp\cc506n3q.s 			page 79


1525:.\Generated_Source\PSoC4/W5100.c **** 			++timeout;
 2589              		.loc 1 1525 0
 2590 0050 0134     		add	r4, r4, #1
 2591              	.LVL318:
 2592              	.LBB191:
 2593              	.LBB190:
 676:.\Generated_Source\PSoC4/W5100.c **** { return W5100_W51_Read(W5100_SOCKET_BASE(socket)+2); }
 2594              		.loc 1 676 0
 2595 0052 A918     		add	r1, r5, r2
 2596 0054 88B2     		uxth	r0, r1
 2597 0056 FFF7FEFF 		bl	W5100_W51_Read
 2598              	.LVL319:
 2599              	.LBE190:
 2600              	.LBE191:
1526:.\Generated_Source\PSoC4/W5100.c **** 			ir = W5100_GetSocketIR( socket );
1527:.\Generated_Source\PSoC4/W5100.c **** 			if ( (ir & 0x08) != 0 ) {
 2601              		.loc 1 1527 0
 2602 005a 0307     		lsl	r3, r0, #28
 2603 005c ECD5     		bpl	.L187
1528:.\Generated_Source\PSoC4/W5100.c **** 				/* internal chip timeout occured */
1529:.\Generated_Source\PSoC4/W5100.c **** 				timeout = 3000;
 2604              		.loc 1 1529 0
 2605 005e 3C1C     		mov	r4, r7
 2606              	.LVL320:
 2607 0060 EAE7     		b	.L187
 2608              	.LVL321:
 2609              	.L184:
 2610              	.LBB192:
 2611              	.LBB193:
 491:.\Generated_Source\PSoC4/W5100.c **** static void W5100_SetSubnetMask( uint32 ip ) { W5100_W51_SetIP(5, ip); }
 2612              		.loc 1 491 0
 2613 0062 0520     		mov	r0, #5
 2614 0064 0021     		mov	r1, #0
 2615 0066 FFF7FEFF 		bl	W5100_W51_SetIP
 2616              	.LVL322:
 2617              	.L180:
 2618              	.LBE193:
 2619              	.LBE192:
1530:.\Generated_Source\PSoC4/W5100.c **** 			}
1531:.\Generated_Source\PSoC4/W5100.c **** 		}
1532:.\Generated_Source\PSoC4/W5100.c **** 		/* clear the Subnet mask register */
1533:.\Generated_Source\PSoC4/W5100.c **** 		W5100_SetSubnetMask(0);
1534:.\Generated_Source\PSoC4/W5100.c **** 	}
1535:.\Generated_Source\PSoC4/W5100.c **** }
 2620              		.loc 1 1535 0
 2621              		@ sp needed for prologue
 2622 006a F8BD     		pop	{r3, r4, r5, r6, r7, pc}
 2623              	.L189:
 2624              		.align	2
 2625              	.L188:
 2626 006c 0C040000 		.word	1036
 2627 0070 00000000 		.word	.LANCHOR0
 2628 0074 B80B0000 		.word	3000
 2629 0078 02040000 		.word	1026
 2630              		.cfi_endproc
 2631              	.LFE94:
 2632              		.size	W5100_TcpConnect, .-W5100_TcpConnect
ARM GAS  C:\Users\CHUCK~1.ERH\AppData\Local\Temp\cc506n3q.s 			page 80


 2633              		.section	.text.W5100_TcpConnected,"ax",%progbits
 2634              		.align	1
 2635              		.global	W5100_TcpConnected
 2636              		.code	16
 2637              		.thumb_func
 2638              		.type	W5100_TcpConnected, %function
 2639              	W5100_TcpConnected:
 2640              	.LFB95:
1536:.\Generated_Source\PSoC4/W5100.c **** /* ------------------------------------------------------------------------ */
1537:.\Generated_Source\PSoC4/W5100.c **** uint8
1538:.\Generated_Source\PSoC4/W5100.c **** W5100_TcpConnected( uint8 socket )
1539:.\Generated_Source\PSoC4/W5100.c **** { return W5100_SocketEstablished(socket); }
 2641              		.loc 1 1539 0
 2642              		.cfi_startproc
 2643              	.LVL323:
 2644 0000 08B5     		push	{r3, lr}
 2645              	.LCFI34:
 2646              		.cfi_def_cfa_offset 8
 2647              		.cfi_offset 3, -8
 2648              		.cfi_offset 14, -4
 2649              		.loc 1 1539 0
 2650 0002 FFF7FEFF 		bl	W5100_SocketEstablished
 2651              	.LVL324:
 2652              		@ sp needed for prologue
 2653 0006 08BD     		pop	{r3, pc}
 2654              		.cfi_endproc
 2655              	.LFE95:
 2656              		.size	W5100_TcpConnected, .-W5100_TcpConnected
 2657              		.section	.text.W5100_TcpDisconnect,"ax",%progbits
 2658              		.align	1
 2659              		.global	W5100_TcpDisconnect
 2660              		.code	16
 2661              		.thumb_func
 2662              		.type	W5100_TcpDisconnect, %function
 2663              	W5100_TcpDisconnect:
 2664              	.LFB96:
1540:.\Generated_Source\PSoC4/W5100.c **** /* ------------------------------------------------------------------------ */
1541:.\Generated_Source\PSoC4/W5100.c **** void
1542:.\Generated_Source\PSoC4/W5100.c **** W5100_TcpDisconnect( uint8 socket )
1543:.\Generated_Source\PSoC4/W5100.c **** {
 2665              		.loc 1 1543 0
 2666              		.cfi_startproc
 2667              	.LVL325:
 2668 0000 08B5     		push	{r3, lr}
 2669              	.LCFI35:
 2670              		.cfi_def_cfa_offset 8
 2671              		.cfi_offset 3, -8
 2672              		.cfi_offset 14, -4
1544:.\Generated_Source\PSoC4/W5100.c **** 	W5100_ExecuteSocketCommand(socket, 0x08);
 2673              		.loc 1 1544 0
 2674 0002 0821     		mov	r1, #8
 2675 0004 FFF7FEFF 		bl	W5100_ExecuteSocketCommand
 2676              	.LVL326:
1545:.\Generated_Source\PSoC4/W5100.c **** }
 2677              		.loc 1 1545 0
 2678              		@ sp needed for prologue
 2679 0008 08BD     		pop	{r3, pc}
ARM GAS  C:\Users\CHUCK~1.ERH\AppData\Local\Temp\cc506n3q.s 			page 81


 2680              		.cfi_endproc
 2681              	.LFE96:
 2682              		.size	W5100_TcpDisconnect, .-W5100_TcpDisconnect
 2683              		.section	.text.W5100_TcpSend,"ax",%progbits
 2684              		.align	1
 2685              		.global	W5100_TcpSend
 2686              		.code	16
 2687              		.thumb_func
 2688              		.type	W5100_TcpSend, %function
 2689              	W5100_TcpSend:
 2690              	.LFB97:
1546:.\Generated_Source\PSoC4/W5100.c **** /* ------------------------------------------------------------------------ */
1547:.\Generated_Source\PSoC4/W5100.c **** uint16
1548:.\Generated_Source\PSoC4/W5100.c **** W5100_TcpSend(uint8 socket, uint8* buffer, uint16 len)
1549:.\Generated_Source\PSoC4/W5100.c **** {
 2691              		.loc 1 1549 0
 2692              		.cfi_startproc
 2693              	.LVL327:
 2694 0000 F7B5     		push	{r0, r1, r2, r4, r5, r6, r7, lr}
 2695              	.LCFI36:
 2696              		.cfi_def_cfa_offset 32
 2697              		.cfi_offset 0, -32
 2698              		.cfi_offset 1, -28
 2699              		.cfi_offset 2, -24
 2700              		.cfi_offset 4, -20
 2701              		.cfi_offset 5, -16
 2702              		.cfi_offset 6, -12
 2703              		.cfi_offset 7, -8
 2704              		.cfi_offset 14, -4
 2705              		.loc 1 1549 0
 2706 0002 041C     		mov	r4, r0
 2707 0004 0191     		str	r1, [sp, #4]
 2708 0006 161C     		mov	r6, r2
 2709              	.LVL328:
1550:.\Generated_Source\PSoC4/W5100.c **** 	uint16 TxSize;
1551:.\Generated_Source\PSoC4/W5100.c **** 	uint16 FreeSpace;
1552:.\Generated_Source\PSoC4/W5100.c **** 	uint8 status;
1553:.\Generated_Source\PSoC4/W5100.c **** 	
1554:.\Generated_Source\PSoC4/W5100.c **** 	TxSize =  (len > 0x0800) ? 0x0800 : len;
1555:.\Generated_Source\PSoC4/W5100.c **** 	/* check the connection status, and protocol of the socket */
1556:.\Generated_Source\PSoC4/W5100.c **** 	status = W5100_GetSocketStatus(socket);
 2710              		.loc 1 1556 0
 2711 0008 FFF7FEFF 		bl	W5100_GetSocketStatus
 2712              	.LVL329:
1557:.\Generated_Source\PSoC4/W5100.c **** 	if ( ( status == 0x17) && (W5100_SocketConfig[socket].Protocol == W5100_PROTO_TCP) ) {
1558:.\Generated_Source\PSoC4/W5100.c **** 		/* 
1559:.\Generated_Source\PSoC4/W5100.c **** 		 * The socket was open with the correct protocol and is connected to
1560:.\Generated_Source\PSoC4/W5100.c **** 		 * a valid remote system. In order to send the requested packet data,
1561:.\Generated_Source\PSoC4/W5100.c **** 		 * first, we must wait for the available buffer memory to be free
1562:.\Generated_Source\PSoC4/W5100.c **** 		 * in the transmit buffer fifo.
1563:.\Generated_Source\PSoC4/W5100.c **** 		 */
1564:.\Generated_Source\PSoC4/W5100.c **** 		FreeSpace = 0;
1565:.\Generated_Source\PSoC4/W5100.c **** 		status = 0x17;
1566:.\Generated_Source\PSoC4/W5100.c **** 		while ( (FreeSpace < TxSize) && ( (status == 0x17) && (status != 0x1C) ) ) {
1567:.\Generated_Source\PSoC4/W5100.c **** 			FreeSpace = W5100_GetTxFreeSize( socket );
1568:.\Generated_Source\PSoC4/W5100.c **** 			status = W5100_GetSocketStatus( socket );
1569:.\Generated_Source\PSoC4/W5100.c **** 		}
