ARM GAS  C:\Users\CHUCK~1.ERH\AppData\Local\Temp\cc506n3q.s 			page 1


   1              		.cpu cortex-m0
   2              		.fpu softvfp
   3              		.eabi_attribute 20, 1
   4              		.eabi_attribute 21, 1
   5              		.eabi_attribute 23, 3
   6              		.eabi_attribute 24, 1
   7              		.eabi_attribute 25, 1
   8              		.eabi_attribute 26, 1
   9              		.eabi_attribute 30, 4
  10              		.eabi_attribute 34, 0
  11              		.eabi_attribute 18, 4
  12              		.code	16
  13              		.file	"W5100.c"
  14              		.text
  15              	.Ltext0:
  16              		.cfi_sections	.debug_frame
  17              		.section	.text.W5100_W51_Write,"ax",%progbits
  18              		.align	1
  19              		.global	W5100_W51_Write
  20              		.code	16
  21              		.thumb_func
  22              		.type	W5100_W51_Write, %function
  23              	W5100_W51_Write:
  24              	.LFB1:
  25              		.file 1 ".\\Generated_Source\\PSoC4\\W5100.c"
   1:.\Generated_Source\PSoC4/W5100.c **** /**
   2:.\Generated_Source\PSoC4/W5100.c ****  * \addtogroup w5100
   3:.\Generated_Source\PSoC4/W5100.c ****  * @{
   4:.\Generated_Source\PSoC4/W5100.c ****  */
   5:.\Generated_Source\PSoC4/W5100.c **** 
   6:.\Generated_Source\PSoC4/W5100.c **** /**
   7:.\Generated_Source\PSoC4/W5100.c ****  * \file Driver implementation for interfacing with the W5100 device
   8:.\Generated_Source\PSoC4/W5100.c ****  * \author Chuck Erhardt (chuck@e2forlife.com)
   9:.\Generated_Source\PSoC4/W5100.c ****  *
  10:.\Generated_Source\PSoC4/W5100.c ****  * This file contains the main driver implementation for control
  11:.\Generated_Source\PSoC4/W5100.c ****  * of the W5100 device.
  12:.\Generated_Source\PSoC4/W5100.c **** */
  13:.\Generated_Source\PSoC4/W5100.c **** 
  14:.\Generated_Source\PSoC4/W5100.c **** /*
  15:.\Generated_Source\PSoC4/W5100.c ****  * Change Log:
  16:.\Generated_Source\PSoC4/W5100.c ****  * 
  17:.\Generated_Source\PSoC4/W5100.c ****  * V1.1
  18:.\Generated_Source\PSoC4/W5100.c ****  * - Modified the SPI access function to remove hard wait for READ_WRITE_DELAY  <CE>
  19:.\Generated_Source\PSoC4/W5100.c ****  * - Removed READ_WRITE_DELAY Parameter <CE>
  20:.\Generated_Source\PSoC4/W5100.c ****  * - Added validator to SS_NUM parameter to ensure that the value is the range 0-3 <CE>
  21:.\Generated_Source\PSoC4/W5100.c ****  * - Removed "inline" keywords from interal register access function to promote
  22:.\Generated_Source\PSoC4/W5100.c ****  *   compatibility with Keil PSoC3 compilers that don't support them. <CE>
  23:.\Generated_Source\PSoC4/W5100.c ****  * - Fixed bug in _ProcessRxData() that caused the read pointer not to be updated without
  24:.\Generated_Source\PSoC4/W5100.c ****  *   the lookahead flag being set. <CE>
  25:.\Generated_Source\PSoC4/W5100.c ****  * V1.2
  26:.\Generated_Source\PSoC4/W5100.c ****  * - Added _STS_SPI_IDLE flag to _SpiDone conditions to prevent deadlocking that
  27:.\Generated_Source\PSoC4/W5100.c ****  *   was occuring during the first read or write using the SPI device (SPIM moded) <CE>
  28:.\Generated_Source\PSoC4/W5100.c ****  * - Removed the check for SOCKET_ESTABLISHED at the start of the TcpReceive
  29:.\Generated_Source\PSoC4/W5100.c ****  *   function to allow for reading received socket data after the socket was dropped
  30:.\Generated_Source\PSoC4/W5100.c ****  *   by the remote server.  It was brought to my attention that this occurs when
  31:.\Generated_Source\PSoC4/W5100.c ****  *   operating with client connection to HTTP servers. <CE>
  32:.\Generated_Source\PSoC4/W5100.c ****  * - Added a MAC address parser and MAC to String Converter. <CE>
ARM GAS  C:\Users\CHUCK~1.ERH\AppData\Local\Temp\cc506n3q.s 			page 2


  33:.\Generated_Source\PSoC4/W5100.c ****  */
  34:.\Generated_Source\PSoC4/W5100.c **** 
  35:.\Generated_Source\PSoC4/W5100.c **** /* Cypress library includes */
  36:.\Generated_Source\PSoC4/W5100.c **** #include <cytypes.h>
  37:.\Generated_Source\PSoC4/W5100.c **** #include <cylib.h>
  38:.\Generated_Source\PSoC4/W5100.c **** 
  39:.\Generated_Source\PSoC4/W5100.c **** /*  include functions and types for the driver */
  40:.\Generated_Source\PSoC4/W5100.c **** #include "W5100.h"
  41:.\Generated_Source\PSoC4/W5100.c **** /* include the serial interface functions */
  42:.\Generated_Source\PSoC4/W5100.c **** #include <SPI.h>
  43:.\Generated_Source\PSoC4/W5100.c **** 
  44:.\Generated_Source\PSoC4/W5100.c **** extern uint8 SPI_initVar;
  45:.\Generated_Source\PSoC4/W5100.c **** 
  46:.\Generated_Source\PSoC4/W5100.c **** typedef struct
  47:.\Generated_Source\PSoC4/W5100.c **** {
  48:.\Generated_Source\PSoC4/W5100.c **** 	uint8  Protocol;
  49:.\Generated_Source\PSoC4/W5100.c **** 	uint8  SocketFlags;
  50:.\Generated_Source\PSoC4/W5100.c **** 	uint16 SourcePort;
  51:.\Generated_Source\PSoC4/W5100.c **** 	uint8  ServerFlag;
  52:.\Generated_Source\PSoC4/W5100.c **** } W5100_SOCKET;
  53:.\Generated_Source\PSoC4/W5100.c **** 
  54:.\Generated_Source\PSoC4/W5100.c **** #define W5100_SOCKET_TX_BASE(s)    ( 0x4000 + (s<<15) )
  55:.\Generated_Source\PSoC4/W5100.c **** #define W5100_SOCKET_RX_BASE(s)    ( 0x6000 + (s<<15) )
  56:.\Generated_Source\PSoC4/W5100.c **** 
  57:.\Generated_Source\PSoC4/W5100.c **** static W5100_SOCKET W5100_SocketConfig[4];
  58:.\Generated_Source\PSoC4/W5100.c **** static uint32 W5100_SubnetMask;
  59:.\Generated_Source\PSoC4/W5100.c **** 
  60:.\Generated_Source\PSoC4/W5100.c **** static uint8 W5100_MAC[6]; /* V1.2: removed = {00-DE-AD-BE-EF-00}; */
  61:.\Generated_Source\PSoC4/W5100.c **** 
  62:.\Generated_Source\PSoC4/W5100.c **** /* ------------------------------------------------------------------------ */
  63:.\Generated_Source\PSoC4/W5100.c **** /* V1.2 HEX digit conversion tools for MAC Address parsing */
  64:.\Generated_Source\PSoC4/W5100.c **** #define W5100_ISXDIGIT(x) \
  65:.\Generated_Source\PSoC4/W5100.c **** ( ((x>='0')&&(x<='9'))||((x>='a')&&(x<='f'))||((x>='A')&&(x<='F')) )
  66:.\Generated_Source\PSoC4/W5100.c **** /* ------------------------------------------------------------------------ */
  67:.\Generated_Source\PSoC4/W5100.c **** #define W5100_HEX2BIN(x) \
  68:.\Generated_Source\PSoC4/W5100.c **** ( ((x>='0')&&(x<='9'))? (x-'0') : \
  69:.\Generated_Source\PSoC4/W5100.c ****   ((x>='a')&&(x<='f'))? ((x-'a')+10) : \
  70:.\Generated_Source\PSoC4/W5100.c ****   ((x>='A')&&(x<='F'))? ((x-'A')+10) : 0 )
  71:.\Generated_Source\PSoC4/W5100.c **** /* ------------------------------------------------------------------------ */
  72:.\Generated_Source\PSoC4/W5100.c **** #define W5100_BIN2HEX(x) \
  73:.\Generated_Source\PSoC4/W5100.c **** ( (x>9)? ((x-10)+'A') : (x + '0'))
  74:.\Generated_Source\PSoC4/W5100.c **** /* END V1.2 defines */
  75:.\Generated_Source\PSoC4/W5100.c **** /* ------------------------------------------------------------------------ */
  76:.\Generated_Source\PSoC4/W5100.c **** 
  77:.\Generated_Source\PSoC4/W5100.c **** /* ======================================================================== */
  78:.\Generated_Source\PSoC4/W5100.c **** /* Generic SPI Functions */
  79:.\Generated_Source\PSoC4/W5100.c **** /*
  80:.\Generated_Source\PSoC4/W5100.c ****  * NOTE: when using the SPIM, there must be a buffer length of at least 4
  81:.\Generated_Source\PSoC4/W5100.c ****  * bytes to allow the transfer/receive cycle for each read/write operation
  82:.\Generated_Source\PSoC4/W5100.c ****  * to be contained within the FIFO buffer.
  83:.\Generated_Source\PSoC4/W5100.c ****  */
  84:.\Generated_Source\PSoC4/W5100.c **** #if !defined(CY_SCB_SPI_H)
  85:.\Generated_Source\PSoC4/W5100.c **** /* ------------------------------------------------------------------------ */	
  86:.\Generated_Source\PSoC4/W5100.c **** /* V1.1 : Macro definition for the SpiDone flag. */
  87:.\Generated_Source\PSoC4/W5100.c **** /*  
  88:.\Generated_Source\PSoC4/W5100.c **** 	V1.2 : Added SPI_IDLE flag to the condition for done to eliminate
  89:.\Generated_Source\PSoC4/W5100.c **** 	deadlocking when IDLE but not done.  This seems to occur during the
ARM GAS  C:\Users\CHUCK~1.ERH\AppData\Local\Temp\cc506n3q.s 			page 3


  90:.\Generated_Source\PSoC4/W5100.c **** 	initial write/read to/from the SPI port.
  91:.\Generated_Source\PSoC4/W5100.c **** */
  92:.\Generated_Source\PSoC4/W5100.c **** /**
  93:.\Generated_Source\PSoC4/W5100.c ****  * \brief Macro to determine the state of the spi done
  94:.\Generated_Source\PSoC4/W5100.c ****  * This macro reads the status register of the transmitter and masks off the doen bit.
  95:.\Generated_Source\PSoC4/W5100.c ****  */
  96:.\Generated_Source\PSoC4/W5100.c **** #define W5100_SpiDone     (SPI_ReadTxStatus() & (SPI_STS_SPI_DONE | SPI_STS_SPI_IDLE))
  97:.\Generated_Source\PSoC4/W5100.c **** /* ------------------------------------------------------------------------ */
  98:.\Generated_Source\PSoC4/W5100.c **** /**
  99:.\Generated_Source\PSoC4/W5100.c ****  * \brief Select the active SCB chip select connected to the W51
 100:.\Generated_Source\PSoC4/W5100.c ****  *
 101:.\Generated_Source\PSoC4/W5100.c ****  * this fucntion will set the active SS line within the SCB to select and
 102:.\Generated_Source\PSoC4/W5100.c ****  * communicate with the W5100 device.
 103:.\Generated_Source\PSoC4/W5100.c ****  * \note this functions requires that the device chip select is originating
 104:.\Generated_Source\PSoC4/W5100.c ****  *  from the SPI device.
 105:.\Generated_Source\PSoC4/W5100.c ****  */
 106:.\Generated_Source\PSoC4/W5100.c **** static void W5100_W51_Select( void )
 107:.\Generated_Source\PSoC4/W5100.c **** {
 108:.\Generated_Source\PSoC4/W5100.c **** 	/*
 109:.\Generated_Source\PSoC4/W5100.c **** 	 * User code for setting the chip select enable.  This is called once
 110:.\Generated_Source\PSoC4/W5100.c **** 	 * at the beginning of each tranfer to/from the W5100, so we recommend
 111:.\Generated_Source\PSoC4/W5100.c **** 	 * either doing nothing (SPIM SS straight out), or to switch the demux
 112:.\Generated_Source\PSoC4/W5100.c **** 	 * component to select the correct output for the SS routing.  This
 113:.\Generated_Source\PSoC4/W5100.c **** 	 * should probably not drive a pin directly since there is no return
 114:.\Generated_Source\PSoC4/W5100.c **** 	 * call from the driver that would allow an enable/disable type of
 115:.\Generated_Source\PSoC4/W5100.c **** 	 * implementation for CSN control.
 116:.\Generated_Source\PSoC4/W5100.c **** 	 */
 117:.\Generated_Source\PSoC4/W5100.c **** 	/* `#START CHIP_SELECT_GENERATION` */
 118:.\Generated_Source\PSoC4/W5100.c **** 
 119:.\Generated_Source\PSoC4/W5100.c **** 	/* `#END` */
 120:.\Generated_Source\PSoC4/W5100.c **** }
 121:.\Generated_Source\PSoC4/W5100.c **** /* ------------------------------------------------------------------------ */
 122:.\Generated_Source\PSoC4/W5100.c **** /**
 123:.\Generated_Source\PSoC4/W5100.c ****  * \brief write Data to the W5100 at the specified address
 124:.\Generated_Source\PSoC4/W5100.c ****  * \param addr Address of register or memory buffer
 125:.\Generated_Source\PSoC4/W5100.c ****  * \param dat Data to write to the device
 126:.\Generated_Source\PSoC4/W5100.c ****  *
 127:.\Generated_Source\PSoC4/W5100.c ****  * This function will send the WRITE opcode, address and data to the W5100
 128:.\Generated_Source\PSoC4/W5100.c ****  * in order to write the data to the specified register.
 129:.\Generated_Source\PSoC4/W5100.c ****  */
 130:.\Generated_Source\PSoC4/W5100.c **** void W5100_W51_Write(uint16 addr, uint8 dat)
 131:.\Generated_Source\PSoC4/W5100.c **** {
 132:.\Generated_Source\PSoC4/W5100.c **** 	/* V1.1: Wait for SPI operation to complete */
 133:.\Generated_Source\PSoC4/W5100.c **** 	while( W5100_SpiDone == 0) {
 134:.\Generated_Source\PSoC4/W5100.c **** 		CyDelayUs(1);
 135:.\Generated_Source\PSoC4/W5100.c **** 	}
 136:.\Generated_Source\PSoC4/W5100.c **** 	/* V1.1: End change */
 137:.\Generated_Source\PSoC4/W5100.c **** 	
 138:.\Generated_Source\PSoC4/W5100.c **** 	/* Using internal device SS generation */
 139:.\Generated_Source\PSoC4/W5100.c **** 	W5100_W51_Select();
 140:.\Generated_Source\PSoC4/W5100.c **** 	/*
 141:.\Generated_Source\PSoC4/W5100.c **** 	 * The first thing to do is to clear the Rx Buffer of any lingering
 142:.\Generated_Source\PSoC4/W5100.c **** 	 * data left from other transfers.  Then send the data per the W5100
 143:.\Generated_Source\PSoC4/W5100.c **** 	 * datasheet p.62
 144:.\Generated_Source\PSoC4/W5100.c **** 	 */
 145:.\Generated_Source\PSoC4/W5100.c **** 	SPI_ClearRxBuffer();
 146:.\Generated_Source\PSoC4/W5100.c **** 	/* Begin transfer of data to device */
ARM GAS  C:\Users\CHUCK~1.ERH\AppData\Local\Temp\cc506n3q.s 			page 4


 147:.\Generated_Source\PSoC4/W5100.c **** 	SPI_WriteTxData(W5100_WRITE_OP);
 148:.\Generated_Source\PSoC4/W5100.c **** 	SPI_WriteTxData((addr>>8)&0x00FF);
 149:.\Generated_Source\PSoC4/W5100.c **** 	SPI_WriteTxData(addr&0x00FF);
 150:.\Generated_Source\PSoC4/W5100.c **** 	SPI_WriteTxData(dat);
 151:.\Generated_Source\PSoC4/W5100.c **** 
 152:.\Generated_Source\PSoC4/W5100.c **** }
 153:.\Generated_Source\PSoC4/W5100.c **** 
 154:.\Generated_Source\PSoC4/W5100.c **** /* ------------------------------------------------------------------------ */
 155:.\Generated_Source\PSoC4/W5100.c **** /**
 156:.\Generated_Source\PSoC4/W5100.c ****  * \brief Read data from the W5100 at the spsecified address
 157:.\Generated_Source\PSoC4/W5100.c ****  * \param addr Address from which to read
 158:.\Generated_Source\PSoC4/W5100.c ****  * \returns the data read from the address
 159:.\Generated_Source\PSoC4/W5100.c ****  *
 160:.\Generated_Source\PSoC4/W5100.c ****  * this fucntion will access a W5100 memory location and read the contents
 161:.\Generated_Source\PSoC4/W5100.c ****  * using the serial protocol specified on P.61 of the datasheet.
 162:.\Generated_Source\PSoC4/W5100.c ****  */
 163:.\Generated_Source\PSoC4/W5100.c **** uint8 W5100_W51_Read(uint16 addr)
 164:.\Generated_Source\PSoC4/W5100.c **** {
 165:.\Generated_Source\PSoC4/W5100.c **** 	uint32 dat;
 166:.\Generated_Source\PSoC4/W5100.c **** 	uint32 count;
 167:.\Generated_Source\PSoC4/W5100.c **** 	
 168:.\Generated_Source\PSoC4/W5100.c **** 	/* V1.1: Wait for SPI operation to complete */
 169:.\Generated_Source\PSoC4/W5100.c **** 	while( W5100_SpiDone == 0) {
 170:.\Generated_Source\PSoC4/W5100.c **** 		CyDelayUs(1);
 171:.\Generated_Source\PSoC4/W5100.c **** 	}
 172:.\Generated_Source\PSoC4/W5100.c **** 	/* V1.1: End change */
 173:.\Generated_Source\PSoC4/W5100.c **** 
 174:.\Generated_Source\PSoC4/W5100.c **** 	/* Using internal device SS generation */
 175:.\Generated_Source\PSoC4/W5100.c **** 	W5100_W51_Select();
 176:.\Generated_Source\PSoC4/W5100.c **** 	/*
 177:.\Generated_Source\PSoC4/W5100.c **** 	 * First, clear the Rx Buffer of any waiting data.  Then begin the
 178:.\Generated_Source\PSoC4/W5100.c **** 	 * read operation by sending the op code, followed byte the address
 179:.\Generated_Source\PSoC4/W5100.c **** 	 * from which the read will be executed, then send a dummy byte
 180:.\Generated_Source\PSoC4/W5100.c **** 	 * of zeros to read the data from the device.
 181:.\Generated_Source\PSoC4/W5100.c **** 	 */
 182:.\Generated_Source\PSoC4/W5100.c **** 	SPI_ClearRxBuffer();
 183:.\Generated_Source\PSoC4/W5100.c **** 	/* Begin data read */
 184:.\Generated_Source\PSoC4/W5100.c **** 	SPI_WriteTxData(W5100_READ_OP);
 185:.\Generated_Source\PSoC4/W5100.c **** 	SPI_WriteTxData(addr>>8);
 186:.\Generated_Source\PSoC4/W5100.c **** 	SPI_WriteTxData(addr&0x00FF);
 187:.\Generated_Source\PSoC4/W5100.c **** 	SPI_WriteTxData( 0 );
 188:.\Generated_Source\PSoC4/W5100.c **** 	
 189:.\Generated_Source\PSoC4/W5100.c **** 	/* Wait for operations to complete. */
 190:.\Generated_Source\PSoC4/W5100.c **** 	/* V1.1: Wait for SPI operation to complete */
 191:.\Generated_Source\PSoC4/W5100.c **** 	while( W5100_SpiDone == 0) {
 192:.\Generated_Source\PSoC4/W5100.c **** 		CyDelayUs(1);
 193:.\Generated_Source\PSoC4/W5100.c **** 	}
 194:.\Generated_Source\PSoC4/W5100.c **** 	/* V1.1: End change */
 195:.\Generated_Source\PSoC4/W5100.c **** 
 196:.\Generated_Source\PSoC4/W5100.c **** 	count = SPI_GetRxBufferSize();
 197:.\Generated_Source\PSoC4/W5100.c **** 	while( count > 0 )
 198:.\Generated_Source\PSoC4/W5100.c **** 	{
 199:.\Generated_Source\PSoC4/W5100.c **** 		dat = SPI_ReadRxData(); 
 200:.\Generated_Source\PSoC4/W5100.c **** 		count = SPI_GetRxBufferSize();
 201:.\Generated_Source\PSoC4/W5100.c **** 	}
 202:.\Generated_Source\PSoC4/W5100.c **** 	
 203:.\Generated_Source\PSoC4/W5100.c **** 	return( dat&0xFF );
ARM GAS  C:\Users\CHUCK~1.ERH\AppData\Local\Temp\cc506n3q.s 			page 5


 204:.\Generated_Source\PSoC4/W5100.c **** }
 205:.\Generated_Source\PSoC4/W5100.c **** /* ======================================================================== */
 206:.\Generated_Source\PSoC4/W5100.c **** /* SCB Specific Functions */
 207:.\Generated_Source\PSoC4/W5100.c **** #else
 208:.\Generated_Source\PSoC4/W5100.c **** /* include SPI function header for the SCB */
 209:.\Generated_Source\PSoC4/W5100.c **** #include <SPI_SPI_UART.h>
 210:.\Generated_Source\PSoC4/W5100.c **** 
 211:.\Generated_Source\PSoC4/W5100.c **** /* V1.1 : Include the header for the select pin used. */
 212:.\Generated_Source\PSoC4/W5100.c **** #if (1 == 0)
 213:.\Generated_Source\PSoC4/W5100.c **** #include <SPI_ss0_m.h>
 214:.\Generated_Source\PSoC4/W5100.c **** #define W5100_SpiDone    (SPI_ss0_m_Read())
 215:.\Generated_Source\PSoC4/W5100.c **** #elif (1 == 1)
 216:.\Generated_Source\PSoC4/W5100.c **** #include <SPI_ss1_m.h>
 217:.\Generated_Source\PSoC4/W5100.c **** #define W5100_SpiDone    (SPI_ss1_m_Read())
 218:.\Generated_Source\PSoC4/W5100.c **** #elif (1 == 2)
 219:.\Generated_Source\PSoC4/W5100.c **** #include <SPI_ss2_m.h>
 220:.\Generated_Source\PSoC4/W5100.c **** #define W5100_SpiDone    (SPI_ss2_m_Read())
 221:.\Generated_Source\PSoC4/W5100.c **** #elif (1 == 3)
 222:.\Generated_Source\PSoC4/W5100.c **** #include <SPI_ss3_m.h>
 223:.\Generated_Source\PSoC4/W5100.c **** #define W5100_SpiDone    (SPI_ss3_m_Read())
 224:.\Generated_Source\PSoC4/W5100.c **** #else
 225:.\Generated_Source\PSoC4/W5100.c **** #include <SPI_ss0_m.h>
 226:.\Generated_Source\PSoC4/W5100.c **** #define W5100_SpiDone    (SPI_ss0_m_Read())
 227:.\Generated_Source\PSoC4/W5100.c **** #endif
 228:.\Generated_Source\PSoC4/W5100.c **** /* ------------------------------------------------------------------------ */
 229:.\Generated_Source\PSoC4/W5100.c **** /**
 230:.\Generated_Source\PSoC4/W5100.c ****  * \brief Select the active SCB chip select connected to the W51
 231:.\Generated_Source\PSoC4/W5100.c ****  *
 232:.\Generated_Source\PSoC4/W5100.c ****  * this fucntion will set the active SS line within the SCB to select and
 233:.\Generated_Source\PSoC4/W5100.c ****  * communicate with the W5100 device.
 234:.\Generated_Source\PSoC4/W5100.c ****  */
 235:.\Generated_Source\PSoC4/W5100.c **** static void W5100_W51_Select( void )
 236:.\Generated_Source\PSoC4/W5100.c **** {
 237:.\Generated_Source\PSoC4/W5100.c **** #if (1 == 0)
 238:.\Generated_Source\PSoC4/W5100.c **** 	SPI_SpiSetActiveSlaveSelect( SPI_SPIM_ACTIVE_SS0 );
 239:.\Generated_Source\PSoC4/W5100.c **** #elif (1 == 1)
 240:.\Generated_Source\PSoC4/W5100.c **** 	SPI_SpiSetActiveSlaveSelect( SPI_SPIM_ACTIVE_SS1 );
 241:.\Generated_Source\PSoC4/W5100.c **** #elif (1 == 2)
 242:.\Generated_Source\PSoC4/W5100.c **** 	SPI_SpiSetActiveSlaveSelect( SPI_SPIM_ACTIVE_SS2 );
 243:.\Generated_Source\PSoC4/W5100.c **** #elif (1 == 3)
 244:.\Generated_Source\PSoC4/W5100.c **** 	SPI_SpiSetActiveSlaveSelect( SPI_SPIM_ACTIVE_SS3 );
 245:.\Generated_Source\PSoC4/W5100.c **** #else
 246:.\Generated_Source\PSoC4/W5100.c **** 		SPI_SpiSetActiveSlaveSelect(0);
 247:.\Generated_Source\PSoC4/W5100.c **** #endif
 248:.\Generated_Source\PSoC4/W5100.c **** }
 249:.\Generated_Source\PSoC4/W5100.c **** /* ------------------------------------------------------------------------ */
 250:.\Generated_Source\PSoC4/W5100.c **** /**
 251:.\Generated_Source\PSoC4/W5100.c ****  * \brief write Data to the W5100 at the specified address
 252:.\Generated_Source\PSoC4/W5100.c ****  * \param addr Address of register or memory buffer
 253:.\Generated_Source\PSoC4/W5100.c ****  * \param dat Data to write to the device
 254:.\Generated_Source\PSoC4/W5100.c ****  *
 255:.\Generated_Source\PSoC4/W5100.c ****  * This function will send the WRITE opcode, address and data to the W5100
 256:.\Generated_Source\PSoC4/W5100.c ****  * in order to write the data to the specified register.
 257:.\Generated_Source\PSoC4/W5100.c ****  */
 258:.\Generated_Source\PSoC4/W5100.c **** void W5100_W51_Write(uint16 addr, uint8 dat)
 259:.\Generated_Source\PSoC4/W5100.c **** {
  26              		.loc 1 259 0
ARM GAS  C:\Users\CHUCK~1.ERH\AppData\Local\Temp\cc506n3q.s 			page 6


  27              		.cfi_startproc
  28              	.LVL0:
  29 0000 38B5     		push	{r3, r4, r5, lr}
  30              	.LCFI0:
  31              		.cfi_def_cfa_offset 16
  32              		.cfi_offset 3, -16
  33              		.cfi_offset 4, -12
  34              		.cfi_offset 5, -8
  35              		.cfi_offset 14, -4
  36 0002 041C     		mov	r4, r0
  37 0004 0D1C     		mov	r5, r1
  38              	.LVL1:
  39              	.L2:
 260:.\Generated_Source\PSoC4/W5100.c **** 	/* V1.1: Wait for SPI operation to complete */
 261:.\Generated_Source\PSoC4/W5100.c **** 	while( W5100_SpiDone == 0) {
  40              		.loc 1 261 0 discriminator 1
  41 0006 FFF7FEFF 		bl	SPI_ss1_m_Read
  42              	.LVL2:
  43 000a 0028     		cmp	r0, #0
  44 000c 03D1     		bne	.L5
  45              	.L3:
 262:.\Generated_Source\PSoC4/W5100.c **** 		CyDelayUs(1);
  46              		.loc 1 262 0
  47 000e 0120     		mov	r0, #1
  48 0010 FFF7FEFF 		bl	CyDelayUs
  49              	.LVL3:
  50 0014 F7E7     		b	.L2
  51              	.L5:
  52              	.LBB4:
  53              	.LBB5:
 240:.\Generated_Source\PSoC4/W5100.c **** 	SPI_SpiSetActiveSlaveSelect( SPI_SPIM_ACTIVE_SS1 );
  54              		.loc 1 240 0
  55 0016 0120     		mov	r0, #1
  56 0018 FFF7FEFF 		bl	SPI_SpiSetActiveSlaveSelect
  57              	.LVL4:
  58              	.LBE5:
  59              	.LBE4:
 263:.\Generated_Source\PSoC4/W5100.c **** 	}
 264:.\Generated_Source\PSoC4/W5100.c **** 	/* V1.1: End change */
 265:.\Generated_Source\PSoC4/W5100.c **** 
 266:.\Generated_Source\PSoC4/W5100.c **** 	/* Using internal device SS generation */
 267:.\Generated_Source\PSoC4/W5100.c **** 	W5100_W51_Select();
 268:.\Generated_Source\PSoC4/W5100.c **** 	/*
 269:.\Generated_Source\PSoC4/W5100.c **** 	 * The first thing to do is to clear the Rx Buffer of any lingering
 270:.\Generated_Source\PSoC4/W5100.c **** 	 * data left from other transfers.  Then send the data per the W5100
 271:.\Generated_Source\PSoC4/W5100.c **** 	 * datasheet p.62
 272:.\Generated_Source\PSoC4/W5100.c **** 	 */
 273:.\Generated_Source\PSoC4/W5100.c **** 	SPI_SpiUartClearRxBuffer();
  60              		.loc 1 273 0
  61 001c FFF7FEFF 		bl	SPI_SpiUartClearRxBuffer
  62              	.LVL5:
 274:.\Generated_Source\PSoC4/W5100.c **** 	/* Begin transfer of data to device */
 275:.\Generated_Source\PSoC4/W5100.c **** 	SPI_SpiUartWriteTxData(W5100_WRITE_OP);
  63              		.loc 1 275 0
  64 0020 F020     		mov	r0, #240
  65 0022 FFF7FEFF 		bl	SPI_SpiUartWriteTxData
  66              	.LVL6:
ARM GAS  C:\Users\CHUCK~1.ERH\AppData\Local\Temp\cc506n3q.s 			page 7


 276:.\Generated_Source\PSoC4/W5100.c **** 	SPI_SpiUartWriteTxData((addr>>8)&0x00FF);
  67              		.loc 1 276 0
  68 0026 200A     		lsr	r0, r4, #8
  69 0028 FFF7FEFF 		bl	SPI_SpiUartWriteTxData
  70              	.LVL7:
 277:.\Generated_Source\PSoC4/W5100.c **** 	SPI_SpiUartWriteTxData(addr&0x00FF);
  71              		.loc 1 277 0
  72 002c E0B2     		uxtb	r0, r4
  73 002e FFF7FEFF 		bl	SPI_SpiUartWriteTxData
  74              	.LVL8:
 278:.\Generated_Source\PSoC4/W5100.c **** 	SPI_SpiUartWriteTxData(dat);
  75              		.loc 1 278 0
  76 0032 281C     		mov	r0, r5
  77 0034 FFF7FEFF 		bl	SPI_SpiUartWriteTxData
  78              	.LVL9:
 279:.\Generated_Source\PSoC4/W5100.c **** }
  79              		.loc 1 279 0
  80              		@ sp needed for prologue
  81 0038 38BD     		pop	{r3, r4, r5, pc}
  82              		.cfi_endproc
  83              	.LFE1:
  84              		.size	W5100_W51_Write, .-W5100_W51_Write
  85              		.section	.text.W5100_W51_Write16,"ax",%progbits
  86              		.align	1
  87              		.code	16
  88              		.thumb_func
  89              		.type	W5100_W51_Write16, %function
  90              	W5100_W51_Write16:
  91              	.LFB7:
 280:.\Generated_Source\PSoC4/W5100.c **** /* ------------------------------------------------------------------------ */
 281:.\Generated_Source\PSoC4/W5100.c **** /**
 282:.\Generated_Source\PSoC4/W5100.c ****  * \brief Read data from the W5100 at the spsecified address
 283:.\Generated_Source\PSoC4/W5100.c ****  * \param addr Address from which to read
 284:.\Generated_Source\PSoC4/W5100.c ****  * \returns the data read from the address
 285:.\Generated_Source\PSoC4/W5100.c ****  *
 286:.\Generated_Source\PSoC4/W5100.c ****  * this fucntion will access a W5100 memory location and read the contents
 287:.\Generated_Source\PSoC4/W5100.c ****  * using the serial protocol specified on P.61 of the datasheet.
 288:.\Generated_Source\PSoC4/W5100.c ****  */
 289:.\Generated_Source\PSoC4/W5100.c **** uint8 W5100_W51_Read(uint16 addr)
 290:.\Generated_Source\PSoC4/W5100.c **** {
 291:.\Generated_Source\PSoC4/W5100.c **** 	uint32 dat;
 292:.\Generated_Source\PSoC4/W5100.c **** 	uint32 count;
 293:.\Generated_Source\PSoC4/W5100.c **** 	
 294:.\Generated_Source\PSoC4/W5100.c **** 	/* V1.1: Wait for SPI operation to complete */
 295:.\Generated_Source\PSoC4/W5100.c **** 	while( W5100_SpiDone == 0) {
 296:.\Generated_Source\PSoC4/W5100.c **** 		CyDelayUs(1);
 297:.\Generated_Source\PSoC4/W5100.c **** 	}
 298:.\Generated_Source\PSoC4/W5100.c **** 	/* V1.1: End change */
 299:.\Generated_Source\PSoC4/W5100.c **** 
 300:.\Generated_Source\PSoC4/W5100.c **** 	/* Using internal device SS generation */
 301:.\Generated_Source\PSoC4/W5100.c **** 	W5100_W51_Select();
 302:.\Generated_Source\PSoC4/W5100.c **** 	/*
 303:.\Generated_Source\PSoC4/W5100.c **** 	 * First, clear the Rx Buffer of any waiting data.  Then begin the
 304:.\Generated_Source\PSoC4/W5100.c **** 	 * read operation by sending the op code, followed byte the address
 305:.\Generated_Source\PSoC4/W5100.c **** 	 * from which the read will be executed, then send a dummy byte
 306:.\Generated_Source\PSoC4/W5100.c **** 	 * of zeros to read the data from the device.
 307:.\Generated_Source\PSoC4/W5100.c **** 	 */
ARM GAS  C:\Users\CHUCK~1.ERH\AppData\Local\Temp\cc506n3q.s 			page 8


 308:.\Generated_Source\PSoC4/W5100.c **** 	SPI_SpiUartClearRxBuffer();
 309:.\Generated_Source\PSoC4/W5100.c **** 	/* Begin data read */
 310:.\Generated_Source\PSoC4/W5100.c **** 	SPI_SpiUartWriteTxData(W5100_READ_OP);
 311:.\Generated_Source\PSoC4/W5100.c **** 	SPI_SpiUartWriteTxData(addr>>8);
 312:.\Generated_Source\PSoC4/W5100.c **** 	SPI_SpiUartWriteTxData(addr&0x00FF);
 313:.\Generated_Source\PSoC4/W5100.c **** 	SPI_SpiUartWriteTxData( 0 );
 314:.\Generated_Source\PSoC4/W5100.c **** 	/* Wait for operations to complete. */
 315:.\Generated_Source\PSoC4/W5100.c **** 	/* V1.1: Wait for SPI operation to complete */
 316:.\Generated_Source\PSoC4/W5100.c **** 	while( W5100_SpiDone == 0) {
 317:.\Generated_Source\PSoC4/W5100.c **** 		CyDelayUs(1);
 318:.\Generated_Source\PSoC4/W5100.c **** 	}
 319:.\Generated_Source\PSoC4/W5100.c **** 	/* V1.1: End change */
 320:.\Generated_Source\PSoC4/W5100.c **** 
 321:.\Generated_Source\PSoC4/W5100.c **** 	count = SPI_SpiUartGetRxBufferSize();
 322:.\Generated_Source\PSoC4/W5100.c **** 	while( count > 0 )
 323:.\Generated_Source\PSoC4/W5100.c **** 	{
 324:.\Generated_Source\PSoC4/W5100.c **** 		dat = SPI_SpiUartReadRxData(); 
 325:.\Generated_Source\PSoC4/W5100.c **** 		count = SPI_SpiUartGetRxBufferSize();
 326:.\Generated_Source\PSoC4/W5100.c **** 	}
 327:.\Generated_Source\PSoC4/W5100.c **** 	
 328:.\Generated_Source\PSoC4/W5100.c **** 	return( dat&0xFF );
 329:.\Generated_Source\PSoC4/W5100.c **** }
 330:.\Generated_Source\PSoC4/W5100.c **** 
 331:.\Generated_Source\PSoC4/W5100.c **** #endif
 332:.\Generated_Source\PSoC4/W5100.c **** 
 333:.\Generated_Source\PSoC4/W5100.c **** /* ======================================================================== */
 334:.\Generated_Source\PSoC4/W5100.c **** /* W5100 Register Access Primitaves */
 335:.\Generated_Source\PSoC4/W5100.c **** #if (1)
 336:.\Generated_Source\PSoC4/W5100.c **** /* ------------------------------------------------------------------------ */
 337:.\Generated_Source\PSoC4/W5100.c **** /**
 338:.\Generated_Source\PSoC4/W5100.c ****  * \brief Write a MAC (hardware) address to a group of registers
 339:.\Generated_Source\PSoC4/W5100.c ****  * \param addr The starting address of the registers/memory for the MAC address
 340:.\Generated_Source\PSoC4/W5100.c ****  * \param *mac pointer to the array of bytes holding the MAC address.
 341:.\Generated_Source\PSoC4/W5100.c ****  */
 342:.\Generated_Source\PSoC4/W5100.c **** static void W5100_W51_SetMAC(uint16 addr, uint8 *mac)
 343:.\Generated_Source\PSoC4/W5100.c **** {
 344:.\Generated_Source\PSoC4/W5100.c **** 	uint32 index;
 345:.\Generated_Source\PSoC4/W5100.c **** 	
 346:.\Generated_Source\PSoC4/W5100.c **** 	for(index = 0;index<6;++index)
 347:.\Generated_Source\PSoC4/W5100.c **** 	{
 348:.\Generated_Source\PSoC4/W5100.c **** 		W5100_W51_Write(addr+index,mac[index]);
 349:.\Generated_Source\PSoC4/W5100.c **** 	}
 350:.\Generated_Source\PSoC4/W5100.c **** }
 351:.\Generated_Source\PSoC4/W5100.c **** /* ------------------------------------------------------------------------ */
 352:.\Generated_Source\PSoC4/W5100.c **** /**
 353:.\Generated_Source\PSoC4/W5100.c ****  * \brief Read a MAC (hardware) address from a set of registers.
 354:.\Generated_Source\PSoC4/W5100.c ****  * \param addr the address from which the data will be read
 355:.\Generated_Source\PSoC4/W5100.c ****  * \param *mac pointer to the array of bytes to hold the output mac address.
 356:.\Generated_Source\PSoC4/W5100.c ****  */
 357:.\Generated_Source\PSoC4/W5100.c **** static void W5100_W51_GetMAC( uint16 addr, uint8* mac )
 358:.\Generated_Source\PSoC4/W5100.c **** {
 359:.\Generated_Source\PSoC4/W5100.c **** 	uint32 index;
 360:.\Generated_Source\PSoC4/W5100.c **** 	for(index=0;index<6;++index) {
 361:.\Generated_Source\PSoC4/W5100.c **** 		mac[index] = W5100_W51_Read(addr+index);
 362:.\Generated_Source\PSoC4/W5100.c **** 	}
 363:.\Generated_Source\PSoC4/W5100.c **** }
 364:.\Generated_Source\PSoC4/W5100.c **** /* ------------------------------------------------------------------------ */
ARM GAS  C:\Users\CHUCK~1.ERH\AppData\Local\Temp\cc506n3q.s 			page 9


 365:.\Generated_Source\PSoC4/W5100.c **** /**
 366:.\Generated_Source\PSoC4/W5100.c ****  * \brief Write an IPv4 address to the device.
 367:.\Generated_Source\PSoC4/W5100.c ****  * \param addr the address of the memory/registers to write the IPv4 Address
 368:.\Generated_Source\PSoC4/W5100.c ****  * \param ip the IP address to write
 369:.\Generated_Source\PSoC4/W5100.c ****  */
 370:.\Generated_Source\PSoC4/W5100.c **** static void W5100_W51_SetIP( uint16 addr, uint32 ip )
 371:.\Generated_Source\PSoC4/W5100.c **** {
 372:.\Generated_Source\PSoC4/W5100.c **** 	uint32 index;
 373:.\Generated_Source\PSoC4/W5100.c **** 	uint8* buffer;
 374:.\Generated_Source\PSoC4/W5100.c **** 
 375:.\Generated_Source\PSoC4/W5100.c **** 	buffer = (uint8*)&ip;
 376:.\Generated_Source\PSoC4/W5100.c **** 	for(index = 0;index<4;++index) {
 377:.\Generated_Source\PSoC4/W5100.c **** 		W5100_W51_Write(addr+index,buffer[index]);
 378:.\Generated_Source\PSoC4/W5100.c **** 	}
 379:.\Generated_Source\PSoC4/W5100.c **** }
 380:.\Generated_Source\PSoC4/W5100.c **** /* ------------------------------------------------------------------------ */
 381:.\Generated_Source\PSoC4/W5100.c **** /**
 382:.\Generated_Source\PSoC4/W5100.c ****  * \brief Read an IPv4 address from a set of registers
 383:.\Generated_Source\PSoC4/W5100.c ****  * \param addr the address from which the IP address will be retrieved.
 384:.\Generated_Source\PSoC4/W5100.c ****  * \returns the IP address read from the device.
 385:.\Generated_Source\PSoC4/W5100.c ****  */
 386:.\Generated_Source\PSoC4/W5100.c **** static uint32 W5100_W51_GetIP( uint16 addr )
 387:.\Generated_Source\PSoC4/W5100.c **** {
 388:.\Generated_Source\PSoC4/W5100.c **** 	uint8 buffer[4];
 389:.\Generated_Source\PSoC4/W5100.c **** 	int index;
 390:.\Generated_Source\PSoC4/W5100.c **** 	uint32* ip;
 391:.\Generated_Source\PSoC4/W5100.c **** 	
 392:.\Generated_Source\PSoC4/W5100.c **** 	ip = (uint32*) &buffer[0];
 393:.\Generated_Source\PSoC4/W5100.c **** 	*ip = 0;
 394:.\Generated_Source\PSoC4/W5100.c **** 	for(index=0;index<4;++index) {
 395:.\Generated_Source\PSoC4/W5100.c **** 		buffer[index] = W5100_W51_Read(addr+index);
 396:.\Generated_Source\PSoC4/W5100.c **** 	}
 397:.\Generated_Source\PSoC4/W5100.c **** 	return( *ip );
 398:.\Generated_Source\PSoC4/W5100.c **** }
 399:.\Generated_Source\PSoC4/W5100.c **** /* ------------------------------------------------------------------------ */
 400:.\Generated_Source\PSoC4/W5100.c **** /**
 401:.\Generated_Source\PSoC4/W5100.c ****  * \brief Write a 16-bit word to the device
 402:.\Generated_Source\PSoC4/W5100.c ****  * \param addr the starting address to which the data will be written
 403:.\Generated_Source\PSoC4/W5100.c ****  * \param val the 16-bit value to write
 404:.\Generated_Source\PSoC4/W5100.c ****  */
 405:.\Generated_Source\PSoC4/W5100.c **** static void W5100_W51_Write16( uint16 addr, uint16 val )
 406:.\Generated_Source\PSoC4/W5100.c **** {
  92              		.loc 1 406 0
  93              		.cfi_startproc
  94              	.LVL10:
  95 0000 38B5     		push	{r3, r4, r5, lr}
  96              	.LCFI1:
  97              		.cfi_def_cfa_offset 16
  98              		.cfi_offset 3, -16
  99              		.cfi_offset 4, -12
 100              		.cfi_offset 5, -8
 101              		.cfi_offset 14, -4
 102              		.loc 1 406 0
 103 0002 051C     		mov	r5, r0
 104 0004 0C1C     		mov	r4, r1
 407:.\Generated_Source\PSoC4/W5100.c **** 	W5100_W51_Write( addr, val>>8);
 408:.\Generated_Source\PSoC4/W5100.c **** 	W5100_W51_Write( addr + 1, val&0x00FF);
ARM GAS  C:\Users\CHUCK~1.ERH\AppData\Local\Temp\cc506n3q.s 			page 10


 105              		.loc 1 408 0
 106 0006 0135     		add	r5, r5, #1
 407:.\Generated_Source\PSoC4/W5100.c **** 	W5100_W51_Write( addr, val>>8);
 107              		.loc 1 407 0
 108 0008 090A     		lsr	r1, r1, #8
 109              	.LVL11:
 110 000a FFF7FEFF 		bl	W5100_W51_Write
 111              	.LVL12:
 112              		.loc 1 408 0
 113 000e A8B2     		uxth	r0, r5
 114 0010 E1B2     		uxtb	r1, r4
 115 0012 FFF7FEFF 		bl	W5100_W51_Write
 116              	.LVL13:
 409:.\Generated_Source\PSoC4/W5100.c **** }
 117              		.loc 1 409 0
 118              		@ sp needed for prologue
 119 0016 38BD     		pop	{r3, r4, r5, pc}
 120              		.cfi_endproc
 121              	.LFE7:
 122              		.size	W5100_W51_Write16, .-W5100_W51_Write16
 123              		.section	.text.W5100_W51_SetIP,"ax",%progbits
 124              		.align	1
 125              		.code	16
 126              		.thumb_func
 127              		.type	W5100_W51_SetIP, %function
 128              	W5100_W51_SetIP:
 129              	.LFB5:
 371:.\Generated_Source\PSoC4/W5100.c **** {
 130              		.loc 1 371 0
 131              		.cfi_startproc
 132              	.LVL14:
 133 0000 37B5     		push	{r0, r1, r2, r4, r5, lr}
 134              	.LCFI2:
 135              		.cfi_def_cfa_offset 24
 136              		.cfi_offset 0, -24
 137              		.cfi_offset 1, -20
 138              		.cfi_offset 2, -16
 139              		.cfi_offset 4, -12
 140              		.cfi_offset 5, -8
 141              		.cfi_offset 14, -4
 142              	.LVL15:
 371:.\Generated_Source\PSoC4/W5100.c **** {
 143              		.loc 1 371 0
 144 0002 051C     		mov	r5, r0
 145              	.LVL16:
 146 0004 0191     		str	r1, [sp, #4]
 376:.\Generated_Source\PSoC4/W5100.c **** 	for(index = 0;index<4;++index) {
 147              		.loc 1 376 0
 148 0006 0024     		mov	r4, #0
 149              	.LVL17:
 150              	.L8:
 370:.\Generated_Source\PSoC4/W5100.c **** static void W5100_W51_SetIP( uint16 addr, uint32 ip )
 151              		.loc 1 370 0 discriminator 2
 152 0008 2819     		add	r0, r5, r4
 377:.\Generated_Source\PSoC4/W5100.c **** 		W5100_W51_Write(addr+index,buffer[index]);
 153              		.loc 1 377 0 discriminator 2
 154 000a 01AB     		add	r3, sp, #4
ARM GAS  C:\Users\CHUCK~1.ERH\AppData\Local\Temp\cc506n3q.s 			page 11


 155              	.LVL18:
 156 000c E15C     		ldrb	r1, [r4, r3]
 157 000e 80B2     		uxth	r0, r0
 376:.\Generated_Source\PSoC4/W5100.c **** 	for(index = 0;index<4;++index) {
 158              		.loc 1 376 0 discriminator 2
 159 0010 0134     		add	r4, r4, #1
 377:.\Generated_Source\PSoC4/W5100.c **** 		W5100_W51_Write(addr+index,buffer[index]);
 160              		.loc 1 377 0 discriminator 2
 161 0012 FFF7FEFF 		bl	W5100_W51_Write
 162              	.LVL19:
 376:.\Generated_Source\PSoC4/W5100.c **** 	for(index = 0;index<4;++index) {
 163              		.loc 1 376 0 discriminator 2
 164 0016 042C     		cmp	r4, #4
 165 0018 F6D1     		bne	.L8
 379:.\Generated_Source\PSoC4/W5100.c **** }
 166              		.loc 1 379 0
 167              		@ sp needed for prologue
 168              	.LVL20:
 169 001a 37BD     		pop	{r0, r1, r2, r4, r5, pc}
 170              		.cfi_endproc
 171              	.LFE5:
 172              		.size	W5100_W51_SetIP, .-W5100_W51_SetIP
 173              		.section	.text.W5100_W51_WriteBlock,"ax",%progbits
 174              		.align	1
 175              		.code	16
 176              		.thumb_func
 177              		.type	W5100_W51_WriteBlock, %function
 178              	W5100_W51_WriteBlock:
 179              	.LFB9:
 410:.\Generated_Source\PSoC4/W5100.c **** /* ------------------------------------------------------------------------ */
 411:.\Generated_Source\PSoC4/W5100.c **** /**
 412:.\Generated_Source\PSoC4/W5100.c ****  * \brief Read a 16-bit value from the device
 413:.\Generated_Source\PSoC4/W5100.c ****  * \param addr The starting address from which data will be read
 414:.\Generated_Source\PSoC4/W5100.c ****  * \returns the 16-bit value read from the memory.
 415:.\Generated_Source\PSoC4/W5100.c ****  */
 416:.\Generated_Source\PSoC4/W5100.c **** static uint16 W5100_W51_Read16( uint16 addr )
 417:.\Generated_Source\PSoC4/W5100.c **** {
 418:.\Generated_Source\PSoC4/W5100.c **** 	uint16 val;
 419:.\Generated_Source\PSoC4/W5100.c **** 	
 420:.\Generated_Source\PSoC4/W5100.c **** 	val = W5100_W51_Read( addr );
 421:.\Generated_Source\PSoC4/W5100.c **** 	val <<= 8;
 422:.\Generated_Source\PSoC4/W5100.c **** 	val += W5100_W51_Read( addr + 1);
 423:.\Generated_Source\PSoC4/W5100.c **** 	
 424:.\Generated_Source\PSoC4/W5100.c **** 	return( val );
 425:.\Generated_Source\PSoC4/W5100.c **** }
 426:.\Generated_Source\PSoC4/W5100.c **** /* ------------------------------------------------------------------------ */
 427:.\Generated_Source\PSoC4/W5100.c **** /**
 428:.\Generated_Source\PSoC4/W5100.c ****  * \brief Write a block of data to consecutive memory addresses
 429:.\Generated_Source\PSoC4/W5100.c ****  * \param addr the starting address of the write
 430:.\Generated_Source\PSoC4/W5100.c ****  * \param *buffer pointer to the data buffer holding the data to write
 431:.\Generated_Source\PSoC4/W5100.c ****  * \param length the length of data to be written
 432:.\Generated_Source\PSoC4/W5100.c ****  */
 433:.\Generated_Source\PSoC4/W5100.c **** static void W5100_W51_WriteBlock(uint16 addr, uint8* buffer, uint16 length)
 434:.\Generated_Source\PSoC4/W5100.c **** {
 180              		.loc 1 434 0
 181              		.cfi_startproc
 182              	.LVL21:
ARM GAS  C:\Users\CHUCK~1.ERH\AppData\Local\Temp\cc506n3q.s 			page 12


 183 0000 F8B5     		push	{r3, r4, r5, r6, r7, lr}
 184              	.LCFI3:
 185              		.cfi_def_cfa_offset 24
 186              		.cfi_offset 3, -24
 187              		.cfi_offset 4, -20
 188              		.cfi_offset 5, -16
 189              		.cfi_offset 6, -12
 190              		.cfi_offset 7, -8
 191              		.cfi_offset 14, -4
 192              		.loc 1 434 0
 193 0002 061C     		mov	r6, r0
 194 0004 0F1C     		mov	r7, r1
 195 0006 151C     		mov	r5, r2
 435:.\Generated_Source\PSoC4/W5100.c **** 	int index;
 436:.\Generated_Source\PSoC4/W5100.c **** 	for(index=0;index<length;++index) {
 196              		.loc 1 436 0
 197 0008 0024     		mov	r4, #0
 198              	.LVL22:
 199              	.L11:
 200              		.loc 1 436 0 is_stmt 0 discriminator 1
 201 000a AC42     		cmp	r4, r5
 202 000c 06DA     		bge	.L13
 203              	.L12:
 433:.\Generated_Source\PSoC4/W5100.c **** static void W5100_W51_WriteBlock(uint16 addr, uint8* buffer, uint16 length)
 204              		.loc 1 433 0 is_stmt 1 discriminator 2
 205 000e 3019     		add	r0, r6, r4
 437:.\Generated_Source\PSoC4/W5100.c **** 		W5100_W51_Write(addr+index,buffer[index]);
 206              		.loc 1 437 0 discriminator 2
 207 0010 395D     		ldrb	r1, [r7, r4]
 208 0012 80B2     		uxth	r0, r0
 209 0014 FFF7FEFF 		bl	W5100_W51_Write
 210              	.LVL23:
 436:.\Generated_Source\PSoC4/W5100.c **** 	for(index=0;index<length;++index) {
 211              		.loc 1 436 0 discriminator 2
 212 0018 0134     		add	r4, r4, #1
 213              	.LVL24:
 214 001a F6E7     		b	.L11
 215              	.L13:
 438:.\Generated_Source\PSoC4/W5100.c **** 	}
 439:.\Generated_Source\PSoC4/W5100.c **** }
 216              		.loc 1 439 0
 217              		@ sp needed for prologue
 218              	.LVL25:
 219              	.LVL26:
 220 001c F8BD     		pop	{r3, r4, r5, r6, r7, pc}
 221              		.cfi_endproc
 222              	.LFE9:
 223              		.size	W5100_W51_WriteBlock, .-W5100_W51_WriteBlock
 224              		.section	.text.W5100_W51_Read,"ax",%progbits
 225              		.align	1
 226              		.global	W5100_W51_Read
 227              		.code	16
 228              		.thumb_func
 229              		.type	W5100_W51_Read, %function
 230              	W5100_W51_Read:
 231              	.LFB2:
 290:.\Generated_Source\PSoC4/W5100.c **** {
ARM GAS  C:\Users\CHUCK~1.ERH\AppData\Local\Temp\cc506n3q.s 			page 13


 232              		.loc 1 290 0
 233              		.cfi_startproc
 234              	.LVL27:
 235 0000 38B5     		push	{r3, r4, r5, lr}
 236              	.LCFI4:
 237              		.cfi_def_cfa_offset 16
 238              		.cfi_offset 3, -16
 239              		.cfi_offset 4, -12
 240              		.cfi_offset 5, -8
 241              		.cfi_offset 14, -4
 242 0002 041C     		mov	r4, r0
 243              	.LVL28:
 244              	.L15:
 295:.\Generated_Source\PSoC4/W5100.c **** 	while( W5100_SpiDone == 0) {
 245              		.loc 1 295 0 discriminator 1
 246 0004 FFF7FEFF 		bl	SPI_ss1_m_Read
 247              	.LVL29:
 248 0008 0028     		cmp	r0, #0
 249 000a 03D1     		bne	.L22
 250              	.L16:
 296:.\Generated_Source\PSoC4/W5100.c **** 		CyDelayUs(1);
 251              		.loc 1 296 0
 252 000c 0120     		mov	r0, #1
 253 000e FFF7FEFF 		bl	CyDelayUs
 254              	.LVL30:
 255 0012 F7E7     		b	.L15
 256              	.L22:
 257              	.LBB8:
 258              	.LBB9:
 240:.\Generated_Source\PSoC4/W5100.c **** 	SPI_SpiSetActiveSlaveSelect( SPI_SPIM_ACTIVE_SS1 );
 259              		.loc 1 240 0
 260 0014 0120     		mov	r0, #1
 261 0016 FFF7FEFF 		bl	SPI_SpiSetActiveSlaveSelect
 262              	.LVL31:
 263              	.LBE9:
 264              	.LBE8:
 308:.\Generated_Source\PSoC4/W5100.c **** 	SPI_SpiUartClearRxBuffer();
 265              		.loc 1 308 0
 266 001a FFF7FEFF 		bl	SPI_SpiUartClearRxBuffer
 267              	.LVL32:
 310:.\Generated_Source\PSoC4/W5100.c **** 	SPI_SpiUartWriteTxData(W5100_READ_OP);
 268              		.loc 1 310 0
 269 001e 0F20     		mov	r0, #15
 270 0020 FFF7FEFF 		bl	SPI_SpiUartWriteTxData
 271              	.LVL33:
 311:.\Generated_Source\PSoC4/W5100.c **** 	SPI_SpiUartWriteTxData(addr>>8);
 272              		.loc 1 311 0
 273 0024 200A     		lsr	r0, r4, #8
 274 0026 FFF7FEFF 		bl	SPI_SpiUartWriteTxData
 275              	.LVL34:
 312:.\Generated_Source\PSoC4/W5100.c **** 	SPI_SpiUartWriteTxData(addr&0x00FF);
 276              		.loc 1 312 0
 277 002a E0B2     		uxtb	r0, r4
 278 002c FFF7FEFF 		bl	SPI_SpiUartWriteTxData
 279              	.LVL35:
 313:.\Generated_Source\PSoC4/W5100.c **** 	SPI_SpiUartWriteTxData( 0 );
 280              		.loc 1 313 0
ARM GAS  C:\Users\CHUCK~1.ERH\AppData\Local\Temp\cc506n3q.s 			page 14


 281 0030 0020     		mov	r0, #0
 282 0032 FFF7FEFF 		bl	SPI_SpiUartWriteTxData
 283              	.LVL36:
 284              	.L17:
 316:.\Generated_Source\PSoC4/W5100.c **** 	while( W5100_SpiDone == 0) {
 285              		.loc 1 316 0 discriminator 1
 286 0036 FFF7FEFF 		bl	SPI_ss1_m_Read
 287              	.LVL37:
 288 003a 0028     		cmp	r0, #0
 289 003c 03D1     		bne	.L21
 290              	.L18:
 317:.\Generated_Source\PSoC4/W5100.c **** 		CyDelayUs(1);
 291              		.loc 1 317 0
 292 003e 0120     		mov	r0, #1
 293 0040 FFF7FEFF 		bl	CyDelayUs
 294              	.LVL38:
 295 0044 F7E7     		b	.L17
 296              	.L21:
 325:.\Generated_Source\PSoC4/W5100.c **** 		count = SPI_SpiUartGetRxBufferSize();
 297              		.loc 1 325 0
 298 0046 FFF7FEFF 		bl	SPI_SpiUartGetRxBufferSize
 299              	.LVL39:
 322:.\Generated_Source\PSoC4/W5100.c **** 	while( count > 0 )
 300              		.loc 1 322 0
 301 004a 0028     		cmp	r0, #0
 302 004c 03D0     		beq	.L23
 303              	.L20:
 324:.\Generated_Source\PSoC4/W5100.c **** 		dat = SPI_SpiUartReadRxData(); 
 304              		.loc 1 324 0
 305 004e FFF7FEFF 		bl	SPI_SpiUartReadRxData
 306              	.LVL40:
 307 0052 051C     		mov	r5, r0
 308 0054 F7E7     		b	.L21
 309              	.LVL41:
 310              	.L23:
 328:.\Generated_Source\PSoC4/W5100.c **** 	return( dat&0xFF );
 311              		.loc 1 328 0
 312 0056 E8B2     		uxtb	r0, r5
 313              	.LVL42:
 329:.\Generated_Source\PSoC4/W5100.c **** }
 314              		.loc 1 329 0
 315              		@ sp needed for prologue
 316 0058 38BD     		pop	{r3, r4, r5, pc}
 317              		.cfi_endproc
 318              	.LFE2:
 319              		.size	W5100_W51_Read, .-W5100_W51_Read
 320              		.section	.text.W5100_GetSocketStatus,"ax",%progbits
 321              		.align	1
 322              		.code	16
 323              		.thumb_func
 324              		.type	W5100_GetSocketStatus, %function
 325              	W5100_GetSocketStatus:
 326              	.LFB44:
 440:.\Generated_Source\PSoC4/W5100.c **** /* ------------------------------------------------------------------------ */
 441:.\Generated_Source\PSoC4/W5100.c **** /**
 442:.\Generated_Source\PSoC4/W5100.c ****  * \brief read a block of data from consecutive memory addresses
 443:.\Generated_Source\PSoC4/W5100.c ****  * \param addr the address from which the read will begin
ARM GAS  C:\Users\CHUCK~1.ERH\AppData\Local\Temp\cc506n3q.s 			page 15


 444:.\Generated_Source\PSoC4/W5100.c ****  * \param *buffer pointer to the memory buffer which will hold the read data
 445:.\Generated_Source\PSoC4/W5100.c ****  * \param length the length of data to read from the buffer.
 446:.\Generated_Source\PSoC4/W5100.c ****  */
 447:.\Generated_Source\PSoC4/W5100.c **** static void W5100_W51_ReadBlock(uint16 addr, uint8* buffer, uint16 length)
 448:.\Generated_Source\PSoC4/W5100.c **** {
 449:.\Generated_Source\PSoC4/W5100.c **** 	int index;
 450:.\Generated_Source\PSoC4/W5100.c **** 	
 451:.\Generated_Source\PSoC4/W5100.c **** 	for(index=0;index<length;++index) {
 452:.\Generated_Source\PSoC4/W5100.c **** 		buffer[index] = W5100_W51_Read(addr+index);
 453:.\Generated_Source\PSoC4/W5100.c **** 	}
 454:.\Generated_Source\PSoC4/W5100.c **** }
 455:.\Generated_Source\PSoC4/W5100.c **** /* ======================================================================== */
 456:.\Generated_Source\PSoC4/W5100.c **** /* END SECTION */
 457:.\Generated_Source\PSoC4/W5100.c **** #endif
 458:.\Generated_Source\PSoC4/W5100.c **** /* ======================================================================== */
 459:.\Generated_Source\PSoC4/W5100.c **** /* Chip Register access */
 460:.\Generated_Source\PSoC4/W5100.c **** #if (1)
 461:.\Generated_Source\PSoC4/W5100.c **** // Common Registers
 462:.\Generated_Source\PSoC4/W5100.c **** /* ------------------------------------------------------------------------ */
 463:.\Generated_Source\PSoC4/W5100.c **** /**
 464:.\Generated_Source\PSoC4/W5100.c ****  * \brief Set teh chip mac address to teh specified address
 465:.\Generated_Source\PSoC4/W5100.c ****  * \param *mac pointer to the array holding the MAC address
 466:.\Generated_Source\PSoC4/W5100.c ****  */
 467:.\Generated_Source\PSoC4/W5100.c **** static void W5100_SetSourceMAC( uint8* mac ) { W5100_W51_SetMAC(9,mac); }
 468:.\Generated_Source\PSoC4/W5100.c **** /* ------------------------------------------------------------------------ */
 469:.\Generated_Source\PSoC4/W5100.c **** /**
 470:.\Generated_Source\PSoC4/W5100.c ****  * \brief Read the chip source MAC address from the MAC registers
 471:.\Generated_Source\PSoC4/W5100.c ****  * \param *mac pointer to the address of the buffer to hold the read MAC address
 472:.\Generated_Source\PSoC4/W5100.c ****  */
 473:.\Generated_Source\PSoC4/W5100.c **** static void W5100_GetSourceMAC( uint8* mac ) { W5100_W51_GetMAC(9,mac); }
 474:.\Generated_Source\PSoC4/W5100.c **** /* ------------------------------------------------------------------------ */
 475:.\Generated_Source\PSoC4/W5100.c **** /**
 476:.\Generated_Source\PSoC4/W5100.c ****  * \brief Set the IPv4 address of the network gateway
 477:.\Generated_Source\PSoC4/W5100.c ****  * \param ip IP address of the gateway
 478:.\Generated_Source\PSoC4/W5100.c ****  */
 479:.\Generated_Source\PSoC4/W5100.c **** static void W5100_SetGatewayAddress(uint32 ip) { W5100_W51_SetIP(1,ip); }
 480:.\Generated_Source\PSoC4/W5100.c **** /* ------------------------------------------------------------------------ */
 481:.\Generated_Source\PSoC4/W5100.c **** /**
 482:.\Generated_Source\PSoC4/W5100.c ****  * \brief Read the gateway address from the device
 483:.\Generated_Source\PSoC4/W5100.c ****  * \returns the IP address of the gateway
 484:.\Generated_Source\PSoC4/W5100.c ****  */
 485:.\Generated_Source\PSoC4/W5100.c **** static uint32 W5100_GetGatewayAddress( void ) { return W5100_W51_GetIP(1); }
 486:.\Generated_Source\PSoC4/W5100.c **** /* ------------------------------------------------------------------------ */
 487:.\Generated_Source\PSoC4/W5100.c **** /**
 488:.\Generated_Source\PSoC4/W5100.c ****  * \brief set the subnet mask of the ethernet device
 489:.\Generated_Source\PSoC4/W5100.c ****  * \param the subnet mask (IPv4)
 490:.\Generated_Source\PSoC4/W5100.c ****  */
 491:.\Generated_Source\PSoC4/W5100.c **** static void W5100_SetSubnetMask( uint32 ip ) { W5100_W51_SetIP(5, ip); }
 492:.\Generated_Source\PSoC4/W5100.c **** /* ------------------------------------------------------------------------ */
 493:.\Generated_Source\PSoC4/W5100.c **** /**
 494:.\Generated_Source\PSoC4/W5100.c ****  * \brief Read the subnet mask from the device
 495:.\Generated_Source\PSoC4/W5100.c ****  * \returns the subnet mask that was read from the device.
 496:.\Generated_Source\PSoC4/W5100.c ****  */
 497:.\Generated_Source\PSoC4/W5100.c **** static uint32 W5100_GetSubnetMask( void ) { return W5100_W51_GetIP(5); }
 498:.\Generated_Source\PSoC4/W5100.c **** /* ------------------------------------------------------------------------ */
 499:.\Generated_Source\PSoC4/W5100.c **** /**
 500:.\Generated_Source\PSoC4/W5100.c ****  * \brief Write the device source IPv4 address
ARM GAS  C:\Users\CHUCK~1.ERH\AppData\Local\Temp\cc506n3q.s 			page 16


 501:.\Generated_Source\PSoC4/W5100.c ****  * \param ip the ip address to set as the chip IP address
 502:.\Generated_Source\PSoC4/W5100.c ****  */
 503:.\Generated_Source\PSoC4/W5100.c **** static void W5100_SetSourceIP( uint32 ip ) { W5100_W51_SetIP( 0x0F, ip ); }
 504:.\Generated_Source\PSoC4/W5100.c **** /* ------------------------------------------------------------------------ */
 505:.\Generated_Source\PSoC4/W5100.c **** /**
 506:.\Generated_Source\PSoC4/W5100.c ****  * \brief Read the device's programmed IP address
 507:.\Generated_Source\PSoC4/W5100.c ****  * \returns The IPv4 address to which the device is set.
 508:.\Generated_Source\PSoC4/W5100.c ****  */
 509:.\Generated_Source\PSoC4/W5100.c **** static uint32 W5100_GetSourceIP( void ) { return W5100_W51_GetIP( 0x0F ); }
 510:.\Generated_Source\PSoC4/W5100.c **** /* ------------------------------------------------------------------------ */
 511:.\Generated_Source\PSoC4/W5100.c **** /**
 512:.\Generated_Source\PSoC4/W5100.c ****  * \brief Write a value to the device internal MODE register
 513:.\Generated_Source\PSoC4/W5100.c ****  * \param mode the value to be written to the mode register.
 514:.\Generated_Source\PSoC4/W5100.c ****  */
 515:.\Generated_Source\PSoC4/W5100.c **** static void W5100_SetMode( uint8 mode ) { W5100_W51_Write(0,mode); }
 516:.\Generated_Source\PSoC4/W5100.c **** /* ------------------------------------------------------------------------ */
 517:.\Generated_Source\PSoC4/W5100.c **** /**
 518:.\Generated_Source\PSoC4/W5100.c ****  * \brief Read the present contents of the device internal mode register
 519:.\Generated_Source\PSoC4/W5100.c ****  * \returns the value of the mode register
 520:.\Generated_Source\PSoC4/W5100.c ****  */
 521:.\Generated_Source\PSoC4/W5100.c **** static uint8 W5100_GetMode( void ) { return W5100_W51_Read(0); }
 522:.\Generated_Source\PSoC4/W5100.c **** /* ------------------------------------------------------------------------ */
 523:.\Generated_Source\PSoC4/W5100.c **** /**
 524:.\Generated_Source\PSoC4/W5100.c ****  * \brief Write the value of the interrupt register
 525:.\Generated_Source\PSoC4/W5100.c ****  * \param ir the value to be written to the interrupt register
 526:.\Generated_Source\PSoC4/W5100.c ****  */
 527:.\Generated_Source\PSoC4/W5100.c **** static void W5100_SetIR( uint8 ir ) { W5100_W51_Write(0x0015,ir); }
 528:.\Generated_Source\PSoC4/W5100.c **** /* ------------------------------------------------------------------------ */
 529:.\Generated_Source\PSoC4/W5100.c **** /**
 530:.\Generated_Source\PSoC4/W5100.c ****  * \brief Read the contents of the interrupt register
 531:.\Generated_Source\PSoC4/W5100.c ****  * \returns the contents read from the interrupt register
 532:.\Generated_Source\PSoC4/W5100.c ****  */
 533:.\Generated_Source\PSoC4/W5100.c **** static uint8 W5100_GetIR( void ) { return W5100_W51_Read(0x0015); }
 534:.\Generated_Source\PSoC4/W5100.c **** /* ------------------------------------------------------------------------ */
 535:.\Generated_Source\PSoC4/W5100.c **** /**
 536:.\Generated_Source\PSoC4/W5100.c ****  * \brief Set the value of the interrupt mask register
 537:.\Generated_Source\PSoC4/W5100.c ****  * \param imr the value to be written to the interrupt mask register
 538:.\Generated_Source\PSoC4/W5100.c ****  */
 539:.\Generated_Source\PSoC4/W5100.c **** static void W5100_SetIMR( uint8 imr) { W5100_W51_Write( 0x0016, imr ); }
 540:.\Generated_Source\PSoC4/W5100.c **** /* ------------------------------------------------------------------------ */
 541:.\Generated_Source\PSoC4/W5100.c **** /**
 542:.\Generated_Source\PSoC4/W5100.c ****  * \brief Read the interrupt mask register
 543:.\Generated_Source\PSoC4/W5100.c ****  * \returns the contents of the interrupt mask register
 544:.\Generated_Source\PSoC4/W5100.c ****  */
 545:.\Generated_Source\PSoC4/W5100.c **** static uint8 W5100_GetIMR( void ) { return W5100_W51_Read( 0x0016 ); }
 546:.\Generated_Source\PSoC4/W5100.c **** /* ------------------------------------------------------------------------ */
 547:.\Generated_Source\PSoC4/W5100.c **** /**
 548:.\Generated_Source\PSoC4/W5100.c ****  * \brief Write the retry time register
 549:.\Generated_Source\PSoC4/W5100.c ****  * \param time the value to be written to the regster
 550:.\Generated_Source\PSoC4/W5100.c ****  */
 551:.\Generated_Source\PSoC4/W5100.c **** static void W5100_SetRetryTime( uint16 time) { W5100_W51_Write16( 0x0017, time ); }
 552:.\Generated_Source\PSoC4/W5100.c **** /* ------------------------------------------------------------------------ */
 553:.\Generated_Source\PSoC4/W5100.c **** /**
 554:.\Generated_Source\PSoC4/W5100.c ****  * \brief Read the retry tie register
 555:.\Generated_Source\PSoC4/W5100.c ****  * \returns the value read from the register
 556:.\Generated_Source\PSoC4/W5100.c ****  */
 557:.\Generated_Source\PSoC4/W5100.c **** static uint16 W5100_GetRetryTime( void ) { return W5100_W51_Read16( 0x0017 ); }
ARM GAS  C:\Users\CHUCK~1.ERH\AppData\Local\Temp\cc506n3q.s 			page 17


 558:.\Generated_Source\PSoC4/W5100.c **** /* ------------------------------------------------------------------------ */
 559:.\Generated_Source\PSoC4/W5100.c **** /**
 560:.\Generated_Source\PSoC4/W5100.c ****  * \breif write a value to the retry count register
 561:.\Generated_Source\PSoC4/W5100.c ****  * \param count the value to be written to the register
 562:.\Generated_Source\PSoC4/W5100.c ****  */
 563:.\Generated_Source\PSoC4/W5100.c **** static void W5100_SetRetryCount( uint8 count ) { W5100_W51_Write( 0x0019, count); }
 564:.\Generated_Source\PSoC4/W5100.c **** /* ------------------------------------------------------------------------ */
 565:.\Generated_Source\PSoC4/W5100.c **** /**
 566:.\Generated_Source\PSoC4/W5100.c ****  * \brief Read the contents of the retry count register
 567:.\Generated_Source\PSoC4/W5100.c ****  * \returns the value read from teh register
 568:.\Generated_Source\PSoC4/W5100.c ****  */
 569:.\Generated_Source\PSoC4/W5100.c **** static uint8 W5100_GetRetryCount( void ) { return W5100_W51_Read( 0x0019 ); }
 570:.\Generated_Source\PSoC4/W5100.c **** /* ------------------------------------------------------------------------ */
 571:.\Generated_Source\PSoC4/W5100.c **** /**
 572:.\Generated_Source\PSoC4/W5100.c ****  * \brief write a value to the Rx mem size register
 573:.\Generated_Source\PSoC4/W5100.c ****  * \param size the value to be written to the register
 574:.\Generated_Source\PSoC4/W5100.c ****  */
 575:.\Generated_Source\PSoC4/W5100.c **** static void W5100_SetRxMemSize( uint8 size ) { W5100_W51_Write( 0x1A, size ); }
 576:.\Generated_Source\PSoC4/W5100.c **** /* ------------------------------------------------------------------------ */
 577:.\Generated_Source\PSoC4/W5100.c **** /**
 578:.\Generated_Source\PSoC4/W5100.c ****  * \brief Read the contents of hte rx mem size register
 579:.\Generated_Source\PSoC4/W5100.c ****  * \returns the value read from teh register
 580:.\Generated_Source\PSoC4/W5100.c ****  */
 581:.\Generated_Source\PSoC4/W5100.c **** static uint8 W5100_GetRxMemSize( void ) { return W5100_W51_Read(0x1A); }
 582:.\Generated_Source\PSoC4/W5100.c **** /* ------------------------------------------------------------------------ */
 583:.\Generated_Source\PSoC4/W5100.c **** /**
 584:.\Generated_Source\PSoC4/W5100.c ****  * \brief write a value to the tx mem size register
 585:.\Generated_Source\PSoC4/W5100.c ****  * \param size The value to be written to the register
 586:.\Generated_Source\PSoC4/W5100.c ****  */
 587:.\Generated_Source\PSoC4/W5100.c **** static void W5100_SetTxMemSize( uint8 size ) { W5100_W51_Write( 0x1B, size); }
 588:.\Generated_Source\PSoC4/W5100.c **** /* ------------------------------------------------------------------------ */
 589:.\Generated_Source\PSoC4/W5100.c **** /**
 590:.\Generated_Source\PSoC4/W5100.c ****  * \brief read the contents of the tx mem size register
 591:.\Generated_Source\PSoC4/W5100.c ****  * \returns the value read from the register
 592:.\Generated_Source\PSoC4/W5100.c ****  */
 593:.\Generated_Source\PSoC4/W5100.c **** static uint8 W5100_GetTxMemSize( void ) { return W5100_W51_Read( 0x1B);}
 594:.\Generated_Source\PSoC4/W5100.c **** /* ------------------------------------------------------------------------ */
 595:.\Generated_Source\PSoC4/W5100.c **** /**
 596:.\Generated_Source\PSoC4/W5100.c ****  * \brief write a value to the unreachable IP register
 597:.\Generated_Source\PSoC4/W5100.c ****  * \param ip the value to be written to the register
 598:.\Generated_Source\PSoC4/W5100.c ****  */
 599:.\Generated_Source\PSoC4/W5100.c **** static void W5100_SetUnreachableIP( uint32 ip) { W5100_W51_SetIP( 0x2A, ip); }
 600:.\Generated_Source\PSoC4/W5100.c **** /* ------------------------------------------------------------------------ */
 601:.\Generated_Source\PSoC4/W5100.c **** /**
 602:.\Generated_Source\PSoC4/W5100.c ****  * \brief read the contents of the unreachable IP register
 603:.\Generated_Source\PSoC4/W5100.c ****  * \returns the value read from teh register
 604:.\Generated_Source\PSoC4/W5100.c ****  */
 605:.\Generated_Source\PSoC4/W5100.c **** static uint32 W5100_GetUnreachableIP( void ) { return W5100_W51_GetIP( 0x2A ); }
 606:.\Generated_Source\PSoC4/W5100.c **** /* ------------------------------------------------------------------------ */
 607:.\Generated_Source\PSoC4/W5100.c **** /**
 608:.\Generated_Source\PSoC4/W5100.c ****  * \brief write a value to the unreachable port register
 609:.\Generated_Source\PSoC4/W5100.c ****  * \param port the value to be written to the register
 610:.\Generated_Source\PSoC4/W5100.c ****  */
 611:.\Generated_Source\PSoC4/W5100.c **** static void W5100_SetUnreachablePort( uint16 port) { W5100_W51_Write16(0x2E, port); }
 612:.\Generated_Source\PSoC4/W5100.c **** /* ------------------------------------------------------------------------ */
 613:.\Generated_Source\PSoC4/W5100.c **** /**
 614:.\Generated_Source\PSoC4/W5100.c ****  * \brief read the contents of the unreachable port register
ARM GAS  C:\Users\CHUCK~1.ERH\AppData\Local\Temp\cc506n3q.s 			page 18


 615:.\Generated_Source\PSoC4/W5100.c ****  * \returns the value read from the register
 616:.\Generated_Source\PSoC4/W5100.c ****  */
 617:.\Generated_Source\PSoC4/W5100.c **** static uint16 W5100_GetUnreachablePort( void ) { return W5100_W51_Read16(0x2E); }
 618:.\Generated_Source\PSoC4/W5100.c **** /* ======================================================================== */
 619:.\Generated_Source\PSoC4/W5100.c **** /* End Section */
 620:.\Generated_Source\PSoC4/W5100.c **** #endif
 621:.\Generated_Source\PSoC4/W5100.c **** /* ======================================================================== */
 622:.\Generated_Source\PSoC4/W5100.c **** /* Socket Registers */
 623:.\Generated_Source\PSoC4/W5100.c **** #if (1)
 624:.\Generated_Source\PSoC4/W5100.c **** /**
 625:.\Generated_Source\PSoC4/W5100.c ****  * \def W5100_SOCKET BASE(s)
 626:.\Generated_Source\PSoC4/W5100.c ****  * \brief Convert the socket number to a base address within the W5100
 627:.\Generated_Source\PSoC4/W5100.c ****  */
 628:.\Generated_Source\PSoC4/W5100.c **** #define W5100_SOCKET_BASE(s)           ((s<<8)+0x0400)
 629:.\Generated_Source\PSoC4/W5100.c **** /* ------------------------------------------------------------------------ */
 630:.\Generated_Source\PSoC4/W5100.c **** /**
 631:.\Generated_Source\PSoC4/W5100.c ****  * \brief Write a value to the socket mode register
 632:.\Generated_Source\PSoC4/W5100.c ****  * \param socket the socket number for the addressed register
 633:.\Generated_Source\PSoC4/W5100.c ****  * \param mode the value to be written to the register
 634:.\Generated_Source\PSoC4/W5100.c ****  */
 635:.\Generated_Source\PSoC4/W5100.c **** static void W5100_SetSocketMode(uint8 socket, uint8 mode)
 636:.\Generated_Source\PSoC4/W5100.c **** { W5100_W51_Write(W5100_SOCKET_BASE(socket), mode); }
 637:.\Generated_Source\PSoC4/W5100.c **** /* ------------------------------------------------------------------------ */
 638:.\Generated_Source\PSoC4/W5100.c **** /**
 639:.\Generated_Source\PSoC4/W5100.c ****  * \brief Read a value from the socket mode register
 640:.\Generated_Source\PSoC4/W5100.c ****  * \param socket the socket number for the addressed register
 641:.\Generated_Source\PSoC4/W5100.c ****  * \returns the value read from the register
 642:.\Generated_Source\PSoC4/W5100.c ****  */
 643:.\Generated_Source\PSoC4/W5100.c **** static uint8 W5100_GetSocketMode(uint8 socket)
 644:.\Generated_Source\PSoC4/W5100.c **** { return W5100_W51_Read(W5100_SOCKET_BASE(socket)); }
 645:.\Generated_Source\PSoC4/W5100.c **** /* ------------------------------------------------------------------------ */
 646:.\Generated_Source\PSoC4/W5100.c **** /**
 647:.\Generated_Source\PSoC4/W5100.c ****  * \brief Write a value to the socket command register
 648:.\Generated_Source\PSoC4/W5100.c ****  * \param socket the socket number for the addressed register
 649:.\Generated_Source\PSoC4/W5100.c ****  * \param cmd the value to be written to the register
 650:.\Generated_Source\PSoC4/W5100.c ****  */
 651:.\Generated_Source\PSoC4/W5100.c **** static void W5100_SetSocketCommand(uint8 socket, uint8 cmd)
 652:.\Generated_Source\PSoC4/W5100.c **** { W5100_W51_Write(W5100_SOCKET_BASE(socket)+1, cmd); }
 653:.\Generated_Source\PSoC4/W5100.c **** /* ------------------------------------------------------------------------ */
 654:.\Generated_Source\PSoC4/W5100.c **** /**
 655:.\Generated_Source\PSoC4/W5100.c ****  * \brief Read a value from the socket command register
 656:.\Generated_Source\PSoC4/W5100.c ****  * \param socket the socket number for the addressed register
 657:.\Generated_Source\PSoC4/W5100.c ****  * \returns the value read from the register
 658:.\Generated_Source\PSoC4/W5100.c ****  */
 659:.\Generated_Source\PSoC4/W5100.c **** static uint8 W5100_GetSocketCommand(uint8 socket)
 660:.\Generated_Source\PSoC4/W5100.c **** { return W5100_W51_Read(W5100_SOCKET_BASE(socket)+1); }
 661:.\Generated_Source\PSoC4/W5100.c **** /* ------------------------------------------------------------------------ */
 662:.\Generated_Source\PSoC4/W5100.c **** /**
 663:.\Generated_Source\PSoC4/W5100.c ****  * \brief Write a value to the socket interrupt register
 664:.\Generated_Source\PSoC4/W5100.c ****  * \param socket the socket number for the addressed register
 665:.\Generated_Source\PSoC4/W5100.c ****  * \param ir the value to be written to the register
 666:.\Generated_Source\PSoC4/W5100.c ****  */
 667:.\Generated_Source\PSoC4/W5100.c **** static void W5100_SetSocketIR(uint8 socket, uint8 ir)
 668:.\Generated_Source\PSoC4/W5100.c **** { W5100_W51_Write(W5100_SOCKET_BASE(socket)+2,ir); }
 669:.\Generated_Source\PSoC4/W5100.c **** /* ------------------------------------------------------------------------ */
 670:.\Generated_Source\PSoC4/W5100.c **** /**
 671:.\Generated_Source\PSoC4/W5100.c ****  * \brief Read a value from the socket interrupt register
ARM GAS  C:\Users\CHUCK~1.ERH\AppData\Local\Temp\cc506n3q.s 			page 19


 672:.\Generated_Source\PSoC4/W5100.c ****  * \param socket the socket number for the addressed register
 673:.\Generated_Source\PSoC4/W5100.c ****  * \returns the value read from the register
 674:.\Generated_Source\PSoC4/W5100.c ****  */
 675:.\Generated_Source\PSoC4/W5100.c **** static uint8 W5100_GetSocketIR(uint8 socket)
 676:.\Generated_Source\PSoC4/W5100.c **** { return W5100_W51_Read(W5100_SOCKET_BASE(socket)+2); }
 677:.\Generated_Source\PSoC4/W5100.c **** /* ------------------------------------------------------------------------ */
 678:.\Generated_Source\PSoC4/W5100.c **** /**
 679:.\Generated_Source\PSoC4/W5100.c ****  * \brief Write a value to the socket status register
 680:.\Generated_Source\PSoC4/W5100.c ****  * \param socket the socket number for the addressed register
 681:.\Generated_Source\PSoC4/W5100.c ****  * \param status the value to be written to the register
 682:.\Generated_Source\PSoC4/W5100.c ****  */
 683:.\Generated_Source\PSoC4/W5100.c **** static void W5100_SetSocketStatus(uint8 socket, uint8 status)
 684:.\Generated_Source\PSoC4/W5100.c **** { W5100_W51_Write(W5100_SOCKET_BASE(socket)+3,status); }
 685:.\Generated_Source\PSoC4/W5100.c **** /* ------------------------------------------------------------------------ */
 686:.\Generated_Source\PSoC4/W5100.c **** /**
 687:.\Generated_Source\PSoC4/W5100.c ****  * \brief Read a value from the socket status register
 688:.\Generated_Source\PSoC4/W5100.c ****  * \param socket the socket number for the addressed register
 689:.\Generated_Source\PSoC4/W5100.c ****  * \returns the value read from the register
 690:.\Generated_Source\PSoC4/W5100.c ****  */
 691:.\Generated_Source\PSoC4/W5100.c **** static uint8 W5100_GetSocketStatus(uint8 socket)
 692:.\Generated_Source\PSoC4/W5100.c **** { return W5100_W51_Read(W5100_SOCKET_BASE(socket)+3); }
 327              		.loc 1 692 0
 328              		.cfi_startproc
 329              	.LVL43:
 330 0000 08B5     		push	{r3, lr}
 331              	.LCFI5:
 332              		.cfi_def_cfa_offset 8
 333              		.cfi_offset 3, -8
 334              		.cfi_offset 14, -4
 335              		.loc 1 692 0
 336 0002 034B     		ldr	r3, .L25
 337 0004 0002     		lsl	r0, r0, #8
 338              	.LVL44:
 339 0006 C118     		add	r1, r0, r3
 340 0008 88B2     		uxth	r0, r1
 341 000a FFF7FEFF 		bl	W5100_W51_Read
 342              	.LVL45:
 343              		@ sp needed for prologue
 344 000e 08BD     		pop	{r3, pc}
 345              	.L26:
 346              		.align	2
 347              	.L25:
 348 0010 03040000 		.word	1027
 349              		.cfi_endproc
 350              	.LFE44:
 351              		.size	W5100_GetSocketStatus, .-W5100_GetSocketStatus
 352              		.section	.text.W5100_W51_Read16,"ax",%progbits
 353              		.align	1
 354              		.code	16
 355              		.thumb_func
 356              		.type	W5100_W51_Read16, %function
 357              	W5100_W51_Read16:
 358              	.LFB8:
 417:.\Generated_Source\PSoC4/W5100.c **** {
 359              		.loc 1 417 0
 360              		.cfi_startproc
 361              	.LVL46:
ARM GAS  C:\Users\CHUCK~1.ERH\AppData\Local\Temp\cc506n3q.s 			page 20


 362 0000 38B5     		push	{r3, r4, r5, lr}
 363              	.LCFI6:
 364              		.cfi_def_cfa_offset 16
 365              		.cfi_offset 3, -16
 366              		.cfi_offset 4, -12
 367              		.cfi_offset 5, -8
 368              		.cfi_offset 14, -4
 417:.\Generated_Source\PSoC4/W5100.c **** {
 369              		.loc 1 417 0
 370 0002 041C     		mov	r4, r0
 420:.\Generated_Source\PSoC4/W5100.c **** 	val = W5100_W51_Read( addr );
 371              		.loc 1 420 0
 372 0004 FFF7FEFF 		bl	W5100_W51_Read
 373              	.LVL47:
 422:.\Generated_Source\PSoC4/W5100.c **** 	val += W5100_W51_Read( addr + 1);
 374              		.loc 1 422 0
 375 0008 0134     		add	r4, r4, #1
 421:.\Generated_Source\PSoC4/W5100.c **** 	val <<= 8;
 376              		.loc 1 421 0
 377 000a 0502     		lsl	r5, r0, #8
 422:.\Generated_Source\PSoC4/W5100.c **** 	val += W5100_W51_Read( addr + 1);
 378              		.loc 1 422 0
 379 000c A0B2     		uxth	r0, r4
 380              	.LVL48:
 381 000e FFF7FEFF 		bl	W5100_W51_Read
 382              	.LVL49:
 421:.\Generated_Source\PSoC4/W5100.c **** 	val <<= 8;
 383              		.loc 1 421 0
 384 0012 ADB2     		uxth	r5, r5
 385              	.LVL50:
 422:.\Generated_Source\PSoC4/W5100.c **** 	val += W5100_W51_Read( addr + 1);
 386              		.loc 1 422 0
 387 0014 2818     		add	r0, r5, r0
 388              	.LVL51:
 424:.\Generated_Source\PSoC4/W5100.c **** 	return( val );
 389              		.loc 1 424 0
 390 0016 80B2     		uxth	r0, r0
 425:.\Generated_Source\PSoC4/W5100.c **** }
 391              		.loc 1 425 0
 392              		@ sp needed for prologue
 393 0018 38BD     		pop	{r3, r4, r5, pc}
 394              		.cfi_endproc
 395              	.LFE8:
 396              		.size	W5100_W51_Read16, .-W5100_W51_Read16
 397              		.section	.text.W5100_ProcessTxData.constprop.2,"ax",%progbits
 398              		.align	1
 399              		.code	16
 400              		.thumb_func
 401              		.type	W5100_ProcessTxData.constprop.2, %function
 402              	W5100_ProcessTxData.constprop.2:
 403              	.LFB111:
 693:.\Generated_Source\PSoC4/W5100.c **** /* ------------------------------------------------------------------------ */
 694:.\Generated_Source\PSoC4/W5100.c **** /**
 695:.\Generated_Source\PSoC4/W5100.c ****  * \brief Write a value to the socket source port register
 696:.\Generated_Source\PSoC4/W5100.c ****  * \param socket the socket number for the addressed register
 697:.\Generated_Source\PSoC4/W5100.c ****  * \param port the value to be written to the register
 698:.\Generated_Source\PSoC4/W5100.c ****  */
ARM GAS  C:\Users\CHUCK~1.ERH\AppData\Local\Temp\cc506n3q.s 			page 21


 699:.\Generated_Source\PSoC4/W5100.c **** static void W5100_SetSocketSourcePort(uint8 socket, uint16 port)
 700:.\Generated_Source\PSoC4/W5100.c **** { W5100_W51_Write16(W5100_SOCKET_BASE(socket)+4,port); }
 701:.\Generated_Source\PSoC4/W5100.c **** /* ------------------------------------------------------------------------ */
 702:.\Generated_Source\PSoC4/W5100.c **** /**
 703:.\Generated_Source\PSoC4/W5100.c ****  * \brief Read a value from the socket source port register
 704:.\Generated_Source\PSoC4/W5100.c ****  * \param socket the socket number for the addressed register
 705:.\Generated_Source\PSoC4/W5100.c ****  * \returns the value read from the register
 706:.\Generated_Source\PSoC4/W5100.c ****  */
 707:.\Generated_Source\PSoC4/W5100.c **** static uint16 W5100_GetSocketSourcePort(uint8 socket)
 708:.\Generated_Source\PSoC4/W5100.c **** { return W5100_W51_Read16(W5100_SOCKET_BASE(socket)+4); }
 709:.\Generated_Source\PSoC4/W5100.c **** /* ------------------------------------------------------------------------ */
 710:.\Generated_Source\PSoC4/W5100.c **** /**
 711:.\Generated_Source\PSoC4/W5100.c ****  * \brief Write a value to the socket Destination hardware address register
 712:.\Generated_Source\PSoC4/W5100.c ****  * \param socket the socket number for the addressed register
 713:.\Generated_Source\PSoC4/W5100.c ****  * \param *mac poitner to the array holding the values to be written to the register
 714:.\Generated_Source\PSoC4/W5100.c ****  */
 715:.\Generated_Source\PSoC4/W5100.c **** static void W5100_SetSocketDestMAC(uint8 socket, uint8* mac)
 716:.\Generated_Source\PSoC4/W5100.c **** { W5100_W51_SetMAC( W5100_SOCKET_BASE(socket)+6, mac); }
 717:.\Generated_Source\PSoC4/W5100.c **** /* ------------------------------------------------------------------------ */
 718:.\Generated_Source\PSoC4/W5100.c **** /**
 719:.\Generated_Source\PSoC4/W5100.c ****  * \brief Read a value from the socket destination hardware address (MAC) register
 720:.\Generated_Source\PSoC4/W5100.c ****  * \param socket the socket number for the addressed register
 721:.\Generated_Source\PSoC4/W5100.c ****  * \returns the value read from the register
 722:.\Generated_Source\PSoC4/W5100.c ****  */
 723:.\Generated_Source\PSoC4/W5100.c **** static void W5100_GetSocketDestMAC(uint8 socket, uint8* mac)
 724:.\Generated_Source\PSoC4/W5100.c **** { W5100_W51_GetMAC( W5100_SOCKET_BASE(socket)+6,mac); }
 725:.\Generated_Source\PSoC4/W5100.c **** /* ------------------------------------------------------------------------ */
 726:.\Generated_Source\PSoC4/W5100.c **** /**
 727:.\Generated_Source\PSoC4/W5100.c ****  * \brief Write a value to the socket Destination IP address register
 728:.\Generated_Source\PSoC4/W5100.c ****  * \param socket the socket number for the addressed register
 729:.\Generated_Source\PSoC4/W5100.c ****  * \param ip the value to be written to the register
 730:.\Generated_Source\PSoC4/W5100.c ****  */
 731:.\Generated_Source\PSoC4/W5100.c **** static void W5100_SetSocketDestIP(uint8 socket, uint32 ip)
 732:.\Generated_Source\PSoC4/W5100.c **** { W5100_W51_SetIP(W5100_SOCKET_BASE(socket)+12,ip); }
 733:.\Generated_Source\PSoC4/W5100.c **** /* ------------------------------------------------------------------------ */
 734:.\Generated_Source\PSoC4/W5100.c **** /**
 735:.\Generated_Source\PSoC4/W5100.c ****  * \brief Read a value from the socket destination IP register
 736:.\Generated_Source\PSoC4/W5100.c ****  * \param socket the socket number for the addressed register
 737:.\Generated_Source\PSoC4/W5100.c ****  * \returns the value read from the register
 738:.\Generated_Source\PSoC4/W5100.c ****  */
 739:.\Generated_Source\PSoC4/W5100.c **** static uint32 W5100_GetSocketDestIP(uint8 socket )
 740:.\Generated_Source\PSoC4/W5100.c **** { return W5100_W51_GetIP(W5100_SOCKET_BASE(socket)+12); }
 741:.\Generated_Source\PSoC4/W5100.c **** /* ------------------------------------------------------------------------ */
 742:.\Generated_Source\PSoC4/W5100.c **** /**
 743:.\Generated_Source\PSoC4/W5100.c ****  * \brief Write a value to the socket destination port register
 744:.\Generated_Source\PSoC4/W5100.c ****  * \param socket the socket number for the addressed register
 745:.\Generated_Source\PSoC4/W5100.c ****  * \param port the value to be written to the register
 746:.\Generated_Source\PSoC4/W5100.c ****  */
 747:.\Generated_Source\PSoC4/W5100.c **** static void W5100_SetSocketDestPort(uint8 socket, uint16 port)
 748:.\Generated_Source\PSoC4/W5100.c **** { W5100_W51_Write16( W5100_SOCKET_BASE(socket)+16, port); }
 749:.\Generated_Source\PSoC4/W5100.c **** /* ------------------------------------------------------------------------ */
 750:.\Generated_Source\PSoC4/W5100.c **** /**
 751:.\Generated_Source\PSoC4/W5100.c ****  * \brief Read a value from the socket destination port register
 752:.\Generated_Source\PSoC4/W5100.c ****  * \param socket the socket number for the addressed register
 753:.\Generated_Source\PSoC4/W5100.c ****  * \returns the value read from the register
 754:.\Generated_Source\PSoC4/W5100.c ****  */
 755:.\Generated_Source\PSoC4/W5100.c **** static uint16 W5100_GetSocketDestPort(uint8 socket)
ARM GAS  C:\Users\CHUCK~1.ERH\AppData\Local\Temp\cc506n3q.s 			page 22


 756:.\Generated_Source\PSoC4/W5100.c **** { return W5100_W51_Read16( W5100_SOCKET_BASE(socket)+16 ); }
 757:.\Generated_Source\PSoC4/W5100.c **** /* ------------------------------------------------------------------------ */
 758:.\Generated_Source\PSoC4/W5100.c **** /**
 759:.\Generated_Source\PSoC4/W5100.c ****  * \brief Write a value to the socket max segment size register
 760:.\Generated_Source\PSoC4/W5100.c ****  * \param socket the socket number for the addressed register
 761:.\Generated_Source\PSoC4/W5100.c ****  * \param size the value to be written to the register
 762:.\Generated_Source\PSoC4/W5100.c ****  */
 763:.\Generated_Source\PSoC4/W5100.c **** static void W5100_SetSocketMaxSegSize(uint8 socket, uint16 size)
 764:.\Generated_Source\PSoC4/W5100.c **** { W5100_W51_Write16(W5100_SOCKET_BASE(socket)+18,size); }
 765:.\Generated_Source\PSoC4/W5100.c **** /* ------------------------------------------------------------------------ */
 766:.\Generated_Source\PSoC4/W5100.c **** /**
 767:.\Generated_Source\PSoC4/W5100.c ****  * \brief Read a value from the socket maximum segment size register
 768:.\Generated_Source\PSoC4/W5100.c ****  * \param socket the socket number for the addressed register
 769:.\Generated_Source\PSoC4/W5100.c ****  * \returns the value read from the register
 770:.\Generated_Source\PSoC4/W5100.c ****  */
 771:.\Generated_Source\PSoC4/W5100.c **** static uint16 W5100_GetSocketMaxSegSize(uint8 socket)
 772:.\Generated_Source\PSoC4/W5100.c **** { return W5100_W51_Read16(W5100_SOCKET_BASE(socket)+18); }
 773:.\Generated_Source\PSoC4/W5100.c **** /* ------------------------------------------------------------------------ */
 774:.\Generated_Source\PSoC4/W5100.c **** /**
 775:.\Generated_Source\PSoC4/W5100.c ****  * \brief Read a value from the socket protocol register (IP RAW/MAC RAW mode)
 776:.\Generated_Source\PSoC4/W5100.c ****  * \param socket the socket number for the addressed register
 777:.\Generated_Source\PSoC4/W5100.c ****  * \returns the value read from the register
 778:.\Generated_Source\PSoC4/W5100.c ****  */
 779:.\Generated_Source\PSoC4/W5100.c **** static uint16  W5100_GetSocketProto(uint8 socket)
 780:.\Generated_Source\PSoC4/W5100.c **** { return W5100_W51_Read(W5100_SOCKET_BASE(socket)+20); }
 781:.\Generated_Source\PSoC4/W5100.c **** /* ------------------------------------------------------------------------ */
 782:.\Generated_Source\PSoC4/W5100.c **** /**
 783:.\Generated_Source\PSoC4/W5100.c ****  * \brief Write a value to the socket TOS register
 784:.\Generated_Source\PSoC4/W5100.c ****  * \param socket the socket number for the addressed register
 785:.\Generated_Source\PSoC4/W5100.c ****  * \param tos the value to be written to the register
 786:.\Generated_Source\PSoC4/W5100.c ****  */
 787:.\Generated_Source\PSoC4/W5100.c **** static void W5100_SetSocketTOS(uint8 socket, uint8 tos)
 788:.\Generated_Source\PSoC4/W5100.c **** { W5100_W51_Write(W5100_SOCKET_BASE(socket)+21, tos); }
 789:.\Generated_Source\PSoC4/W5100.c **** /* ------------------------------------------------------------------------ */
 790:.\Generated_Source\PSoC4/W5100.c **** /**
 791:.\Generated_Source\PSoC4/W5100.c ****  * \brief Read a value from the socket TOS register
 792:.\Generated_Source\PSoC4/W5100.c ****  * \param socket the socket number for the addressed register
 793:.\Generated_Source\PSoC4/W5100.c ****  * \returns the value read from the register
 794:.\Generated_Source\PSoC4/W5100.c ****  */
 795:.\Generated_Source\PSoC4/W5100.c **** static uint8 W5100_GetSocketTOS(uint8 socket)
 796:.\Generated_Source\PSoC4/W5100.c **** { return W5100_W51_Read(W5100_SOCKET_BASE(socket)+21); }
 797:.\Generated_Source\PSoC4/W5100.c **** /* ------------------------------------------------------------------------ */
 798:.\Generated_Source\PSoC4/W5100.c **** /**
 799:.\Generated_Source\PSoC4/W5100.c ****  * \brief Write a value to the socket Time-To_Live (TTL) register
 800:.\Generated_Source\PSoC4/W5100.c ****  * \param socket the socket number for the addressed register
 801:.\Generated_Source\PSoC4/W5100.c ****  * \param ttl the value to be written to the register
 802:.\Generated_Source\PSoC4/W5100.c ****  */
 803:.\Generated_Source\PSoC4/W5100.c **** static void W5100_SetSocketTTL(uint8 socket, uint8 ttl)
 804:.\Generated_Source\PSoC4/W5100.c **** { W5100_W51_Write(W5100_SOCKET_BASE(socket)+22,ttl); }
 805:.\Generated_Source\PSoC4/W5100.c **** /* ------------------------------------------------------------------------ */
 806:.\Generated_Source\PSoC4/W5100.c **** /**
 807:.\Generated_Source\PSoC4/W5100.c ****  * \brief Read a value from the socket time-to-live (TTL) register
 808:.\Generated_Source\PSoC4/W5100.c ****  * \param socket the socket number for the addressed register
 809:.\Generated_Source\PSoC4/W5100.c ****  * \returns the value read from the register
 810:.\Generated_Source\PSoC4/W5100.c ****  */
 811:.\Generated_Source\PSoC4/W5100.c **** static uint8 W5100_GetSocketTTL(uint8 socket)
 812:.\Generated_Source\PSoC4/W5100.c **** { return W5100_W51_Read(W5100_SOCKET_BASE(socket)+22); }
ARM GAS  C:\Users\CHUCK~1.ERH\AppData\Local\Temp\cc506n3q.s 			page 23


 813:.\Generated_Source\PSoC4/W5100.c **** /* ------------------------------------------------------------------------ */
 814:.\Generated_Source\PSoC4/W5100.c **** /**
 815:.\Generated_Source\PSoC4/W5100.c ****  * \brief Write a value to the socket tx free size register
 816:.\Generated_Source\PSoC4/W5100.c ****  * \param socket the socket number for the addressed register
 817:.\Generated_Source\PSoC4/W5100.c ****  * \param size the value to be written to the register
 818:.\Generated_Source\PSoC4/W5100.c ****  */
 819:.\Generated_Source\PSoC4/W5100.c **** static void W5100_SetSocketTxFree( uint8 socket, uint16 size)
 820:.\Generated_Source\PSoC4/W5100.c **** { W5100_W51_Write16(W5100_SOCKET_BASE(socket)+0x20,size); }
 821:.\Generated_Source\PSoC4/W5100.c **** /* ------------------------------------------------------------------------ */
 822:.\Generated_Source\PSoC4/W5100.c **** /**
 823:.\Generated_Source\PSoC4/W5100.c ****  * \brief Read a value from the socket Tx free size register
 824:.\Generated_Source\PSoC4/W5100.c ****  * \param socket the socket number for the addressed register
 825:.\Generated_Source\PSoC4/W5100.c ****  * \returns the value read from the register
 826:.\Generated_Source\PSoC4/W5100.c ****  */
 827:.\Generated_Source\PSoC4/W5100.c **** static uint16 W5100_GetSocketTxFree(uint8 socket)
 828:.\Generated_Source\PSoC4/W5100.c **** { return W5100_W51_Read16(W5100_SOCKET_BASE(socket)+0x20); }
 829:.\Generated_Source\PSoC4/W5100.c **** /* ------------------------------------------------------------------------ */
 830:.\Generated_Source\PSoC4/W5100.c **** /**
 831:.\Generated_Source\PSoC4/W5100.c ****  * \brief Write a value to the socket tx read pointer register
 832:.\Generated_Source\PSoC4/W5100.c ****  * \param socket the socket number for the addressed register
 833:.\Generated_Source\PSoC4/W5100.c ****  * \param ptr the value to be written to the register
 834:.\Generated_Source\PSoC4/W5100.c ****  */
 835:.\Generated_Source\PSoC4/W5100.c **** static void W5100_SetSocketTxReadPtr(uint8 socket, uint16 ptr)
 836:.\Generated_Source\PSoC4/W5100.c **** { W5100_W51_Write16(W5100_SOCKET_BASE(socket)+0x22,ptr); }
 837:.\Generated_Source\PSoC4/W5100.c **** /* ------------------------------------------------------------------------ */
 838:.\Generated_Source\PSoC4/W5100.c **** /**
 839:.\Generated_Source\PSoC4/W5100.c ****  * \brief Read a value from the socket Tx buffer read pointer register
 840:.\Generated_Source\PSoC4/W5100.c ****  * \param socket the socket number for the addressed register
 841:.\Generated_Source\PSoC4/W5100.c ****  * \returns the value read from the register
 842:.\Generated_Source\PSoC4/W5100.c ****  */
 843:.\Generated_Source\PSoC4/W5100.c **** static uint16 W5100_GetSocketTxReadPtr(uint8 socket)
 844:.\Generated_Source\PSoC4/W5100.c **** { return W5100_W51_Read16(W5100_SOCKET_BASE(socket)+0x22); }
 845:.\Generated_Source\PSoC4/W5100.c **** /* ------------------------------------------------------------------------ */
 846:.\Generated_Source\PSoC4/W5100.c **** /**
 847:.\Generated_Source\PSoC4/W5100.c ****  * \brief Write a value to the socket tx write pointer register
 848:.\Generated_Source\PSoC4/W5100.c ****  * \param socket the socket number for the addressed register
 849:.\Generated_Source\PSoC4/W5100.c ****  * \param ptr the value to be written to the register
 850:.\Generated_Source\PSoC4/W5100.c ****  */
 851:.\Generated_Source\PSoC4/W5100.c **** static void W5100_SetSocketTxWritePtr(uint8 socket, uint16 ptr)
 852:.\Generated_Source\PSoC4/W5100.c **** { W5100_W51_Write16(W5100_SOCKET_BASE(socket)+0x24,ptr); }
 853:.\Generated_Source\PSoC4/W5100.c **** /* ------------------------------------------------------------------------ */
 854:.\Generated_Source\PSoC4/W5100.c **** /**
 855:.\Generated_Source\PSoC4/W5100.c ****  * \brief Read a value from the socket tx buffer write pointer register
 856:.\Generated_Source\PSoC4/W5100.c ****  * \param socket the socket number for the addressed register
 857:.\Generated_Source\PSoC4/W5100.c ****  * \returns the value read from the register
 858:.\Generated_Source\PSoC4/W5100.c ****  */
 859:.\Generated_Source\PSoC4/W5100.c **** static uint16 W5100_GetSocketTxWritePtr(uint8 socket)
 860:.\Generated_Source\PSoC4/W5100.c **** { return W5100_W51_Read16(W5100_SOCKET_BASE(socket)+0x24); }
 861:.\Generated_Source\PSoC4/W5100.c **** /* ------------------------------------------------------------------------ */
 862:.\Generated_Source\PSoC4/W5100.c **** /**
 863:.\Generated_Source\PSoC4/W5100.c ****  * \brief Read a value from the socket rx received data size register
 864:.\Generated_Source\PSoC4/W5100.c ****  * \param socket the socket number for the addressed register
 865:.\Generated_Source\PSoC4/W5100.c ****  * \returns the value read from the register
 866:.\Generated_Source\PSoC4/W5100.c ****  */
 867:.\Generated_Source\PSoC4/W5100.c **** static uint16 W5100_GetSocketRxSize(uint8 socket)
 868:.\Generated_Source\PSoC4/W5100.c **** { return W5100_W51_Read16(W5100_SOCKET_BASE(socket)+0x26); }
 869:.\Generated_Source\PSoC4/W5100.c **** /* ------------------------------------------------------------------------ */
ARM GAS  C:\Users\CHUCK~1.ERH\AppData\Local\Temp\cc506n3q.s 			page 24


 870:.\Generated_Source\PSoC4/W5100.c **** /**
 871:.\Generated_Source\PSoC4/W5100.c ****  * \brief Write a value to the socket rx read pointer register
 872:.\Generated_Source\PSoC4/W5100.c ****  * \param socket the socket number for the addressed register
 873:.\Generated_Source\PSoC4/W5100.c ****  * \param ptr the value to be written to the register
 874:.\Generated_Source\PSoC4/W5100.c ****  */
 875:.\Generated_Source\PSoC4/W5100.c **** static void W5100_SetSocketRxReadPtr(uint8 socket, uint16 ptr)
 876:.\Generated_Source\PSoC4/W5100.c **** { W5100_W51_Write16(W5100_SOCKET_BASE(socket)+0x28,ptr); }
 877:.\Generated_Source\PSoC4/W5100.c **** /* ------------------------------------------------------------------------ */
 878:.\Generated_Source\PSoC4/W5100.c **** /**
 879:.\Generated_Source\PSoC4/W5100.c ****  * \brief Read a value from the socket rx buffer read pointer register
 880:.\Generated_Source\PSoC4/W5100.c ****  * \param socket the socket number for the addressed register
 881:.\Generated_Source\PSoC4/W5100.c ****  * \returns the value read from the register
 882:.\Generated_Source\PSoC4/W5100.c ****  */
 883:.\Generated_Source\PSoC4/W5100.c **** static uint16 W5100_GetSocketRxReadPtr(uint8 socket)
 884:.\Generated_Source\PSoC4/W5100.c **** { return W5100_W51_Read16(W5100_SOCKET_BASE(socket)+0x28); }
 885:.\Generated_Source\PSoC4/W5100.c **** /* ------------------------------------------------------------------------ */
 886:.\Generated_Source\PSoC4/W5100.c **** /**
 887:.\Generated_Source\PSoC4/W5100.c ****  * \brief Write a command to the socket command register and wait for completion
 888:.\Generated_Source\PSoC4/W5100.c ****  * \param socket the addressed socket for the command
 889:.\Generated_Source\PSoC4/W5100.c ****  * \param cmd the command to execute
 890:.\Generated_Source\PSoC4/W5100.c ****  */
 891:.\Generated_Source\PSoC4/W5100.c **** static uint32 W5100_ExecuteSocketCommand( uint8 socket, int cmd)
 892:.\Generated_Source\PSoC4/W5100.c **** {
 893:.\Generated_Source\PSoC4/W5100.c **** 	uint32 timeout;
 894:.\Generated_Source\PSoC4/W5100.c **** 	timeout = 0;
 895:.\Generated_Source\PSoC4/W5100.c **** 	
 896:.\Generated_Source\PSoC4/W5100.c **** 	W5100_SetSocketCommand(socket,cmd);
 897:.\Generated_Source\PSoC4/W5100.c **** 	while ( ( W5100_GetSocketCommand(socket) ) && (timeout < 125))
 898:.\Generated_Source\PSoC4/W5100.c **** 	{
 899:.\Generated_Source\PSoC4/W5100.c **** 		++timeout;
 900:.\Generated_Source\PSoC4/W5100.c **** 		CyDelay(1);
 901:.\Generated_Source\PSoC4/W5100.c **** 	}
 902:.\Generated_Source\PSoC4/W5100.c **** 	return( timeout );
 903:.\Generated_Source\PSoC4/W5100.c **** }
 904:.\Generated_Source\PSoC4/W5100.c **** /* ------------------------------------------------------------------------ */
 905:.\Generated_Source\PSoC4/W5100.c **** /**
 906:.\Generated_Source\PSoC4/W5100.c ****  * \brief Execute a safe read fo the Tx buffer free size register
 907:.\Generated_Source\PSoC4/W5100.c ****  * \param socket the addressed socket to read the available tx buffer
 908:.\Generated_Source\PSoC4/W5100.c ****  * \returns the number of bytes available in the transmit buffer for the socket
 909:.\Generated_Source\PSoC4/W5100.c ****  */
 910:.\Generated_Source\PSoC4/W5100.c **** static uint16 W5100_GetTxFreeSize( uint8 socket )
 911:.\Generated_Source\PSoC4/W5100.c **** {
 912:.\Generated_Source\PSoC4/W5100.c **** 	uint16 first, second;
 913:.\Generated_Source\PSoC4/W5100.c **** 	
 914:.\Generated_Source\PSoC4/W5100.c **** 	first = 0;
 915:.\Generated_Source\PSoC4/W5100.c **** 	second = 0;
 916:.\Generated_Source\PSoC4/W5100.c **** 	do {
 917:.\Generated_Source\PSoC4/W5100.c **** 		first = W5100_GetSocketTxFree( socket );
 918:.\Generated_Source\PSoC4/W5100.c **** 		if (first != 0) {
 919:.\Generated_Source\PSoC4/W5100.c **** 			second = W5100_GetSocketTxFree( socket );
 920:.\Generated_Source\PSoC4/W5100.c **** 		}
 921:.\Generated_Source\PSoC4/W5100.c **** 	}
 922:.\Generated_Source\PSoC4/W5100.c **** 	while (first != second );
 923:.\Generated_Source\PSoC4/W5100.c **** 	
 924:.\Generated_Source\PSoC4/W5100.c **** 	return( second );
 925:.\Generated_Source\PSoC4/W5100.c **** }
 926:.\Generated_Source\PSoC4/W5100.c **** /* ------------------------------------------------------------------------ */
ARM GAS  C:\Users\CHUCK~1.ERH\AppData\Local\Temp\cc506n3q.s 			page 25


 927:.\Generated_Source\PSoC4/W5100.c **** /**
 928:.\Generated_Source\PSoC4/W5100.c ****  * \brief Execute a safe read of the received data size
 929:.\Generated_Source\PSoC4/W5100.c ****  * \param socket the addressed socketfrom which the data will be read
 930:.\Generated_Source\PSoC4/W5100.c ****  * \returns the number of bytes waiting in the recieve buffer of the socket
 931:.\Generated_Source\PSoC4/W5100.c ****  */
 932:.\Generated_Source\PSoC4/W5100.c **** static uint16 W5100_GetRxSize( uint8 socket )
 933:.\Generated_Source\PSoC4/W5100.c **** {
 934:.\Generated_Source\PSoC4/W5100.c **** 	uint16 first, second;
 935:.\Generated_Source\PSoC4/W5100.c **** 	
 936:.\Generated_Source\PSoC4/W5100.c **** 	first = 0;
 937:.\Generated_Source\PSoC4/W5100.c **** 	second = 0;
 938:.\Generated_Source\PSoC4/W5100.c **** 	do {
 939:.\Generated_Source\PSoC4/W5100.c **** 		first = W5100_GetSocketRxSize( socket );
 940:.\Generated_Source\PSoC4/W5100.c **** 		if (first != 0) {
 941:.\Generated_Source\PSoC4/W5100.c **** 			second = W5100_GetSocketRxSize( socket );
 942:.\Generated_Source\PSoC4/W5100.c **** 		}
 943:.\Generated_Source\PSoC4/W5100.c **** 	}
 944:.\Generated_Source\PSoC4/W5100.c **** 	while (first != second );
 945:.\Generated_Source\PSoC4/W5100.c **** 	
 946:.\Generated_Source\PSoC4/W5100.c **** 	return second;
 947:.\Generated_Source\PSoC4/W5100.c **** }
 948:.\Generated_Source\PSoC4/W5100.c **** /* ------------------------------------------------------------------------ */
 949:.\Generated_Source\PSoC4/W5100.c **** 
 950:.\Generated_Source\PSoC4/W5100.c **** // END Socket Register access section
 951:.\Generated_Source\PSoC4/W5100.c **** #endif
 952:.\Generated_Source\PSoC4/W5100.c **** /* ======================================================================== */
 953:.\Generated_Source\PSoC4/W5100.c **** /* W5100 Data Buffer Memory access primitives */
 954:.\Generated_Source\PSoC4/W5100.c **** #if (1)
 955:.\Generated_Source\PSoC4/W5100.c **** /* ------------------------------------------------------------------------ */
 956:.\Generated_Source\PSoC4/W5100.c **** /**
 957:.\Generated_Source\PSoC4/W5100.c ****  * \brief Transfer data from a local data buffer to the chip Tx fifo
 958:.\Generated_Source\PSoC4/W5100.c ****  * \param socket the socket buffer to which the data will be written
 959:.\Generated_Source\PSoC4/W5100.c ****  * \param offset The offest in to the socket buffer
 960:.\Generated_Source\PSoC4/W5100.c ****  * \param *buffer pointer to the local buffer to copy to the transmit fifo
 961:.\Generated_Source\PSoC4/W5100.c ****  * \param length the number of bytes to be copied to the transmit fifo
 962:.\Generated_Source\PSoC4/W5100.c ****  */
 963:.\Generated_Source\PSoC4/W5100.c **** static void W5100_ProcessTxData(uint8 socket, uint16 offset, uint8* buffer, uint16 length)
 404              		.loc 1 963 0
 405              		.cfi_startproc
 406              	.LVL52:
 407 0000 F7B5     		push	{r0, r1, r2, r4, r5, r6, r7, lr}
 408              	.LCFI7:
 409              		.cfi_def_cfa_offset 32
 410              		.cfi_offset 0, -32
 411              		.cfi_offset 1, -28
 412              		.cfi_offset 2, -24
 413              		.cfi_offset 4, -20
 414              		.cfi_offset 5, -16
 415              		.cfi_offset 6, -12
 416              		.cfi_offset 7, -8
 417              		.cfi_offset 14, -4
 418              		.loc 1 963 0
 419 0002 141C     		mov	r4, r2
 420              	.LBB14:
 421              	.LBB15:
 860:.\Generated_Source\PSoC4/W5100.c **** { return W5100_W51_Read16(W5100_SOCKET_BASE(socket)+0x24); }
 422              		.loc 1 860 0
ARM GAS  C:\Users\CHUCK~1.ERH\AppData\Local\Temp\cc506n3q.s 			page 26


 423 0004 154A     		ldr	r2, .L32
 424              	.LVL53:
 425 0006 0702     		lsl	r7, r0, #8
 426              	.LBE15:
 427              	.LBE14:
 428              		.loc 1 963 0
 429 0008 051C     		mov	r5, r0
 430              	.LBB19:
 431              	.LBB16:
 860:.\Generated_Source\PSoC4/W5100.c **** { return W5100_W51_Read16(W5100_SOCKET_BASE(socket)+0x24); }
 432              		.loc 1 860 0
 433 000a B818     		add	r0, r7, r2
 434              	.LVL54:
 435 000c 87B2     		uxth	r7, r0
 436 000e 381C     		mov	r0, r7
 437              	.LBE16:
 438              	.LBE19:
 439              		.loc 1 963 0
 440 0010 0E1C     		mov	r6, r1
 441              	.LBB20:
 442              	.LBB17:
 860:.\Generated_Source\PSoC4/W5100.c **** { return W5100_W51_Read16(W5100_SOCKET_BASE(socket)+0x24); }
 443              		.loc 1 860 0
 444 0012 FFF7FEFF 		bl	W5100_W51_Read16
 445              	.LVL55:
 446              	.LBE17:
 447              	.LBE20:
 964:.\Generated_Source\PSoC4/W5100.c **** {
 965:.\Generated_Source\PSoC4/W5100.c **** 	uint16 addr;
 966:.\Generated_Source\PSoC4/W5100.c **** 	uint16 base;
 967:.\Generated_Source\PSoC4/W5100.c **** 	uint16 PointerOffset;
 968:.\Generated_Source\PSoC4/W5100.c **** 	uint16 size;
 969:.\Generated_Source\PSoC4/W5100.c **** 	
 970:.\Generated_Source\PSoC4/W5100.c **** 	/*
 971:.\Generated_Source\PSoC4/W5100.c **** 	 * Read the offset pointer, and calculate the base address for the start of write
 972:.\Generated_Source\PSoC4/W5100.c **** 	 * in to the chip buffers.  Written data will be offset by the offset byte count
 973:.\Generated_Source\PSoC4/W5100.c **** 	 * specified in the parameters.
 974:.\Generated_Source\PSoC4/W5100.c **** 	 */
 975:.\Generated_Source\PSoC4/W5100.c **** 	base = W5100_GetSocketTxWritePtr(socket) + offset;
 976:.\Generated_Source\PSoC4/W5100.c **** 	PointerOffset = (base & 0x07FF);
 977:.\Generated_Source\PSoC4/W5100.c **** 	addr = PointerOffset + W5100_SOCKET_TX_BASE(socket);
 448              		.loc 1 977 0
 449 0016 8022     		mov	r2, #128
 976:.\Generated_Source\PSoC4/W5100.c **** 	PointerOffset = (base & 0x07FF);
 450              		.loc 1 976 0
 451 0018 4305     		lsl	r3, r0, #21
 452              		.loc 1 977 0
 453 001a ED03     		lsl	r5, r5, #15
 454              	.LVL56:
 455              	.LBB21:
 456              	.LBB18:
 860:.\Generated_Source\PSoC4/W5100.c **** { return W5100_W51_Read16(W5100_SOCKET_BASE(socket)+0x24); }
 457              		.loc 1 860 0
 458 001c 0190     		str	r0, [sp, #4]
 459              	.LVL57:
 460              	.LBE18:
 461              	.LBE21:
ARM GAS  C:\Users\CHUCK~1.ERH\AppData\Local\Temp\cc506n3q.s 			page 27


 462              		.loc 1 977 0
 463 001e D001     		lsl	r0, r2, #7
 976:.\Generated_Source\PSoC4/W5100.c **** 	PointerOffset = (base & 0x07FF);
 464              		.loc 1 976 0
 465 0020 590D     		lsr	r1, r3, #21
 466              	.LVL58:
 467              		.loc 1 977 0
 468 0022 2B18     		add	r3, r5, r0
 469 0024 9DB2     		uxth	r5, r3
 978:.\Generated_Source\PSoC4/W5100.c **** 	/* calculate the number of bytes from the pointer to the end of the buffer */
 979:.\Generated_Source\PSoC4/W5100.c **** 	size = 0x0800 - PointerOffset;
 470              		.loc 1 979 0
 471 0026 8023     		mov	r3, #128
 977:.\Generated_Source\PSoC4/W5100.c **** 	addr = PointerOffset + W5100_SOCKET_TX_BASE(socket);
 472              		.loc 1 977 0
 473 0028 4A19     		add	r2, r1, r5
 474 002a 0095     		str	r5, [sp]
 475              		.loc 1 979 0
 476 002c 1D01     		lsl	r5, r3, #4
 477 002e 691A     		sub	r1, r5, r1
 478              	.LVL59:
 479 0030 8DB2     		uxth	r5, r1
 977:.\Generated_Source\PSoC4/W5100.c **** 	addr = PointerOffset + W5100_SOCKET_TX_BASE(socket);
 480              		.loc 1 977 0
 481 0032 90B2     		uxth	r0, r2
 482              	.LVL60:
 980:.\Generated_Source\PSoC4/W5100.c **** 	
 981:.\Generated_Source\PSoC4/W5100.c **** 	/*
 982:.\Generated_Source\PSoC4/W5100.c **** 	 * is there enough space to write the complete packet
 983:.\Generated_Source\PSoC4/W5100.c **** 	 * or, shoudl the data be split in to two writes.
 984:.\Generated_Source\PSoC4/W5100.c **** 	 */
 985:.\Generated_Source\PSoC4/W5100.c **** 	if ( length > size) {
 986:.\Generated_Source\PSoC4/W5100.c **** 		/*
 987:.\Generated_Source\PSoC4/W5100.c **** 		 * There is more data to send than will fit from the pointer to the end
 988:.\Generated_Source\PSoC4/W5100.c **** 		 * of the memory, so we will write the data in two chunks.  First, write the
 989:.\Generated_Source\PSoC4/W5100.c **** 		 * data from the pointer to the end of the buffer, then write the portion
 990:.\Generated_Source\PSoC4/W5100.c **** 		 * remaining to the start (base ptr) of the socket buffer
 991:.\Generated_Source\PSoC4/W5100.c **** 		 */
 992:.\Generated_Source\PSoC4/W5100.c **** 		W5100_W51_WriteBlock(addr, buffer, size);
 483              		.loc 1 992 0
 484 0034 311C     		mov	r1, r6
 485              	.LVL61:
 993:.\Generated_Source\PSoC4/W5100.c **** 		W5100_W51_WriteBlock(W5100_SOCKET_TX_BASE(socket), &buffer[size], length - size);
 994:.\Generated_Source\PSoC4/W5100.c **** 	}
 995:.\Generated_Source\PSoC4/W5100.c **** 	else {
 996:.\Generated_Source\PSoC4/W5100.c **** 		/* 
 997:.\Generated_Source\PSoC4/W5100.c **** 		 * there is enough available space from the write point to the end of buffer
 998:.\Generated_Source\PSoC4/W5100.c **** 		 * to hold the whole packe of information, so just write it to the memory
 999:.\Generated_Source\PSoC4/W5100.c **** 		 */
1000:.\Generated_Source\PSoC4/W5100.c **** 		W5100_W51_WriteBlock(addr,buffer,length);
 486              		.loc 1 1000 0
 487 0036 221E     		sub	r2, r4, #0
 488              	.LVL62:
 985:.\Generated_Source\PSoC4/W5100.c **** 	if ( length > size) {
 489              		.loc 1 985 0
 490 0038 AA42     		cmp	r2, r5
 491 003a 06D9     		bls	.L31
ARM GAS  C:\Users\CHUCK~1.ERH\AppData\Local\Temp\cc506n3q.s 			page 28


 992:.\Generated_Source\PSoC4/W5100.c **** 		W5100_W51_WriteBlock(addr, buffer, size);
 492              		.loc 1 992 0
 493 003c 2A1C     		mov	r2, r5
 494 003e FFF7FEFF 		bl	W5100_W51_WriteBlock
 495              	.LVL63:
 993:.\Generated_Source\PSoC4/W5100.c **** 		W5100_W51_WriteBlock(W5100_SOCKET_TX_BASE(socket), &buffer[size], length - size);
 496              		.loc 1 993 0
 497 0042 7119     		add	r1, r6, r5
 498 0044 0098     		ldr	r0, [sp]
 499 0046 661B     		sub	r6, r4, r5
 500              	.LVL64:
 501 0048 B2B2     		uxth	r2, r6
 502              	.L31:
 503              		.loc 1 1000 0
 504 004a FFF7FEFF 		bl	W5100_W51_WriteBlock
 505              	.LVL65:
1001:.\Generated_Source\PSoC4/W5100.c **** 	}
1002:.\Generated_Source\PSoC4/W5100.c **** 	/* move the write pointer */
1003:.\Generated_Source\PSoC4/W5100.c **** 	base += length;
 506              		.loc 1 1003 0
 507 004e 0198     		ldr	r0, [sp, #4]
1004:.\Generated_Source\PSoC4/W5100.c **** 	/* 
1005:.\Generated_Source\PSoC4/W5100.c **** 	 * Store the new write pointer so that the device knows that there is data waiting
1006:.\Generated_Source\PSoC4/W5100.c **** 	 * to be transmitted over the link.
1007:.\Generated_Source\PSoC4/W5100.c **** 	 */
1008:.\Generated_Source\PSoC4/W5100.c **** 	W5100_SetSocketTxWritePtr(socket, base);
1009:.\Generated_Source\PSoC4/W5100.c **** }
 508              		.loc 1 1009 0
 509              		@ sp needed for prologue
1003:.\Generated_Source\PSoC4/W5100.c **** 	base += length;
 510              		.loc 1 1003 0
 511 0050 0419     		add	r4, r0, r4
 512              	.LVL66:
 513              	.LBB22:
 514              	.LBB23:
 852:.\Generated_Source\PSoC4/W5100.c **** { W5100_W51_Write16(W5100_SOCKET_BASE(socket)+0x24,ptr); }
 515              		.loc 1 852 0
 516 0052 A1B2     		uxth	r1, r4
 517 0054 381C     		mov	r0, r7
 518 0056 FFF7FEFF 		bl	W5100_W51_Write16
 519              	.LVL67:
 520              	.LVL68:
 521              	.LBE23:
 522              	.LBE22:
 523              		.loc 1 1009 0
 524 005a F7BD     		pop	{r0, r1, r2, r4, r5, r6, r7, pc}
 525              	.L33:
 526              		.align	2
 527              	.L32:
 528 005c 24040000 		.word	1060
 529              		.cfi_endproc
 530              	.LFE111:
 531              		.size	W5100_ProcessTxData.constprop.2, .-W5100_ProcessTxData.constprop.2
 532              		.section	.text.W5100_GetRxSize,"ax",%progbits
 533              		.align	1
 534              		.code	16
 535              		.thumb_func
ARM GAS  C:\Users\CHUCK~1.ERH\AppData\Local\Temp\cc506n3q.s 			page 29


 536              		.type	W5100_GetRxSize, %function
 537              	W5100_GetRxSize:
 538              	.LFB71:
 933:.\Generated_Source\PSoC4/W5100.c **** {
 539              		.loc 1 933 0
 540              		.cfi_startproc
 541              	.LVL69:
 542              	.LBB28:
 543              	.LBB29:
 868:.\Generated_Source\PSoC4/W5100.c **** { return W5100_W51_Read16(W5100_SOCKET_BASE(socket)+0x26); }
 544              		.loc 1 868 0
 545 0000 094B     		ldr	r3, .L41
 546              	.LBE29:
 547              	.LBE28:
 933:.\Generated_Source\PSoC4/W5100.c **** {
 548              		.loc 1 933 0
 549 0002 70B5     		push	{r4, r5, r6, lr}
 550              	.LCFI8:
 551              		.cfi_def_cfa_offset 16
 552              		.cfi_offset 4, -16
 553              		.cfi_offset 5, -12
 554              		.cfi_offset 6, -8
 555              		.cfi_offset 14, -4
 556              	.LBB31:
 557              	.LBB30:
 868:.\Generated_Source\PSoC4/W5100.c **** { return W5100_W51_Read16(W5100_SOCKET_BASE(socket)+0x26); }
 558              		.loc 1 868 0
 559 0004 0602     		lsl	r6, r0, #8
 560 0006 F018     		add	r0, r6, r3
 561              	.LVL70:
 562 0008 86B2     		uxth	r6, r0
 937:.\Generated_Source\PSoC4/W5100.c **** 	second = 0;
 563              		.loc 1 937 0
 564 000a 0025     		mov	r5, #0
 565              	.LVL71:
 566              	.L36:
 868:.\Generated_Source\PSoC4/W5100.c **** { return W5100_W51_Read16(W5100_SOCKET_BASE(socket)+0x26); }
 567              		.loc 1 868 0
 568 000c 301C     		mov	r0, r6
 569 000e FFF7FEFF 		bl	W5100_W51_Read16
 570              	.LVL72:
 571 0012 041E     		sub	r4, r0, #0
 572              	.LBE30:
 573              	.LBE31:
 940:.\Generated_Source\PSoC4/W5100.c **** 		if (first != 0) {
 574              		.loc 1 940 0
 575 0014 03D0     		beq	.L35
 576              	.LBB32:
 577              	.LBB33:
 868:.\Generated_Source\PSoC4/W5100.c **** { return W5100_W51_Read16(W5100_SOCKET_BASE(socket)+0x26); }
 578              		.loc 1 868 0
 579 0016 301C     		mov	r0, r6
 580 0018 FFF7FEFF 		bl	W5100_W51_Read16
 581              	.LVL73:
 582 001c 051C     		mov	r5, r0
 583              	.LVL74:
 584              	.L35:
ARM GAS  C:\Users\CHUCK~1.ERH\AppData\Local\Temp\cc506n3q.s 			page 30


 585              	.LBE33:
 586              	.LBE32:
 944:.\Generated_Source\PSoC4/W5100.c **** 	while (first != second );
 587              		.loc 1 944 0
 588 001e AC42     		cmp	r4, r5
 589 0020 F4D1     		bne	.L36
 947:.\Generated_Source\PSoC4/W5100.c **** }
 590              		.loc 1 947 0
 591 0022 201C     		mov	r0, r4
 592              		@ sp needed for prologue
 593              	.LVL75:
 594 0024 70BD     		pop	{r4, r5, r6, pc}
 595              	.L42:
 596 0026 C046     		.align	2
 597              	.L41:
 598 0028 26040000 		.word	1062
 599              		.cfi_endproc
 600              	.LFE71:
 601              		.size	W5100_GetRxSize, .-W5100_GetRxSize
 602              		.section	.text.W5100_W51_ReadBlock,"ax",%progbits
 603              		.align	1
 604              		.code	16
 605              		.thumb_func
 606              		.type	W5100_W51_ReadBlock, %function
 607              	W5100_W51_ReadBlock:
 608              	.LFB10:
 448:.\Generated_Source\PSoC4/W5100.c **** {
 609              		.loc 1 448 0
 610              		.cfi_startproc
 611              	.LVL76:
 612 0000 F8B5     		push	{r3, r4, r5, r6, r7, lr}
 613              	.LCFI9:
 614              		.cfi_def_cfa_offset 24
 615              		.cfi_offset 3, -24
 616              		.cfi_offset 4, -20
 617              		.cfi_offset 5, -16
 618              		.cfi_offset 6, -12
 619              		.cfi_offset 7, -8
 620              		.cfi_offset 14, -4
 448:.\Generated_Source\PSoC4/W5100.c **** {
 621              		.loc 1 448 0
 622 0002 061C     		mov	r6, r0
 623 0004 0F1C     		mov	r7, r1
 624 0006 151C     		mov	r5, r2
 451:.\Generated_Source\PSoC4/W5100.c **** 	for(index=0;index<length;++index) {
 625              		.loc 1 451 0
 626 0008 0024     		mov	r4, #0
 627              	.LVL77:
 628              	.L44:
 451:.\Generated_Source\PSoC4/W5100.c **** 	for(index=0;index<length;++index) {
 629              		.loc 1 451 0 is_stmt 0 discriminator 1
 630 000a AC42     		cmp	r4, r5
 631 000c 06DA     		bge	.L46
 632              	.L45:
 447:.\Generated_Source\PSoC4/W5100.c **** static void W5100_W51_ReadBlock(uint16 addr, uint8* buffer, uint16 length)
 633              		.loc 1 447 0 is_stmt 1 discriminator 2
 634 000e 3019     		add	r0, r6, r4
ARM GAS  C:\Users\CHUCK~1.ERH\AppData\Local\Temp\cc506n3q.s 			page 31


 452:.\Generated_Source\PSoC4/W5100.c **** 		buffer[index] = W5100_W51_Read(addr+index);
 635              		.loc 1 452 0 discriminator 2
 636 0010 80B2     		uxth	r0, r0
 637 0012 FFF7FEFF 		bl	W5100_W51_Read
 638              	.LVL78:
 639 0016 3855     		strb	r0, [r7, r4]
 451:.\Generated_Source\PSoC4/W5100.c **** 	for(index=0;index<length;++index) {
 640              		.loc 1 451 0 discriminator 2
 641 0018 0134     		add	r4, r4, #1
 642              	.LVL79:
 643 001a F6E7     		b	.L44
 644              	.L46:
 454:.\Generated_Source\PSoC4/W5100.c **** }
 645              		.loc 1 454 0
 646              		@ sp needed for prologue
 647              	.LVL80:
 648              	.LVL81:
 649 001c F8BD     		pop	{r3, r4, r5, r6, r7, pc}
 650              		.cfi_endproc
 651              	.LFE10:
 652              		.size	W5100_W51_ReadBlock, .-W5100_W51_ReadBlock
 653              		.section	.text.W5100_ProcessRxData.constprop.1,"ax",%progbits
 654              		.align	1
 655              		.code	16
 656              		.thumb_func
 657              		.type	W5100_ProcessRxData.constprop.1, %function
 658              	W5100_ProcessRxData.constprop.1:
 659              	.LFB112:
1010:.\Generated_Source\PSoC4/W5100.c **** /* ------------------------------------------------------------------------ */
1011:.\Generated_Source\PSoC4/W5100.c **** /**
1012:.\Generated_Source\PSoC4/W5100.c ****  * \brief Transfer data from the chip receive buffer to a local buffer
1013:.\Generated_Source\PSoC4/W5100.c ****  * \param socket the socket buffer from which the data will be read
1014:.\Generated_Source\PSoC4/W5100.c ****  * \param offset The offest in to the socket buffer
1015:.\Generated_Source\PSoC4/W5100.c ****  * \param *buffer pointer to the local buffer to hold the receive fifo data
1016:.\Generated_Source\PSoC4/W5100.c ****  * \param length the max number of bytes to be copied to the local buffer
1017:.\Generated_Source\PSoC4/W5100.c ****  * \param flags Flag settings to control read fifo options (lookahead)
1018:.\Generated_Source\PSoC4/W5100.c ****  */
1019:.\Generated_Source\PSoC4/W5100.c **** static void W5100_ProcessRxData(uint8 socket, uint16 offset, uint8* buffer, uint16 length, uint8 fl
 660              		.loc 1 1019 0
 661              		.cfi_startproc
 662              	.LVL82:
 663 0000 F7B5     		push	{r0, r1, r2, r4, r5, r6, r7, lr}
 664              	.LCFI10:
 665              		.cfi_def_cfa_offset 32
 666              		.cfi_offset 0, -32
 667              		.cfi_offset 1, -28
 668              		.cfi_offset 2, -24
 669              		.cfi_offset 4, -20
 670              		.cfi_offset 5, -16
 671              		.cfi_offset 6, -12
 672              		.cfi_offset 7, -8
 673              		.cfi_offset 14, -4
 674              		.loc 1 1019 0
 675 0002 161C     		mov	r6, r2
 676              	.LBB38:
 677              	.LBB39:
 884:.\Generated_Source\PSoC4/W5100.c **** { return W5100_W51_Read16(W5100_SOCKET_BASE(socket)+0x28); }
ARM GAS  C:\Users\CHUCK~1.ERH\AppData\Local\Temp\cc506n3q.s 			page 32


 678              		.loc 1 884 0
 679 0004 8522     		mov	r2, #133
 680              	.LVL83:
 681 0006 0702     		lsl	r7, r0, #8
 682              	.LBE39:
 683              	.LBE38:
 684              		.loc 1 1019 0
 685 0008 051C     		mov	r5, r0
 686              	.LBB43:
 687              	.LBB40:
 884:.\Generated_Source\PSoC4/W5100.c **** { return W5100_W51_Read16(W5100_SOCKET_BASE(socket)+0x28); }
 688              		.loc 1 884 0
 689 000a D000     		lsl	r0, r2, #3
 690              	.LVL84:
 691              	.LBE40:
 692              	.LBE43:
 693              		.loc 1 1019 0
 694 000c 0091     		str	r1, [sp]
 695              	.LBB44:
 696              	.LBB41:
 884:.\Generated_Source\PSoC4/W5100.c **** { return W5100_W51_Read16(W5100_SOCKET_BASE(socket)+0x28); }
 697              		.loc 1 884 0
 698 000e 3918     		add	r1, r7, r0
 699              	.LVL85:
 700 0010 8FB2     		uxth	r7, r1
 701 0012 381C     		mov	r0, r7
 702              	.LBE41:
 703              	.LBE44:
 704              		.loc 1 1019 0
 705 0014 1C1C     		mov	r4, r3
 706              	.LBB45:
 707              	.LBB42:
 884:.\Generated_Source\PSoC4/W5100.c **** { return W5100_W51_Read16(W5100_SOCKET_BASE(socket)+0x28); }
 708              		.loc 1 884 0
 709 0016 FFF7FEFF 		bl	W5100_W51_Read16
 710              	.LVL86:
 711              	.LBE42:
 712              	.LBE45:
1020:.\Generated_Source\PSoC4/W5100.c **** {
1021:.\Generated_Source\PSoC4/W5100.c **** 	uint16 addr;
1022:.\Generated_Source\PSoC4/W5100.c **** 	uint16 base;
1023:.\Generated_Source\PSoC4/W5100.c **** 	uint16 PointerOffset;
1024:.\Generated_Source\PSoC4/W5100.c **** 	uint16 size;
1025:.\Generated_Source\PSoC4/W5100.c **** 	
1026:.\Generated_Source\PSoC4/W5100.c **** 	/*
1027:.\Generated_Source\PSoC4/W5100.c **** 	 * Read the offset pointer, and calculate the base address for the start of read
1028:.\Generated_Source\PSoC4/W5100.c **** 	 * in to the chip buffers.  The data read will be offset by the offset byte count
1029:.\Generated_Source\PSoC4/W5100.c **** 	 * specified in the parameters.
1030:.\Generated_Source\PSoC4/W5100.c **** 	 */
1031:.\Generated_Source\PSoC4/W5100.c **** 	base = W5100_GetSocketRxReadPtr(socket) + offset;
 713              		.loc 1 1031 0
 714 001a 009B     		ldr	r3, [sp]
1032:.\Generated_Source\PSoC4/W5100.c **** 	PointerOffset = (base & 0x07FF);
1033:.\Generated_Source\PSoC4/W5100.c **** 	addr = PointerOffset + W5100_SOCKET_RX_BASE(socket);
 715              		.loc 1 1033 0
 716 001c ED03     		lsl	r5, r5, #15
 717              	.LVL87:
ARM GAS  C:\Users\CHUCK~1.ERH\AppData\Local\Temp\cc506n3q.s 			page 33


1031:.\Generated_Source\PSoC4/W5100.c **** 	base = W5100_GetSocketRxReadPtr(socket) + offset;
 718              		.loc 1 1031 0
 719 001e C218     		add	r2, r0, r3
 720 0020 90B2     		uxth	r0, r2
 721              		.loc 1 1033 0
 722 0022 C022     		mov	r2, #192
1032:.\Generated_Source\PSoC4/W5100.c **** 	PointerOffset = (base & 0x07FF);
 723              		.loc 1 1032 0
 724 0024 4105     		lsl	r1, r0, #21
1031:.\Generated_Source\PSoC4/W5100.c **** 	base = W5100_GetSocketRxReadPtr(socket) + offset;
 725              		.loc 1 1031 0
 726 0026 0090     		str	r0, [sp]
 727              	.LVL88:
 728              		.loc 1 1033 0
 729 0028 D001     		lsl	r0, r2, #7
1032:.\Generated_Source\PSoC4/W5100.c **** 	PointerOffset = (base & 0x07FF);
 730              		.loc 1 1032 0
 731 002a 4B0D     		lsr	r3, r1, #21
 732              	.LVL89:
 733              		.loc 1 1033 0
 734 002c 2918     		add	r1, r5, r0
 735 002e 8DB2     		uxth	r5, r1
1034:.\Generated_Source\PSoC4/W5100.c **** 	/* calculate the number of bytes from the pointer to the end of the buffer */
1035:.\Generated_Source\PSoC4/W5100.c **** 	size = 0x0800 - PointerOffset;
 736              		.loc 1 1035 0
 737 0030 8021     		mov	r1, #128
1033:.\Generated_Source\PSoC4/W5100.c **** 	addr = PointerOffset + W5100_SOCKET_RX_BASE(socket);
 738              		.loc 1 1033 0
 739 0032 5A19     		add	r2, r3, r5
 740 0034 0195     		str	r5, [sp, #4]
 741              		.loc 1 1035 0
 742 0036 0D01     		lsl	r5, r1, #4
 743 0038 EB1A     		sub	r3, r5, r3
 744              	.LVL90:
 745 003a 9DB2     		uxth	r5, r3
1033:.\Generated_Source\PSoC4/W5100.c **** 	addr = PointerOffset + W5100_SOCKET_RX_BASE(socket);
 746              		.loc 1 1033 0
 747 003c 90B2     		uxth	r0, r2
 748              	.LVL91:
1036:.\Generated_Source\PSoC4/W5100.c **** 	/*
1037:.\Generated_Source\PSoC4/W5100.c **** 	 * is there enough space to read the complete packet
1038:.\Generated_Source\PSoC4/W5100.c **** 	 * or, should the data be split in to two reads.
1039:.\Generated_Source\PSoC4/W5100.c **** 	 */
1040:.\Generated_Source\PSoC4/W5100.c **** 	if ( length > size) {
1041:.\Generated_Source\PSoC4/W5100.c **** 		/*
1042:.\Generated_Source\PSoC4/W5100.c **** 		 * There is more data to send than will fit from the pointer to the end
1043:.\Generated_Source\PSoC4/W5100.c **** 		 * of the memory, so we will write the data in two chunks.  First, write the
1044:.\Generated_Source\PSoC4/W5100.c **** 		 * data from the pointer to the end of the buffer, then write the portion
1045:.\Generated_Source\PSoC4/W5100.c **** 		 * remaining to the start (base ptr) of the socket buffer
1046:.\Generated_Source\PSoC4/W5100.c **** 		 */
1047:.\Generated_Source\PSoC4/W5100.c **** 		W5100_W51_ReadBlock(addr, buffer, size);
 749              		.loc 1 1047 0
 750 003e 311C     		mov	r1, r6
1048:.\Generated_Source\PSoC4/W5100.c **** 		W5100_W51_ReadBlock(W5100_SOCKET_RX_BASE(socket), &buffer[size], length - size);
1049:.\Generated_Source\PSoC4/W5100.c **** 	}
1050:.\Generated_Source\PSoC4/W5100.c **** 	else {
1051:.\Generated_Source\PSoC4/W5100.c **** 		/* 
ARM GAS  C:\Users\CHUCK~1.ERH\AppData\Local\Temp\cc506n3q.s 			page 34


1052:.\Generated_Source\PSoC4/W5100.c **** 		 * there is enough available space from the write point to the end of buffer
1053:.\Generated_Source\PSoC4/W5100.c **** 		 * to hold the whole packe of information, so just write it to the memory
1054:.\Generated_Source\PSoC4/W5100.c **** 		 */
1055:.\Generated_Source\PSoC4/W5100.c **** 		W5100_W51_ReadBlock(addr,buffer,length);
 751              		.loc 1 1055 0
 752 0040 221E     		sub	r2, r4, #0
 753              	.LVL92:
1040:.\Generated_Source\PSoC4/W5100.c **** 	if ( length > size) {
 754              		.loc 1 1040 0
 755 0042 AA42     		cmp	r2, r5
 756 0044 06D9     		bls	.L50
1047:.\Generated_Source\PSoC4/W5100.c **** 		W5100_W51_ReadBlock(addr, buffer, size);
 757              		.loc 1 1047 0
 758 0046 2A1C     		mov	r2, r5
 759 0048 FFF7FEFF 		bl	W5100_W51_ReadBlock
 760              	.LVL93:
1048:.\Generated_Source\PSoC4/W5100.c **** 		W5100_W51_ReadBlock(W5100_SOCKET_RX_BASE(socket), &buffer[size], length - size);
 761              		.loc 1 1048 0
 762 004c 7119     		add	r1, r6, r5
 763 004e 0198     		ldr	r0, [sp, #4]
 764 0050 661B     		sub	r6, r4, r5
 765              	.LVL94:
 766 0052 B2B2     		uxth	r2, r6
 767              	.L50:
 768              		.loc 1 1055 0
 769 0054 FFF7FEFF 		bl	W5100_W51_ReadBlock
 770              	.LVL95:
1056:.\Generated_Source\PSoC4/W5100.c **** 	}
1057:.\Generated_Source\PSoC4/W5100.c **** 	if ( (flags & 0x01) == 0 ) { /* V1.1: Added ==0 condition to lookahead flag check */
1058:.\Generated_Source\PSoC4/W5100.c **** 		/* move the write pointer */
1059:.\Generated_Source\PSoC4/W5100.c **** 		base += length;
 771              		.loc 1 1059 0
 772 0058 0098     		ldr	r0, [sp]
1060:.\Generated_Source\PSoC4/W5100.c **** 		/* 
1061:.\Generated_Source\PSoC4/W5100.c **** 		 * Store the new write pointer so that the device knows that there is data waiting
1062:.\Generated_Source\PSoC4/W5100.c **** 		 * to be transmitted over the link.
1063:.\Generated_Source\PSoC4/W5100.c **** 		 */
1064:.\Generated_Source\PSoC4/W5100.c **** 		W5100_SetSocketRxReadPtr(socket, base);
1065:.\Generated_Source\PSoC4/W5100.c **** 	}
1066:.\Generated_Source\PSoC4/W5100.c **** }
 773              		.loc 1 1066 0
 774              		@ sp needed for prologue
1059:.\Generated_Source\PSoC4/W5100.c **** 		base += length;
 775              		.loc 1 1059 0
 776 005a 0419     		add	r4, r0, r4
 777              	.LVL96:
 778              	.LBB46:
 779              	.LBB47:
 876:.\Generated_Source\PSoC4/W5100.c **** { W5100_W51_Write16(W5100_SOCKET_BASE(socket)+0x28,ptr); }
 780              		.loc 1 876 0
 781 005c A1B2     		uxth	r1, r4
 782 005e 381C     		mov	r0, r7
 783 0060 FFF7FEFF 		bl	W5100_W51_Write16
 784              	.LVL97:
 785              	.LVL98:
 786              	.LBE47:
 787              	.LBE46:
ARM GAS  C:\Users\CHUCK~1.ERH\AppData\Local\Temp\cc506n3q.s 			page 35


 788              		.loc 1 1066 0
 789 0064 F7BD     		pop	{r0, r1, r2, r4, r5, r6, r7, pc}
 790              		.cfi_endproc
 791              	.LFE112:
 792              		.size	W5100_ProcessRxData.constprop.1, .-W5100_ProcessRxData.constprop.1
 793              		.section	.text.W5100_ExecuteSocketCommand,"ax",%progbits
 794              		.align	1
 795              		.code	16
 796              		.thumb_func
 797              		.type	W5100_ExecuteSocketCommand, %function
 798              	W5100_ExecuteSocketCommand:
 799              	.LFB69:
 892:.\Generated_Source\PSoC4/W5100.c **** {
 800              		.loc 1 892 0
 801              		.cfi_startproc
 802              	.LVL99:
 803 0000 38B5     		push	{r3, r4, r5, lr}
 804              	.LCFI11:
 805              		.cfi_def_cfa_offset 16
 806              		.cfi_offset 3, -16
 807              		.cfi_offset 4, -12
 808              		.cfi_offset 5, -8
 809              		.cfi_offset 14, -4
 810              	.LBB52:
 811              	.LBB53:
 652:.\Generated_Source\PSoC4/W5100.c **** { W5100_W51_Write(W5100_SOCKET_BASE(socket)+1, cmd); }
 812              		.loc 1 652 0
 813 0002 0B4B     		ldr	r3, .L58
 814 0004 0502     		lsl	r5, r0, #8
 815 0006 E818     		add	r0, r5, r3
 816              	.LVL100:
 817 0008 85B2     		uxth	r5, r0
 818 000a C9B2     		uxtb	r1, r1
 819              	.LVL101:
 820 000c 281C     		mov	r0, r5
 821 000e FFF7FEFF 		bl	W5100_W51_Write
 822              	.LVL102:
 894:.\Generated_Source\PSoC4/W5100.c **** 	timeout = 0;
 823              		.loc 1 894 0
 824 0012 0024     		mov	r4, #0
 825              	.LVL103:
 826              	.L52:
 827              	.LBE53:
 828              	.LBE52:
 829              	.LBB54:
 830              	.LBB55:
 660:.\Generated_Source\PSoC4/W5100.c **** { return W5100_W51_Read(W5100_SOCKET_BASE(socket)+1); }
 831              		.loc 1 660 0 discriminator 1
 832 0014 281C     		mov	r0, r5
 833 0016 FFF7FEFF 		bl	W5100_W51_Read
 834              	.LVL104:
 835              	.LBE55:
 836              	.LBE54:
 897:.\Generated_Source\PSoC4/W5100.c **** 	while ( ( W5100_GetSocketCommand(socket) ) && (timeout < 125))
 837              		.loc 1 897 0 discriminator 1
 838 001a 0028     		cmp	r0, #0
 839 001c 06D0     		beq	.L53
ARM GAS  C:\Users\CHUCK~1.ERH\AppData\Local\Temp\cc506n3q.s 			page 36


 897:.\Generated_Source\PSoC4/W5100.c **** 	while ( ( W5100_GetSocketCommand(socket) ) && (timeout < 125))
 840              		.loc 1 897 0 is_stmt 0 discriminator 2
 841 001e 7D2C     		cmp	r4, #125
 842 0020 04D0     		beq	.L53
 843              	.L54:
 900:.\Generated_Source\PSoC4/W5100.c **** 		CyDelay(1);
 844              		.loc 1 900 0 is_stmt 1
 845 0022 0120     		mov	r0, #1
 899:.\Generated_Source\PSoC4/W5100.c **** 		++timeout;
 846              		.loc 1 899 0
 847 0024 0134     		add	r4, r4, #1
 848              	.LVL105:
 900:.\Generated_Source\PSoC4/W5100.c **** 		CyDelay(1);
 849              		.loc 1 900 0
 850 0026 FFF7FEFF 		bl	CyDelay
 851              	.LVL106:
 852 002a F3E7     		b	.L52
 853              	.L53:
 903:.\Generated_Source\PSoC4/W5100.c **** }
 854              		.loc 1 903 0
 855 002c 201C     		mov	r0, r4
 856              		@ sp needed for prologue
 857              	.LVL107:
 858 002e 38BD     		pop	{r3, r4, r5, pc}
 859              	.L59:
 860              		.align	2
 861              	.L58:
 862 0030 01040000 		.word	1025
 863              		.cfi_endproc
 864              	.LFE69:
 865              		.size	W5100_ExecuteSocketCommand, .-W5100_ExecuteSocketCommand
 866              		.section	.text.W5100_W51_GetIP.constprop.7,"ax",%progbits
 867              		.align	1
 868              		.code	16
 869              		.thumb_func
 870              		.type	W5100_W51_GetIP.constprop.7, %function
 871              	W5100_W51_GetIP.constprop.7:
 872              	.LFB106:
 386:.\Generated_Source\PSoC4/W5100.c **** static uint32 W5100_W51_GetIP( uint16 addr )
 873              		.loc 1 386 0
 874              		.cfi_startproc
 875              	.LVL108:
 876 0000 13B5     		push	{r0, r1, r4, lr}
 877              	.LCFI12:
 878              		.cfi_def_cfa_offset 16
 879              		.cfi_offset 0, -16
 880              		.cfi_offset 1, -12
 881              		.cfi_offset 4, -8
 882              		.cfi_offset 14, -4
 883              	.LVL109:
 393:.\Generated_Source\PSoC4/W5100.c **** 	*ip = 0;
 884              		.loc 1 393 0
 885 0002 0024     		mov	r4, #0
 886 0004 0194     		str	r4, [sp, #4]
 887              	.LVL110:
 888              	.L61:
 386:.\Generated_Source\PSoC4/W5100.c **** static uint32 W5100_W51_GetIP( uint16 addr )
ARM GAS  C:\Users\CHUCK~1.ERH\AppData\Local\Temp\cc506n3q.s 			page 37


 889              		.loc 1 386 0
 890 0006 201C     		mov	r0, r4
 891 0008 0F30     		add	r0, r0, #15
 395:.\Generated_Source\PSoC4/W5100.c **** 		buffer[index] = W5100_W51_Read(addr+index);
 892              		.loc 1 395 0
 893 000a 80B2     		uxth	r0, r0
 894 000c FFF7FEFF 		bl	W5100_W51_Read
 895              	.LVL111:
 896 0010 01AB     		add	r3, sp, #4
 897              	.LVL112:
 898 0012 E054     		strb	r0, [r4, r3]
 394:.\Generated_Source\PSoC4/W5100.c **** 	for(index=0;index<4;++index) {
 899              		.loc 1 394 0
 900 0014 0134     		add	r4, r4, #1
 901              	.LVL113:
 902 0016 042C     		cmp	r4, #4
 903 0018 F5D1     		bne	.L61
 398:.\Generated_Source\PSoC4/W5100.c **** }
 904              		.loc 1 398 0
 905 001a 0198     		ldr	r0, [sp, #4]
 906              		@ sp needed for prologue
 907              	.LVL114:
 908 001c 16BD     		pop	{r1, r2, r4, pc}
 909              		.cfi_endproc
 910              	.LFE106:
 911              		.size	W5100_W51_GetIP.constprop.7, .-W5100_W51_GetIP.constprop.7
 912              		.section	.text.W5100_SocketSend,"ax",%progbits
 913              		.align	1
 914              		.code	16
 915              		.thumb_func
 916              		.type	W5100_SocketSend, %function
 917              	W5100_SocketSend:
 918              	.LFB88:
1067:.\Generated_Source\PSoC4/W5100.c **** #endif
1068:.\Generated_Source\PSoC4/W5100.c **** /* ======================================================================== */
1069:.\Generated_Source\PSoC4/W5100.c **** /* Driver Initialization */
1070:.\Generated_Source\PSoC4/W5100.c **** #if (1)
1071:.\Generated_Source\PSoC4/W5100.c **** /* ------------------------------------------------------------------------ */
1072:.\Generated_Source\PSoC4/W5100.c **** void
1073:.\Generated_Source\PSoC4/W5100.c **** W5100_Init(uint8* mac, uint32 ip, uint32 subnet, uint32 gateway)
1074:.\Generated_Source\PSoC4/W5100.c **** {
1075:.\Generated_Source\PSoC4/W5100.c **** 	/*
1076:.\Generated_Source\PSoC4/W5100.c **** 	 * Initialize the device and the address configuration, then
1077:.\Generated_Source\PSoC4/W5100.c **** 	 * execute socket memory initialization for the local allocation
1078:.\Generated_Source\PSoC4/W5100.c **** 	 * table.
1079:.\Generated_Source\PSoC4/W5100.c **** 	 */
1080:.\Generated_Source\PSoC4/W5100.c **** 	int index;
1081:.\Generated_Source\PSoC4/W5100.c **** 	
1082:.\Generated_Source\PSoC4/W5100.c **** 	CyDelay( 250 ); /* Fixed Boot Delay or chip inintialization will fail */
1083:.\Generated_Source\PSoC4/W5100.c **** 	
1084:.\Generated_Source\PSoC4/W5100.c **** 	/* Reset the device */
1085:.\Generated_Source\PSoC4/W5100.c **** 	W5100_SetMode(0x80); /* Send Reset Command */
1086:.\Generated_Source\PSoC4/W5100.c **** 	/* Wait for the chip initialization delay */
1087:.\Generated_Source\PSoC4/W5100.c **** 	CyDelay( 10 );
1088:.\Generated_Source\PSoC4/W5100.c **** 	
1089:.\Generated_Source\PSoC4/W5100.c **** 	/* Close all of the socket, and clear the memory to make them available. */
1090:.\Generated_Source\PSoC4/W5100.c **** 	for(index=0;index<4;++index) {
ARM GAS  C:\Users\CHUCK~1.ERH\AppData\Local\Temp\cc506n3q.s 			page 38


1091:.\Generated_Source\PSoC4/W5100.c **** 		W5100_SocketClose( index );
1092:.\Generated_Source\PSoC4/W5100.c **** 	}
1093:.\Generated_Source\PSoC4/W5100.c **** 	/* Write the default configruation for memory size to the device */
1094:.\Generated_Source\PSoC4/W5100.c **** 	W5100_SetTxMemSize(0x55); /* 2K each */
1095:.\Generated_Source\PSoC4/W5100.c **** 	W5100_SetRxMemSize(0x55); /* 2K Each */
1096:.\Generated_Source\PSoC4/W5100.c **** 	/* Set device gateway address */
1097:.\Generated_Source\PSoC4/W5100.c **** 	W5100_SetGatewayAddress(gateway);
1098:.\Generated_Source\PSoC4/W5100.c **** 	W5100_SetSubnetMask( subnet );
1099:.\Generated_Source\PSoC4/W5100.c **** 	/* Store the subnet mask for later use, for ERRATA fix */
1100:.\Generated_Source\PSoC4/W5100.c **** 	W5100_SubnetMask = subnet;
1101:.\Generated_Source\PSoC4/W5100.c **** 	/* store the device mac */
1102:.\Generated_Source\PSoC4/W5100.c **** 	W5100_SetSourceMAC( mac );
1103:.\Generated_Source\PSoC4/W5100.c **** 	/* store the IP address */
1104:.\Generated_Source\PSoC4/W5100.c **** 	W5100_SetSourceIP( ip );
1105:.\Generated_Source\PSoC4/W5100.c **** 	/* clear pending interrupts */
1106:.\Generated_Source\PSoC4/W5100.c **** 	W5100_SetIR(0xFF);
1107:.\Generated_Source\PSoC4/W5100.c **** 	/* clear the subnet mask register (W5100 Errata Fix) */
1108:.\Generated_Source\PSoC4/W5100.c **** 	W5100_SetSubnetMask( 0 );
1109:.\Generated_Source\PSoC4/W5100.c **** }
1110:.\Generated_Source\PSoC4/W5100.c **** /* ------------------------------------------------------------------------ */
1111:.\Generated_Source\PSoC4/W5100.c **** void
1112:.\Generated_Source\PSoC4/W5100.c **** W5100_Start( void )
1113:.\Generated_Source\PSoC4/W5100.c **** {
1114:.\Generated_Source\PSoC4/W5100.c **** 	uint32 ip;
1115:.\Generated_Source\PSoC4/W5100.c **** 	uint32 gateway;
1116:.\Generated_Source\PSoC4/W5100.c **** 	uint32 sub;
1117:.\Generated_Source\PSoC4/W5100.c **** 	
1118:.\Generated_Source\PSoC4/W5100.c **** 	/* Check for SPI initialization */
1119:.\Generated_Source\PSoC4/W5100.c **** 	if (SPI_initVar == 0) {
1120:.\Generated_Source\PSoC4/W5100.c **** 		/*
1121:.\Generated_Source\PSoC4/W5100.c **** 		 * the hardware has not yet been initialized.  Before anything can be
1122:.\Generated_Source\PSoC4/W5100.c **** 		 * initialized within the driver, the external hardware must be started
1123:.\Generated_Source\PSoC4/W5100.c **** 		 */
1124:.\Generated_Source\PSoC4/W5100.c **** 		SPI_Start();
1125:.\Generated_Source\PSoC4/W5100.c **** 	}
1126:.\Generated_Source\PSoC4/W5100.c **** 		
1127:.\Generated_Source\PSoC4/W5100.c **** 	/* wait for power on PLL Lock */
1128:.\Generated_Source\PSoC4/W5100.c **** 	CyDelay( 10 );
1129:.\Generated_Source\PSoC4/W5100.c **** 	/* V1.2 new -- Parse MAC Address string */
1130:.\Generated_Source\PSoC4/W5100.c **** 	if ( W5100_ParseMAC("00-DE-AD-BE-EF-00", &W5100_MAC[0]) == CYRET_BAD_DATA) {
1131:.\Generated_Source\PSoC4/W5100.c **** 		W5100_MAC[0] = 0;
1132:.\Generated_Source\PSoC4/W5100.c **** 		W5100_MAC[1] = 0xDE;
1133:.\Generated_Source\PSoC4/W5100.c **** 		W5100_MAC[2] = 0xAD;
1134:.\Generated_Source\PSoC4/W5100.c **** 		W5100_MAC[3] = 0xC0;
1135:.\Generated_Source\PSoC4/W5100.c **** 		W5100_MAC[4] = 0xDE;
1136:.\Generated_Source\PSoC4/W5100.c **** 		W5100_MAC[5] = 0;
1137:.\Generated_Source\PSoC4/W5100.c **** 	}
1138:.\Generated_Source\PSoC4/W5100.c **** 	/* END of V1.2 Update ------ */
1139:.\Generated_Source\PSoC4/W5100.c **** 	ip = W5100_ParseIP("192.168.1.101");
1140:.\Generated_Source\PSoC4/W5100.c **** 	sub = W5100_ParseIP("255.255.255.0");
1141:.\Generated_Source\PSoC4/W5100.c **** 	gateway = W5100_ParseIP("192.168.1.1");
1142:.\Generated_Source\PSoC4/W5100.c **** 	/* Initialize the device with the default data */
1143:.\Generated_Source\PSoC4/W5100.c **** 	W5100_Init( &W5100_MAC[0], ip, sub, gateway  );
1144:.\Generated_Source\PSoC4/W5100.c **** }
1145:.\Generated_Source\PSoC4/W5100.c **** /* ------------------------------------------------------------------------ */
1146:.\Generated_Source\PSoC4/W5100.c **** uint32
1147:.\Generated_Source\PSoC4/W5100.c **** W5100_ParseIP( const char* ipString )
ARM GAS  C:\Users\CHUCK~1.ERH\AppData\Local\Temp\cc506n3q.s 			page 39


1148:.\Generated_Source\PSoC4/W5100.c **** {
1149:.\Generated_Source\PSoC4/W5100.c **** 	/*
1150:.\Generated_Source\PSoC4/W5100.c **** 	 * Parse a human readable string in to a IP address usable by the hardare
1151:.\Generated_Source\PSoC4/W5100.c **** 	 */
1152:.\Generated_Source\PSoC4/W5100.c **** 	int index;
1153:.\Generated_Source\PSoC4/W5100.c **** 	char digit[5];
1154:.\Generated_Source\PSoC4/W5100.c **** 	uint8 ip[4];
1155:.\Generated_Source\PSoC4/W5100.c **** 	int counter;
1156:.\Generated_Source\PSoC4/W5100.c **** 	int dindex;
1157:.\Generated_Source\PSoC4/W5100.c **** 	
1158:.\Generated_Source\PSoC4/W5100.c **** 	index = 0;
1159:.\Generated_Source\PSoC4/W5100.c **** 	dindex = 0;
1160:.\Generated_Source\PSoC4/W5100.c **** 	counter = 0;
1161:.\Generated_Source\PSoC4/W5100.c **** 	
1162:.\Generated_Source\PSoC4/W5100.c **** 	while ( (counter < 4) && ((unsigned int)index < strlen(ipString) ) ) {
1163:.\Generated_Source\PSoC4/W5100.c **** 		if ( (ipString[index] >= '0' ) && (ipString[index] <= '9') ) {
1164:.\Generated_Source\PSoC4/W5100.c **** 			if (dindex > 3) return( 0xFFFFFFFF );
1165:.\Generated_Source\PSoC4/W5100.c **** 			digit[dindex++] = ipString[index];
1166:.\Generated_Source\PSoC4/W5100.c **** 			
1167:.\Generated_Source\PSoC4/W5100.c **** 		}
1168:.\Generated_Source\PSoC4/W5100.c **** 		
1169:.\Generated_Source\PSoC4/W5100.c **** 		if ( (ipString[index] == '.') || (ipString[index+1] == 0) ) {
1170:.\Generated_Source\PSoC4/W5100.c **** 			digit[dindex] = 0;
1171:.\Generated_Source\PSoC4/W5100.c **** 			dindex = 0;
1172:.\Generated_Source\PSoC4/W5100.c **** 			/* convert the value and store in the buffer */
1173:.\Generated_Source\PSoC4/W5100.c **** 			ip[counter] = 0;
1174:.\Generated_Source\PSoC4/W5100.c **** 			while (digit[dindex] != 0) {
1175:.\Generated_Source\PSoC4/W5100.c **** 				ip[counter] = (ip[counter]*10) + (digit[dindex]-'0');
1176:.\Generated_Source\PSoC4/W5100.c **** 				++dindex;
1177:.\Generated_Source\PSoC4/W5100.c **** 				// ip[counter] = ...
1178:.\Generated_Source\PSoC4/W5100.c **** 			}
1179:.\Generated_Source\PSoC4/W5100.c **** 			/* reset the digit index to start accumulating digits again*/
1180:.\Generated_Source\PSoC4/W5100.c **** 			dindex = 0;
1181:.\Generated_Source\PSoC4/W5100.c **** 			/* move to the next address byte */
1182:.\Generated_Source\PSoC4/W5100.c **** 			++counter;
1183:.\Generated_Source\PSoC4/W5100.c **** 		}
1184:.\Generated_Source\PSoC4/W5100.c **** 		++index;
1185:.\Generated_Source\PSoC4/W5100.c **** 	}
1186:.\Generated_Source\PSoC4/W5100.c **** 	
1187:.\Generated_Source\PSoC4/W5100.c **** 	if (counter != 4) {
1188:.\Generated_Source\PSoC4/W5100.c **** 		return( 0xFFFFFFFF );
1189:.\Generated_Source\PSoC4/W5100.c **** 	}
1190:.\Generated_Source\PSoC4/W5100.c **** 	else {
1191:.\Generated_Source\PSoC4/W5100.c **** 		return( W5100_IPADDRESS(ip[0], ip[1], ip[2], ip[3]) );
1192:.\Generated_Source\PSoC4/W5100.c **** 	}
1193:.\Generated_Source\PSoC4/W5100.c **** }
1194:.\Generated_Source\PSoC4/W5100.c **** /* ------------------------------------------------------------------------ */
1195:.\Generated_Source\PSoC4/W5100.c **** /**
1196:.\Generated_Source\PSoC4/W5100.c ****  * /brief Parse a MAC Address string in to a 6-byte mac address
1197:.\Generated_Source\PSoC4/W5100.c ****  * /param *macString Pointer to the ASCII-Z String containing the MAC address
1198:.\Generated_Source\PSoC4/W5100.c ****  * /param *mac Pointer to the 6-byte array to hold the output mac addres
1199:.\Generated_Source\PSoC4/W5100.c ****  */
1200:.\Generated_Source\PSoC4/W5100.c **** cystatus W5100_ParseMAC(const char *macString, uint8 *mac)
1201:.\Generated_Source\PSoC4/W5100.c **** {
1202:.\Generated_Source\PSoC4/W5100.c **** 	/* 
1203:.\Generated_Source\PSoC4/W5100.c **** 	 * a mac address is specified as a string of 6 hex bytes with
1204:.\Generated_Source\PSoC4/W5100.c **** 	 * dashes ('-') seperating the bytes.  An invalidly formed
ARM GAS  C:\Users\CHUCK~1.ERH\AppData\Local\Temp\cc506n3q.s 			page 40


1205:.\Generated_Source\PSoC4/W5100.c **** 	 * address will only process the values up the error and return BAD_DATA
1206:.\Generated_Source\PSoC4/W5100.c **** 	 * otherwise, SUCESS is returned.
1207:.\Generated_Source\PSoC4/W5100.c **** 	 */
1208:.\Generated_Source\PSoC4/W5100.c **** 	int digit;
1209:.\Generated_Source\PSoC4/W5100.c **** 	int index;
1210:.\Generated_Source\PSoC4/W5100.c **** 	cystatus result;
1211:.\Generated_Source\PSoC4/W5100.c **** 	
1212:.\Generated_Source\PSoC4/W5100.c **** 	result = CYRET_SUCCESS;
1213:.\Generated_Source\PSoC4/W5100.c **** 	index = 0;
1214:.\Generated_Source\PSoC4/W5100.c **** 	for(digit = 0;(digit<6) && (result == CYRET_SUCCESS)&&(macString[index] != 0);++digit) {
1215:.\Generated_Source\PSoC4/W5100.c **** 		// process the first nibble
1216:.\Generated_Source\PSoC4/W5100.c **** 		if (W5100_ISXDIGIT(macString[index]) ) {
1217:.\Generated_Source\PSoC4/W5100.c **** 			mac[digit] = W5100_HEX2BIN(macString[index++]);
1218:.\Generated_Source\PSoC4/W5100.c **** 			mac[digit] <<= 4;
1219:.\Generated_Source\PSoC4/W5100.c **** 			if (W5100_ISXDIGIT(macString[index])) {
1220:.\Generated_Source\PSoC4/W5100.c **** 				mac[digit] += W5100_HEX2BIN(macString[index++]);
1221:.\Generated_Source\PSoC4/W5100.c **** 				/*
1222:.\Generated_Source\PSoC4/W5100.c **** 				 * now for digits other than digit 5 (the last one) look for
1223:.\Generated_Source\PSoC4/W5100.c **** 				 * the dash seperator.  If there is no dash, return bad data
1224:.\Generated_Source\PSoC4/W5100.c **** 				 */
1225:.\Generated_Source\PSoC4/W5100.c **** 				if (digit<5) {
1226:.\Generated_Source\PSoC4/W5100.c **** 					if (macString[index]!='-') {
1227:.\Generated_Source\PSoC4/W5100.c **** 						result = CYRET_BAD_DATA;
1228:.\Generated_Source\PSoC4/W5100.c **** 					}
1229:.\Generated_Source\PSoC4/W5100.c **** 					++index; // move conversion pointer to the next value
1230:.\Generated_Source\PSoC4/W5100.c **** 				}
1231:.\Generated_Source\PSoC4/W5100.c **** 			}
1232:.\Generated_Source\PSoC4/W5100.c **** 			else {
1233:.\Generated_Source\PSoC4/W5100.c **** 				result = CYRET_BAD_DATA;
1234:.\Generated_Source\PSoC4/W5100.c **** 			}
1235:.\Generated_Source\PSoC4/W5100.c **** 		}
1236:.\Generated_Source\PSoC4/W5100.c **** 		else {
1237:.\Generated_Source\PSoC4/W5100.c **** 			result = CYRET_BAD_DATA;
1238:.\Generated_Source\PSoC4/W5100.c **** 		}
1239:.\Generated_Source\PSoC4/W5100.c **** 	}
1240:.\Generated_Source\PSoC4/W5100.c **** 	return( result );
1241:.\Generated_Source\PSoC4/W5100.c **** }
1242:.\Generated_Source\PSoC4/W5100.c **** /* ------------------------------------------------------------------------ */
1243:.\Generated_Source\PSoC4/W5100.c **** void W5100_StringMAC(char *macString)
1244:.\Generated_Source\PSoC4/W5100.c **** {
1245:.\Generated_Source\PSoC4/W5100.c **** 	uint8 mac[6];
1246:.\Generated_Source\PSoC4/W5100.c **** 	int digit;
1247:.\Generated_Source\PSoC4/W5100.c **** 	int index;
1248:.\Generated_Source\PSoC4/W5100.c **** 	
1249:.\Generated_Source\PSoC4/W5100.c **** 	/*
1250:.\Generated_Source\PSoC4/W5100.c **** 	 * first read the MAC address from the chip
1251:.\Generated_Source\PSoC4/W5100.c **** 	 * and inintialize some locals so that the
1252:.\Generated_Source\PSoC4/W5100.c **** 	 * string formater will function properly
1253:.\Generated_Source\PSoC4/W5100.c **** 	 */
1254:.\Generated_Source\PSoC4/W5100.c **** 	W5100_GetSourceMAC( &mac[0] );
1255:.\Generated_Source\PSoC4/W5100.c **** 	index = 0;
1256:.\Generated_Source\PSoC4/W5100.c **** 	for(digit=0;digit<6;++digit) {
1257:.\Generated_Source\PSoC4/W5100.c **** 		// convert the first nibble
1258:.\Generated_Source\PSoC4/W5100.c **** 		macString[index++] = W5100_BIN2HEX(((mac[digit]>>4)&0x0F));
1259:.\Generated_Source\PSoC4/W5100.c **** 		macString[index++] = W5100_BIN2HEX((mac[digit]&0x0F));
1260:.\Generated_Source\PSoC4/W5100.c **** 		if (digit<5) {
1261:.\Generated_Source\PSoC4/W5100.c **** 			macString[index++] = '-';
ARM GAS  C:\Users\CHUCK~1.ERH\AppData\Local\Temp\cc506n3q.s 			page 41


1262:.\Generated_Source\PSoC4/W5100.c **** 		}
1263:.\Generated_Source\PSoC4/W5100.c **** 		else {
1264:.\Generated_Source\PSoC4/W5100.c **** 			macString[index] = 0;
1265:.\Generated_Source\PSoC4/W5100.c **** 		}
1266:.\Generated_Source\PSoC4/W5100.c **** 	}
1267:.\Generated_Source\PSoC4/W5100.c **** }
1268:.\Generated_Source\PSoC4/W5100.c **** /* ------------------------------------------------------------------------ */
1269:.\Generated_Source\PSoC4/W5100.c **** void W5100_StringIP( char *ipString )
1270:.\Generated_Source\PSoC4/W5100.c **** {
1271:.\Generated_Source\PSoC4/W5100.c **** 	uint32 ip;
1272:.\Generated_Source\PSoC4/W5100.c **** 	uint8 *ipBytes;
1273:.\Generated_Source\PSoC4/W5100.c **** 	int index;
1274:.\Generated_Source\PSoC4/W5100.c **** 	int digit;
1275:.\Generated_Source\PSoC4/W5100.c **** 	int work, temp;
1276:.\Generated_Source\PSoC4/W5100.c **** 	
1277:.\Generated_Source\PSoC4/W5100.c **** 	ip = W5100_GetSourceIP();
1278:.\Generated_Source\PSoC4/W5100.c **** 	ipBytes = (uint8*)&ip;
1279:.\Generated_Source\PSoC4/W5100.c **** 	index = 0;
1280:.\Generated_Source\PSoC4/W5100.c **** 	for(digit=0;digit<4;++digit) {
1281:.\Generated_Source\PSoC4/W5100.c **** 		work = ipBytes[digit];
1282:.\Generated_Source\PSoC4/W5100.c **** 		if (work >= 100) {
1283:.\Generated_Source\PSoC4/W5100.c **** 			temp = work/100;
1284:.\Generated_Source\PSoC4/W5100.c **** 			work -= (temp*100);
1285:.\Generated_Source\PSoC4/W5100.c **** 			ipString[index++] = '0' + temp;
1286:.\Generated_Source\PSoC4/W5100.c **** 		}
1287:.\Generated_Source\PSoC4/W5100.c **** 		if (work >= 10) {
1288:.\Generated_Source\PSoC4/W5100.c **** 			temp = work /10;
1289:.\Generated_Source\PSoC4/W5100.c **** 			work -= (temp*10);
1290:.\Generated_Source\PSoC4/W5100.c **** 			ipString[index++] = '0'+temp;
1291:.\Generated_Source\PSoC4/W5100.c **** 		}
1292:.\Generated_Source\PSoC4/W5100.c **** 		ipString[index++] = '0'+work;
1293:.\Generated_Source\PSoC4/W5100.c **** 		if (digit <3) {
1294:.\Generated_Source\PSoC4/W5100.c **** 			ipString[index++] = '.';
1295:.\Generated_Source\PSoC4/W5100.c **** 		}
1296:.\Generated_Source\PSoC4/W5100.c **** 		else {
1297:.\Generated_Source\PSoC4/W5100.c **** 			ipString[index] = 0;
1298:.\Generated_Source\PSoC4/W5100.c **** 		}
1299:.\Generated_Source\PSoC4/W5100.c **** 	}
1300:.\Generated_Source\PSoC4/W5100.c **** }
1301:.\Generated_Source\PSoC4/W5100.c **** 
1302:.\Generated_Source\PSoC4/W5100.c **** /* ------------------------------------------------------------------------ */
1303:.\Generated_Source\PSoC4/W5100.c **** uint8
1304:.\Generated_Source\PSoC4/W5100.c **** W5100_SetIP( uint32 ip )
1305:.\Generated_Source\PSoC4/W5100.c **** {
1306:.\Generated_Source\PSoC4/W5100.c **** 	uint8 ok = 0;
1307:.\Generated_Source\PSoC4/W5100.c **** 	
1308:.\Generated_Source\PSoC4/W5100.c **** 	if ( ( ip != 0) && (ip != 0xFFFFFFFF) ) {
1309:.\Generated_Source\PSoC4/W5100.c **** 		W5100_SetSourceIP( ip );
1310:.\Generated_Source\PSoC4/W5100.c **** 		ok = 0xFF;
1311:.\Generated_Source\PSoC4/W5100.c **** 	}
1312:.\Generated_Source\PSoC4/W5100.c **** 	
1313:.\Generated_Source\PSoC4/W5100.c **** 	return ok;
1314:.\Generated_Source\PSoC4/W5100.c **** }
1315:.\Generated_Source\PSoC4/W5100.c **** /* ------------------------------------------------------------------------ */
1316:.\Generated_Source\PSoC4/W5100.c **** uint32
1317:.\Generated_Source\PSoC4/W5100.c **** W5100_GetIP( void )
1318:.\Generated_Source\PSoC4/W5100.c **** {
ARM GAS  C:\Users\CHUCK~1.ERH\AppData\Local\Temp\cc506n3q.s 			page 42


1319:.\Generated_Source\PSoC4/W5100.c **** 	return W5100_GetSourceIP();
1320:.\Generated_Source\PSoC4/W5100.c **** }
1321:.\Generated_Source\PSoC4/W5100.c **** /* ------------------------------------------------------------------------ */
1322:.\Generated_Source\PSoC4/W5100.c **** void
1323:.\Generated_Source\PSoC4/W5100.c **** W5100_SetMAC( uint8* mac )
1324:.\Generated_Source\PSoC4/W5100.c **** {
1325:.\Generated_Source\PSoC4/W5100.c **** 	W5100_SetSourceMAC( mac );
1326:.\Generated_Source\PSoC4/W5100.c **** }
1327:.\Generated_Source\PSoC4/W5100.c **** /* ------------------------------------------------------------------------ */
1328:.\Generated_Source\PSoC4/W5100.c **** void
1329:.\Generated_Source\PSoC4/W5100.c **** W5100_GetMAC( uint8* mac )
1330:.\Generated_Source\PSoC4/W5100.c **** {
1331:.\Generated_Source\PSoC4/W5100.c **** 	W5100_GetSourceMAC( mac );
1332:.\Generated_Source\PSoC4/W5100.c **** }
1333:.\Generated_Source\PSoC4/W5100.c **** #endif
1334:.\Generated_Source\PSoC4/W5100.c **** /* ======================================================================== */
1335:.\Generated_Source\PSoC4/W5100.c **** /* Socket Controls */
1336:.\Generated_Source\PSoC4/W5100.c **** #if (1)
1337:.\Generated_Source\PSoC4/W5100.c **** /* ------------------------------------------------------------------------ */
1338:.\Generated_Source\PSoC4/W5100.c **** uint8
1339:.\Generated_Source\PSoC4/W5100.c **** W5100_SocketOpen( uint8 Protocol, uint16 port, uint8 flags )
1340:.\Generated_Source\PSoC4/W5100.c **** {
1341:.\Generated_Source\PSoC4/W5100.c **** 	uint8 socket;
1342:.\Generated_Source\PSoC4/W5100.c **** 	int index;
1343:.\Generated_Source\PSoC4/W5100.c **** 	
1344:.\Generated_Source\PSoC4/W5100.c **** 	/*
1345:.\Generated_Source\PSoC4/W5100.c **** 	 * This function will look for the first available socket for allocation
1346:.\Generated_Source\PSoC4/W5100.c **** 	 * using the defined protocol.  The socket configuration will then be
1347:.\Generated_Source\PSoC4/W5100.c **** 	 * initialized and saved in the allocation table. If the requested socket
1348:.\Generated_Source\PSoC4/W5100.c **** 	 * can not be initialized, 0xFF is returned
1349:.\Generated_Source\PSoC4/W5100.c **** 	 */
1350:.\Generated_Source\PSoC4/W5100.c **** 	socket = 0xFF;
1351:.\Generated_Source\PSoC4/W5100.c **** 	/* find the first available socket to open, and how much memory is available */
1352:.\Generated_Source\PSoC4/W5100.c **** 	for( index = 0;index<4;++index) {
1353:.\Generated_Source\PSoC4/W5100.c **** 		if ( (socket == 0xFF) && (W5100_SocketConfig[index].Protocol == 0) ) {
1354:.\Generated_Source\PSoC4/W5100.c **** 			/*
1355:.\Generated_Source\PSoC4/W5100.c **** 			 * Since the W5100 does not support MAC mode commucications, check to see
1356:.\Generated_Source\PSoC4/W5100.c **** 			 * if the socket that is free was socket 0.  If the mac protocol was
1357:.\Generated_Source\PSoC4/W5100.c **** 			 * selected, ignore socket 0
1358:.\Generated_Source\PSoC4/W5100.c **** 			 */
1359:.\Generated_Source\PSoC4/W5100.c **** 			if ( (Protocol != W5100_PROTO_MAC) || (index != 0) ) {
1360:.\Generated_Source\PSoC4/W5100.c **** 				/* store this socket number for allocation */
1361:.\Generated_Source\PSoC4/W5100.c **** 				socket = index;
1362:.\Generated_Source\PSoC4/W5100.c **** 			}
1363:.\Generated_Source\PSoC4/W5100.c **** 		}
1364:.\Generated_Source\PSoC4/W5100.c **** 	}
1365:.\Generated_Source\PSoC4/W5100.c **** 	if (socket != 0xFF ) {
1366:.\Generated_Source\PSoC4/W5100.c **** 		/* Store the socket information in the allocation table */
1367:.\Generated_Source\PSoC4/W5100.c **** 		W5100_SocketConfig[socket].Protocol = Protocol;
1368:.\Generated_Source\PSoC4/W5100.c **** 		W5100_SocketConfig[socket].SocketFlags = flags;
1369:.\Generated_Source\PSoC4/W5100.c **** 		W5100_SocketConfig[socket].SourcePort = port;
1370:.\Generated_Source\PSoC4/W5100.c **** 		W5100_SocketConfig[socket].ServerFlag = 0;
1371:.\Generated_Source\PSoC4/W5100.c **** 		/* Send the socket open with the correct protocol information */
1372:.\Generated_Source\PSoC4/W5100.c **** 		W5100_SetSocketSourcePort( socket, port );
1373:.\Generated_Source\PSoC4/W5100.c **** 		W5100_SetSocketMode( socket, Protocol | flags );
1374:.\Generated_Source\PSoC4/W5100.c **** 		W5100_ExecuteSocketCommand( socket, 1 );
1375:.\Generated_Source\PSoC4/W5100.c **** 	}
ARM GAS  C:\Users\CHUCK~1.ERH\AppData\Local\Temp\cc506n3q.s 			page 43


1376:.\Generated_Source\PSoC4/W5100.c **** 	return socket;
1377:.\Generated_Source\PSoC4/W5100.c **** }
1378:.\Generated_Source\PSoC4/W5100.c **** /* ------------------------------------------------------------------------ */
1379:.\Generated_Source\PSoC4/W5100.c **** void
1380:.\Generated_Source\PSoC4/W5100.c **** W5100_SocketClose( uint8 socket )
1381:.\Generated_Source\PSoC4/W5100.c **** {
1382:.\Generated_Source\PSoC4/W5100.c **** 	/*
1383:.\Generated_Source\PSoC4/W5100.c **** 	 * Set the socket allocation to empty, and issue the close command
1384:.\Generated_Source\PSoC4/W5100.c **** 	 * to the socket
1385:.\Generated_Source\PSoC4/W5100.c **** 	 */
1386:.\Generated_Source\PSoC4/W5100.c **** 	if (socket < 4) {
1387:.\Generated_Source\PSoC4/W5100.c **** 		/* clear the socket memory allocations */
1388:.\Generated_Source\PSoC4/W5100.c **** 		W5100_SocketConfig[socket].Protocol = 0;
1389:.\Generated_Source\PSoC4/W5100.c **** 		W5100_SocketConfig[socket].SocketFlags = 0;
1390:.\Generated_Source\PSoC4/W5100.c **** 		/* close the socket */
1391:.\Generated_Source\PSoC4/W5100.c **** 		W5100_ExecuteSocketCommand( socket, 0x10 );
1392:.\Generated_Source\PSoC4/W5100.c **** 		/* Clear pending Interrupts */
1393:.\Generated_Source\PSoC4/W5100.c **** 		W5100_SetSocketIR( socket, 0xFF);
1394:.\Generated_Source\PSoC4/W5100.c **** 	}
1395:.\Generated_Source\PSoC4/W5100.c **** }
1396:.\Generated_Source\PSoC4/W5100.c **** /* ------------------------------------------------------------------------ */
1397:.\Generated_Source\PSoC4/W5100.c **** uint8
1398:.\Generated_Source\PSoC4/W5100.c **** W5100_SocketProcessConnections( uint8 socket )
1399:.\Generated_Source\PSoC4/W5100.c **** {
1400:.\Generated_Source\PSoC4/W5100.c **** 	uint8 status;
1401:.\Generated_Source\PSoC4/W5100.c **** 	
1402:.\Generated_Source\PSoC4/W5100.c **** 	status = W5100_GetSocketStatus(socket);
1403:.\Generated_Source\PSoC4/W5100.c **** 	/* has a connection termination been requested by remote system */
1404:.\Generated_Source\PSoC4/W5100.c **** 	if (status == 0x1C) {
1405:.\Generated_Source\PSoC4/W5100.c **** 		/* Close the socket on this end */
1406:.\Generated_Source\PSoC4/W5100.c **** 		W5100_SocketClose(socket);
1407:.\Generated_Source\PSoC4/W5100.c **** 	}
1408:.\Generated_Source\PSoC4/W5100.c **** 	return (W5100_GetSocketStatus(socket) == 0x00);
1409:.\Generated_Source\PSoC4/W5100.c **** }
1410:.\Generated_Source\PSoC4/W5100.c **** /* ------------------------------------------------------------------------ */
1411:.\Generated_Source\PSoC4/W5100.c **** uint8
1412:.\Generated_Source\PSoC4/W5100.c **** W5100_SocketEstablished( uint8 socket )
1413:.\Generated_Source\PSoC4/W5100.c **** {
1414:.\Generated_Source\PSoC4/W5100.c **** 	return (W5100_GetSocketStatus( socket ) == 0x17);
1415:.\Generated_Source\PSoC4/W5100.c **** }
1416:.\Generated_Source\PSoC4/W5100.c **** /* ------------------------------------------------------------------------ */
1417:.\Generated_Source\PSoC4/W5100.c **** /**
1418:.\Generated_Source\PSoC4/W5100.c ****  * \brief Transmit a SEND operation over a socket
1419:.\Generated_Source\PSoC4/W5100.c ****  * \param socket the socket to which the send command will be sent
1420:.\Generated_Source\PSoC4/W5100.c ****  */
1421:.\Generated_Source\PSoC4/W5100.c **** static void
1422:.\Generated_Source\PSoC4/W5100.c **** W5100_SocketSend(uint8 socket )
1423:.\Generated_Source\PSoC4/W5100.c **** {
 919              		.loc 1 1423 0
 920              		.cfi_startproc
 921              	.LVL115:
 922              	.LBB66:
 923              	.LBB67:
 491:.\Generated_Source\PSoC4/W5100.c **** static void W5100_SetSubnetMask( uint32 ip ) { W5100_W51_SetIP(5, ip); }
 924              		.loc 1 491 0
 925 0000 104B     		ldr	r3, .L68
 926              	.LBE67:
ARM GAS  C:\Users\CHUCK~1.ERH\AppData\Local\Temp\cc506n3q.s 			page 44


 927              	.LBE66:
 928              		.loc 1 1423 0
 929 0002 10B5     		push	{r4, lr}
 930              	.LCFI13:
 931              		.cfi_def_cfa_offset 8
 932              		.cfi_offset 4, -8
 933              		.cfi_offset 14, -4
 934              	.LBB70:
 935              	.LBB68:
 491:.\Generated_Source\PSoC4/W5100.c **** static void W5100_SetSubnetMask( uint32 ip ) { W5100_W51_SetIP(5, ip); }
 936              		.loc 1 491 0
 937 0004 1968     		ldr	r1, [r3]
 938              	.LBE68:
 939              	.LBE70:
 940              		.loc 1 1423 0
 941 0006 041C     		mov	r4, r0
 942              	.LBB71:
 943              	.LBB69:
 491:.\Generated_Source\PSoC4/W5100.c **** static void W5100_SetSubnetMask( uint32 ip ) { W5100_W51_SetIP(5, ip); }
 944              		.loc 1 491 0
 945 0008 0520     		mov	r0, #5
 946              	.LVL116:
 947 000a FFF7FEFF 		bl	W5100_W51_SetIP
 948              	.LVL117:
 949              	.LBE69:
 950              	.LBE71:
1424:.\Generated_Source\PSoC4/W5100.c **** 	uint8 ir;
1425:.\Generated_Source\PSoC4/W5100.c **** 	
1426:.\Generated_Source\PSoC4/W5100.c **** 	/* initialize the subnet mask register : ERRATA FIX */
1427:.\Generated_Source\PSoC4/W5100.c **** 	W5100_SetSubnetMask( W5100_SubnetMask );
1428:.\Generated_Source\PSoC4/W5100.c **** 	/* Issue the SEND command */
1429:.\Generated_Source\PSoC4/W5100.c **** 	W5100_ExecuteSocketCommand( socket, 0x20 );
 951              		.loc 1 1429 0
 952 000e 201C     		mov	r0, r4
 953 0010 2021     		mov	r1, #32
 954 0012 FFF7FEFF 		bl	W5100_ExecuteSocketCommand
 955              	.LVL118:
 956              	.LBB72:
 957              	.LBB73:
 676:.\Generated_Source\PSoC4/W5100.c **** { return W5100_W51_Read(W5100_SOCKET_BASE(socket)+2); }
 958              		.loc 1 676 0
 959 0016 0C49     		ldr	r1, .L68+4
 960 0018 2002     		lsl	r0, r4, #8
 961 001a 4218     		add	r2, r0, r1
 962 001c 94B2     		uxth	r4, r2
 963              	.LVL119:
 964              	.L66:
 965              	.LBE73:
 966              	.LBE72:
 967              	.LBB74:
 968              	.LBB75:
 969 001e 201C     		mov	r0, r4
 970 0020 FFF7FEFF 		bl	W5100_W51_Read
 971              	.LVL120:
 972              	.LBE75:
 973              	.LBE74:
1430:.\Generated_Source\PSoC4/W5100.c **** 	/* wait for the SEND to complete, or for a timeout */
ARM GAS  C:\Users\CHUCK~1.ERH\AppData\Local\Temp\cc506n3q.s 			page 45


1431:.\Generated_Source\PSoC4/W5100.c **** 	ir = W5100_GetSocketIR( socket );
1432:.\Generated_Source\PSoC4/W5100.c **** 	/* while SEND is not done, and the socket hasnot timed out or been dsconnected */
1433:.\Generated_Source\PSoC4/W5100.c **** 	while ( ((ir & 0x10) == 0) && (!(ir&0x0A)) ) {
 974              		.loc 1 1433 0
 975 0024 1A23     		mov	r3, #26
 976 0026 1842     		tst	r0, r3
 977 0028 03D1     		bne	.L67
 978              	.L65:
1434:.\Generated_Source\PSoC4/W5100.c **** 		CyDelay(1);
 979              		.loc 1 1434 0
 980 002a 0120     		mov	r0, #1
 981              	.LVL121:
 982 002c FFF7FEFF 		bl	CyDelay
 983              	.LVL122:
 984 0030 F5E7     		b	.L66
 985              	.LVL123:
 986              	.L67:
 987              	.LBB76:
 988              	.LBB77:
 668:.\Generated_Source\PSoC4/W5100.c **** { W5100_W51_Write(W5100_SOCKET_BASE(socket)+2,ir); }
 989              		.loc 1 668 0
 990 0032 201C     		mov	r0, r4
 991              	.LVL124:
 992 0034 1021     		mov	r1, #16
 993 0036 FFF7FEFF 		bl	W5100_W51_Write
 994              	.LVL125:
 995              	.LBE77:
 996              	.LBE76:
 997              	.LBB78:
 998              	.LBB79:
 491:.\Generated_Source\PSoC4/W5100.c **** static void W5100_SetSubnetMask( uint32 ip ) { W5100_W51_SetIP(5, ip); }
 999              		.loc 1 491 0
 1000 003a 0520     		mov	r0, #5
 1001 003c 0021     		mov	r1, #0
 1002 003e FFF7FEFF 		bl	W5100_W51_SetIP
 1003              	.LVL126:
 1004              	.LBE79:
 1005              	.LBE78:
1435:.\Generated_Source\PSoC4/W5100.c **** 		ir = W5100_GetSocketIR( socket );
1436:.\Generated_Source\PSoC4/W5100.c **** 		
1437:.\Generated_Source\PSoC4/W5100.c **** 	}
1438:.\Generated_Source\PSoC4/W5100.c **** 	/* clear the SEND_OK flag from the register */
1439:.\Generated_Source\PSoC4/W5100.c **** 	W5100_SetSocketIR( socket, 0x10 );
1440:.\Generated_Source\PSoC4/W5100.c **** 	/* reset the subnet mask : ERRATA FIX */
1441:.\Generated_Source\PSoC4/W5100.c **** 	W5100_SetSubnetMask( 0 );
1442:.\Generated_Source\PSoC4/W5100.c **** }
 1006              		.loc 1 1442 0
 1007              		@ sp needed for prologue
 1008 0042 10BD     		pop	{r4, pc}
 1009              	.L69:
 1010              		.align	2
 1011              	.L68:
 1012 0044 00000000 		.word	.LANCHOR0
 1013 0048 02040000 		.word	1026
 1014              		.cfi_endproc
 1015              	.LFE88:
 1016              		.size	W5100_SocketSend, .-W5100_SocketSend
ARM GAS  C:\Users\CHUCK~1.ERH\AppData\Local\Temp\cc506n3q.s 			page 46


 1017              		.section	.text.W5100_ParseIP,"ax",%progbits
 1018              		.align	1
 1019              		.global	W5100_ParseIP
 1020              		.code	16
 1021              		.thumb_func
 1022              		.type	W5100_ParseIP, %function
 1023              	W5100_ParseIP:
 1024              	.LFB76:
1148:.\Generated_Source\PSoC4/W5100.c **** {
 1025              		.loc 1 1148 0
 1026              		.cfi_startproc
 1027              	.LVL127:
 1028 0000 F0B5     		push	{r4, r5, r6, r7, lr}
 1029              	.LCFI14:
 1030              		.cfi_def_cfa_offset 20
 1031              		.cfi_offset 4, -20
 1032              		.cfi_offset 5, -16
 1033              		.cfi_offset 6, -12
 1034              		.cfi_offset 7, -8
 1035              		.cfi_offset 14, -4
1159:.\Generated_Source\PSoC4/W5100.c **** 	dindex = 0;
 1036              		.loc 1 1159 0
 1037 0002 0024     		mov	r4, #0
1148:.\Generated_Source\PSoC4/W5100.c **** {
 1038              		.loc 1 1148 0
 1039 0004 87B0     		sub	sp, sp, #28
 1040              	.LCFI15:
 1041              		.cfi_def_cfa_offset 48
1148:.\Generated_Source\PSoC4/W5100.c **** {
 1042              		.loc 1 1148 0
 1043 0006 071C     		mov	r7, r0
1160:.\Generated_Source\PSoC4/W5100.c **** 	counter = 0;
 1044              		.loc 1 1160 0
 1045 0008 251C     		mov	r5, r4
1158:.\Generated_Source\PSoC4/W5100.c **** 	index = 0;
 1046              		.loc 1 1158 0
 1047 000a 261C     		mov	r6, r4
 1048              	.LVL128:
 1049              	.L71:
1162:.\Generated_Source\PSoC4/W5100.c **** 	while ( (counter < 4) && ((unsigned int)index < strlen(ipString) ) ) {
 1050              		.loc 1 1162 0 discriminator 2
 1051 000c 381C     		mov	r0, r7
 1052 000e FFF7FEFF 		bl	strlen
 1053              	.LVL129:
 1054 0012 8642     		cmp	r6, r0
 1055 0014 06D2     		bcs	.L82
 1056              	.L81:
1163:.\Generated_Source\PSoC4/W5100.c **** 		if ( (ipString[index] >= '0' ) && (ipString[index] <= '9') ) {
 1057              		.loc 1 1163 0
 1058 0016 BB5D     		ldrb	r3, [r7, r6]
 1059 0018 1A1C     		mov	r2, r3
 1060 001a 303A     		sub	r2, r2, #48
 1061 001c 092A     		cmp	r2, #9
 1062 001e 08D8     		bhi	.L72
1164:.\Generated_Source\PSoC4/W5100.c **** 			if (dindex > 3) return( 0xFFFFFFFF );
 1063              		.loc 1 1164 0
 1064 0020 032C     		cmp	r4, #3
ARM GAS  C:\Users\CHUCK~1.ERH\AppData\Local\Temp\cc506n3q.s 			page 47


 1065 0022 02DD     		ble	.L73
 1066              	.L82:
 1067 0024 0123     		mov	r3, #1
 1068 0026 5842     		neg	r0, r3
 1069 0028 2CE0     		b	.L74
 1070              	.L73:
1165:.\Generated_Source\PSoC4/W5100.c **** 			digit[dindex++] = ipString[index];
 1071              		.loc 1 1165 0
 1072 002a 04A8     		add	r0, sp, #16
 1073 002c 0355     		strb	r3, [r0, r4]
 1074 002e 0134     		add	r4, r4, #1
 1075              	.LVL130:
 1076 0030 01E0     		b	.L75
 1077              	.LVL131:
 1078              	.L72:
1169:.\Generated_Source\PSoC4/W5100.c **** 		if ( (ipString[index] == '.') || (ipString[index+1] == 0) ) {
 1079              		.loc 1 1169 0
 1080 0032 2E2B     		cmp	r3, #46
 1081 0034 03D0     		beq	.L76
 1082              	.L75:
1147:.\Generated_Source\PSoC4/W5100.c **** W5100_ParseIP( const char* ipString )
 1083              		.loc 1 1147 0 discriminator 1
 1084 0036 B919     		add	r1, r7, r6
1169:.\Generated_Source\PSoC4/W5100.c **** 		if ( (ipString[index] == '.') || (ipString[index+1] == 0) ) {
 1085              		.loc 1 1169 0 discriminator 1
 1086 0038 4B78     		ldrb	r3, [r1, #1]
 1087 003a 002B     		cmp	r3, #0
 1088 003c 12D1     		bne	.L77
 1089              	.L76:
1170:.\Generated_Source\PSoC4/W5100.c **** 			digit[dindex] = 0;
 1090              		.loc 1 1170 0
 1091 003e 0023     		mov	r3, #0
 1092 0040 04AA     		add	r2, sp, #16
 1093 0042 1355     		strb	r3, [r2, r4]
 1094              	.LVL132:
1173:.\Generated_Source\PSoC4/W5100.c **** 			ip[counter] = 0;
 1095              		.loc 1 1173 0
 1096 0044 03AC     		add	r4, sp, #12
 1097 0046 6355     		strb	r3, [r4, r5]
 1098              	.LVL133:
 1099              	.L78:
1174:.\Generated_Source\PSoC4/W5100.c **** 			while (digit[dindex] != 0) {
 1100              		.loc 1 1174 0 discriminator 1
 1101 0048 04A8     		add	r0, sp, #16
 1102 004a C45C     		ldrb	r4, [r0, r3]
 1103 004c 002C     		cmp	r4, #0
 1104 004e 08D0     		beq	.L86
 1105              	.L79:
1175:.\Generated_Source\PSoC4/W5100.c **** 				ip[counter] = (ip[counter]*10) + (digit[dindex]-'0');
 1106              		.loc 1 1175 0
 1107 0050 03A9     		add	r1, sp, #12
 1108 0052 4A5D     		ldrb	r2, [r1, r5]
 1109 0054 0A20     		mov	r0, #10
 1110 0056 5043     		mul	r0, r2
 1111 0058 3038     		sub	r0, r0, #48
 1112 005a 2418     		add	r4, r4, r0
 1113 005c 4C55     		strb	r4, [r1, r5]
ARM GAS  C:\Users\CHUCK~1.ERH\AppData\Local\Temp\cc506n3q.s 			page 48


1176:.\Generated_Source\PSoC4/W5100.c **** 				++dindex;
 1114              		.loc 1 1176 0
 1115 005e 0133     		add	r3, r3, #1
 1116              	.LVL134:
 1117 0060 F2E7     		b	.L78
 1118              	.L86:
 1119              	.LVL135:
1182:.\Generated_Source\PSoC4/W5100.c **** 			++counter;
 1120              		.loc 1 1182 0
 1121 0062 0135     		add	r5, r5, #1
 1122              	.LVL136:
 1123              	.L77:
1184:.\Generated_Source\PSoC4/W5100.c **** 		++index;
 1124              		.loc 1 1184 0
 1125 0064 0136     		add	r6, r6, #1
 1126              	.LVL137:
1162:.\Generated_Source\PSoC4/W5100.c **** 	while ( (counter < 4) && ((unsigned int)index < strlen(ipString) ) ) {
 1127              		.loc 1 1162 0
 1128 0066 032D     		cmp	r5, #3
 1129 0068 D0DD     		ble	.L71
 1130              	.L80:
1187:.\Generated_Source\PSoC4/W5100.c **** 	if (counter != 4) {
 1131              		.loc 1 1187 0
 1132 006a 042D     		cmp	r5, #4
 1133 006c DAD1     		bne	.L82
1191:.\Generated_Source\PSoC4/W5100.c **** 		return( W5100_IPADDRESS(ip[0], ip[1], ip[2], ip[3]) );
 1134              		.loc 1 1191 0
 1135 006e 03AD     		add	r5, sp, #12
 1136              	.LVL138:
 1137 0070 EE78     		ldrb	r6, [r5, #3]
 1138              	.LVL139:
 1139 0072 2978     		ldrb	r1, [r5]
 1140 0074 6A78     		ldrb	r2, [r5, #1]
 1141 0076 3706     		lsl	r7, r6, #24
 1142              	.LVL140:
 1143 0078 AD78     		ldrb	r5, [r5, #2]
 1144 007a 1002     		lsl	r0, r2, #8
 1145 007c 7B18     		add	r3, r7, r1
 1146 007e 1C18     		add	r4, r3, r0
 1147              	.LVL141:
 1148 0080 2E04     		lsl	r6, r5, #16
 1149 0082 A019     		add	r0, r4, r6
 1150              	.L74:
1193:.\Generated_Source\PSoC4/W5100.c **** }
 1151              		.loc 1 1193 0
 1152 0084 07B0     		add	sp, sp, #28
 1153              		@ sp needed for prologue
 1154 0086 F0BD     		pop	{r4, r5, r6, r7, pc}
 1155              		.cfi_endproc
 1156              	.LFE76:
 1157              		.size	W5100_ParseIP, .-W5100_ParseIP
 1158              		.section	.text.W5100_ParseMAC,"ax",%progbits
 1159              		.align	1
 1160              		.global	W5100_ParseMAC
 1161              		.code	16
 1162              		.thumb_func
 1163              		.type	W5100_ParseMAC, %function
ARM GAS  C:\Users\CHUCK~1.ERH\AppData\Local\Temp\cc506n3q.s 			page 49


 1164              	W5100_ParseMAC:
 1165              	.LFB77:
1201:.\Generated_Source\PSoC4/W5100.c **** {
 1166              		.loc 1 1201 0
 1167              		.cfi_startproc
 1168              	.LVL142:
 1169 0000 F7B5     		push	{r0, r1, r2, r4, r5, r6, r7, lr}
 1170              	.LCFI16:
 1171              		.cfi_def_cfa_offset 32
 1172              		.cfi_offset 0, -32
 1173              		.cfi_offset 1, -28
 1174              		.cfi_offset 2, -24
 1175              		.cfi_offset 4, -20
 1176              		.cfi_offset 5, -16
 1177              		.cfi_offset 6, -12
 1178              		.cfi_offset 7, -8
 1179              		.cfi_offset 14, -4
1213:.\Generated_Source\PSoC4/W5100.c **** 	index = 0;
 1180              		.loc 1 1213 0
 1181 0002 0022     		mov	r2, #0
1201:.\Generated_Source\PSoC4/W5100.c **** {
 1182              		.loc 1 1201 0
 1183 0004 031C     		mov	r3, r0
1214:.\Generated_Source\PSoC4/W5100.c **** 	for(digit = 0;(digit<6) && (result == CYRET_SUCCESS)&&(macString[index] != 0);++digit) {
 1184              		.loc 1 1214 0
 1185 0006 141C     		mov	r4, r2
 1186              	.LVL143:
 1187              	.L88:
1214:.\Generated_Source\PSoC4/W5100.c **** 	for(digit = 0;(digit<6) && (result == CYRET_SUCCESS)&&(macString[index] != 0);++digit) {
 1188              		.loc 1 1214 0 is_stmt 0 discriminator 1
 1189 0008 985C     		ldrb	r0, [r3, r2]
 1190 000a 0028     		cmp	r0, #0
 1191 000c 7ED0     		beq	.L99
 1192              	.L100:
1216:.\Generated_Source\PSoC4/W5100.c **** 		if (W5100_ISXDIGIT(macString[index]) ) {
 1193              		.loc 1 1216 0 is_stmt 1
 1194 000e 051C     		mov	r5, r0
 1195 0010 661C     		add	r6, r4, #1
 1196 0012 303D     		sub	r5, r5, #48
 1197 0014 0196     		str	r6, [sp, #4]
 1198 0016 092D     		cmp	r5, #9
 1199 0018 05D9     		bls	.L89
1216:.\Generated_Source\PSoC4/W5100.c **** 		if (W5100_ISXDIGIT(macString[index]) ) {
 1200              		.loc 1 1216 0 is_stmt 0 discriminator 1
 1201 001a 313D     		sub	r5, r5, #49
 1202 001c 052D     		cmp	r5, #5
 1203 001e 02D9     		bls	.L89
 1204 0020 2035     		add	r5, r5, #32
 1205 0022 052D     		cmp	r5, #5
 1206 0024 68D8     		bhi	.L104
 1207              	.L89:
1217:.\Generated_Source\PSoC4/W5100.c **** 			mac[digit] = W5100_HEX2BIN(macString[index++]);
 1208              		.loc 1 1217 0 is_stmt 1
 1209 0026 571C     		add	r7, r2, #1
 1210              	.LVL144:
 1211 0028 2F28     		cmp	r0, #47
 1212 002a 08D9     		bls	.L91
ARM GAS  C:\Users\CHUCK~1.ERH\AppData\Local\Temp\cc506n3q.s 			page 50


1217:.\Generated_Source\PSoC4/W5100.c **** 			mac[digit] = W5100_HEX2BIN(macString[index++]);
 1213              		.loc 1 1217 0 is_stmt 0 discriminator 1
 1214 002c D85D     		ldrb	r0, [r3, r7]
 1215 002e 971C     		add	r7, r2, #2
 1216              	.LVL145:
 1217 0030 3928     		cmp	r0, #57
 1218 0032 04D8     		bhi	.L91
 1219 0034 D85D     		ldrb	r0, [r3, r7]
 1220 0036 0332     		add	r2, r2, #3
 1221              	.LVL146:
 1222 0038 3038     		sub	r0, r0, #48
 1223 003a C6B2     		uxtb	r6, r0
 1224 003c 19E0     		b	.L92
 1225              	.LVL147:
 1226              	.L91:
1217:.\Generated_Source\PSoC4/W5100.c **** 			mac[digit] = W5100_HEX2BIN(macString[index++]);
 1227              		.loc 1 1217 0 discriminator 2
 1228 003e DA5D     		ldrb	r2, [r3, r7]
 1229 0040 781C     		add	r0, r7, #1
 1230              	.LVL148:
 1231 0042 602A     		cmp	r2, #96
 1232 0044 08D9     		bls	.L93
1217:.\Generated_Source\PSoC4/W5100.c **** 			mac[digit] = W5100_HEX2BIN(macString[index++]);
 1233              		.loc 1 1217 0 discriminator 4
 1234 0046 1D5C     		ldrb	r5, [r3, r0]
 1235 0048 B81C     		add	r0, r7, #2
 1236              	.LVL149:
 1237 004a 662D     		cmp	r5, #102
 1238 004c 04D8     		bhi	.L93
1217:.\Generated_Source\PSoC4/W5100.c **** 			mac[digit] = W5100_HEX2BIN(macString[index++]);
 1239              		.loc 1 1217 0 discriminator 2
 1240 004e 1A5C     		ldrb	r2, [r3, r0]
 1241 0050 573A     		sub	r2, r2, #87
 1242 0052 D6B2     		uxtb	r6, r2
 1243 0054 FA1C     		add	r2, r7, #3
 1244              	.LVL150:
 1245 0056 0CE0     		b	.L92
 1246              	.LVL151:
 1247              	.L93:
1217:.\Generated_Source\PSoC4/W5100.c **** 			mac[digit] = W5100_HEX2BIN(macString[index++]);
 1248              		.loc 1 1217 0 discriminator 5
 1249 0058 1F5C     		ldrb	r7, [r3, r0]
 1250 005a 421C     		add	r2, r0, #1
 1251              	.LVL152:
 1252 005c 0026     		mov	r6, #0
 1253 005e 402F     		cmp	r7, #64
 1254 0060 07D9     		bls	.L92
1217:.\Generated_Source\PSoC4/W5100.c **** 			mac[digit] = W5100_HEX2BIN(macString[index++]);
 1255              		.loc 1 1217 0 discriminator 7
 1256 0062 9D5C     		ldrb	r5, [r3, r2]
 1257 0064 821C     		add	r2, r0, #2
 1258              	.LVL153:
 1259 0066 462D     		cmp	r5, #70
 1260 0068 03D8     		bhi	.L92
1217:.\Generated_Source\PSoC4/W5100.c **** 			mac[digit] = W5100_HEX2BIN(macString[index++]);
 1261              		.loc 1 1217 0 discriminator 3
 1262 006a 9E5C     		ldrb	r6, [r3, r2]
ARM GAS  C:\Users\CHUCK~1.ERH\AppData\Local\Temp\cc506n3q.s 			page 51


 1263 006c C21C     		add	r2, r0, #3
 1264              	.LVL154:
 1265 006e 373E     		sub	r6, r6, #55
 1266 0070 F6B2     		uxtb	r6, r6
 1267              	.L92:
1218:.\Generated_Source\PSoC4/W5100.c **** 			mac[digit] <<= 4;
 1268              		.loc 1 1218 0 is_stmt 1 discriminator 3
 1269 0072 3701     		lsl	r7, r6, #4
 1270 0074 FEB2     		uxtb	r6, r7
 1271 0076 0E55     		strb	r6, [r1, r4]
1219:.\Generated_Source\PSoC4/W5100.c **** 			if (W5100_ISXDIGIT(macString[index])) {
 1272              		.loc 1 1219 0 discriminator 3
 1273 0078 985C     		ldrb	r0, [r3, r2]
 1274 007a 051C     		mov	r5, r0
 1275 007c 303D     		sub	r5, r5, #48
 1276 007e 092D     		cmp	r5, #9
 1277 0080 05D9     		bls	.L94
1219:.\Generated_Source\PSoC4/W5100.c **** 			if (W5100_ISXDIGIT(macString[index])) {
 1278              		.loc 1 1219 0 is_stmt 0 discriminator 1
 1279 0082 313D     		sub	r5, r5, #49
 1280 0084 052D     		cmp	r5, #5
 1281 0086 02D9     		bls	.L94
 1282 0088 2035     		add	r5, r5, #32
 1283 008a 052D     		cmp	r5, #5
 1284 008c 34D8     		bhi	.L104
 1285              	.L94:
1220:.\Generated_Source\PSoC4/W5100.c **** 				mac[digit] += W5100_HEX2BIN(macString[index++]);
 1286              		.loc 1 1220 0 is_stmt 1
 1287 008e 571C     		add	r7, r2, #1
 1288              	.LVL155:
 1289 0090 2F28     		cmp	r0, #47
 1290 0092 08D9     		bls	.L95
1220:.\Generated_Source\PSoC4/W5100.c **** 				mac[digit] += W5100_HEX2BIN(macString[index++]);
 1291              		.loc 1 1220 0 is_stmt 0 discriminator 1
 1292 0094 D85D     		ldrb	r0, [r3, r7]
 1293 0096 971C     		add	r7, r2, #2
 1294              	.LVL156:
 1295 0098 3928     		cmp	r0, #57
 1296 009a 04D8     		bhi	.L95
 1297 009c DF5D     		ldrb	r7, [r3, r7]
 1298              	.LVL157:
 1299 009e 0332     		add	r2, r2, #3
 1300              	.LVL158:
 1301 00a0 303F     		sub	r7, r7, #48
 1302 00a2 FDB2     		uxtb	r5, r7
 1303              	.LVL159:
 1304 00a4 1BE0     		b	.L96
 1305              	.LVL160:
 1306              	.L95:
1220:.\Generated_Source\PSoC4/W5100.c **** 				mac[digit] += W5100_HEX2BIN(macString[index++]);
 1307              		.loc 1 1220 0 discriminator 2
 1308 00a6 DA5D     		ldrb	r2, [r3, r7]
 1309 00a8 781C     		add	r0, r7, #1
 1310              	.LVL161:
 1311 00aa 602A     		cmp	r2, #96
 1312 00ac 08D9     		bls	.L97
1220:.\Generated_Source\PSoC4/W5100.c **** 				mac[digit] += W5100_HEX2BIN(macString[index++]);
ARM GAS  C:\Users\CHUCK~1.ERH\AppData\Local\Temp\cc506n3q.s 			page 52


 1313              		.loc 1 1220 0 discriminator 4
 1314 00ae 1D5C     		ldrb	r5, [r3, r0]
 1315 00b0 B81C     		add	r0, r7, #2
 1316              	.LVL162:
 1317 00b2 662D     		cmp	r5, #102
 1318 00b4 04D8     		bhi	.L97
1220:.\Generated_Source\PSoC4/W5100.c **** 				mac[digit] += W5100_HEX2BIN(macString[index++]);
 1319              		.loc 1 1220 0 discriminator 2
 1320 00b6 185C     		ldrb	r0, [r3, r0]
 1321              	.LVL163:
 1322 00b8 FA1C     		add	r2, r7, #3
 1323              	.LVL164:
 1324 00ba 5738     		sub	r0, r0, #87
 1325 00bc C5B2     		uxtb	r5, r0
 1326 00be 0EE0     		b	.L96
 1327              	.LVL165:
 1328              	.L97:
1220:.\Generated_Source\PSoC4/W5100.c **** 				mac[digit] += W5100_HEX2BIN(macString[index++]);
 1329              		.loc 1 1220 0 discriminator 5
 1330 00c0 1F5C     		ldrb	r7, [r3, r0]
 1331 00c2 421C     		add	r2, r0, #1
 1332              	.LVL166:
 1333 00c4 0025     		mov	r5, #0
 1334 00c6 402F     		cmp	r7, #64
 1335 00c8 09D9     		bls	.L96
1220:.\Generated_Source\PSoC4/W5100.c **** 				mac[digit] += W5100_HEX2BIN(macString[index++]);
 1336              		.loc 1 1220 0 discriminator 7
 1337 00ca 9A5C     		ldrb	r2, [r3, r2]
 1338 00cc 9446     		mov	ip, r2
 1339 00ce 6746     		mov	r7, ip
 1340 00d0 821C     		add	r2, r0, #2
 1341 00d2 462F     		cmp	r7, #70
 1342 00d4 03D8     		bhi	.L96
1220:.\Generated_Source\PSoC4/W5100.c **** 				mac[digit] += W5100_HEX2BIN(macString[index++]);
 1343              		.loc 1 1220 0 discriminator 3
 1344 00d6 9D5C     		ldrb	r5, [r3, r2]
 1345 00d8 C21C     		add	r2, r0, #3
 1346 00da 373D     		sub	r5, r5, #55
 1347 00dc EDB2     		uxtb	r5, r5
 1348              	.L96:
 1349 00de AE19     		add	r6, r5, r6
 1350 00e0 0E55     		strb	r6, [r1, r4]
1225:.\Generated_Source\PSoC4/W5100.c **** 				if (digit<5) {
 1351              		.loc 1 1225 0 is_stmt 1 discriminator 3
 1352 00e2 052C     		cmp	r4, #5
 1353 00e4 0AD0     		beq	.L107
1226:.\Generated_Source\PSoC4/W5100.c **** 					if (macString[index]!='-') {
 1354              		.loc 1 1226 0
 1355 00e6 9D5C     		ldrb	r5, [r3, r2]
1229:.\Generated_Source\PSoC4/W5100.c **** 					++index; // move conversion pointer to the next value
 1356              		.loc 1 1229 0
 1357 00e8 0132     		add	r2, r2, #1
1226:.\Generated_Source\PSoC4/W5100.c **** 					if (macString[index]!='-') {
 1358              		.loc 1 1226 0
 1359 00ea 2D3D     		sub	r5, r5, #45
 1360 00ec 6C1E     		sub	r4, r5, #1
 1361 00ee A541     		sbc	r5, r5, r4
ARM GAS  C:\Users\CHUCK~1.ERH\AppData\Local\Temp\cc506n3q.s 			page 53


 1362 00f0 6842     		neg	r0, r5
 1363 00f2 0624     		mov	r4, #6
 1364 00f4 2040     		and	r0, r4
 1365              	.LVL167:
 1366 00f6 03E0     		b	.L90
 1367              	.LVL168:
 1368              	.L104:
1233:.\Generated_Source\PSoC4/W5100.c **** 				result = CYRET_BAD_DATA;
 1369              		.loc 1 1233 0
 1370 00f8 0620     		mov	r0, #6
 1371 00fa 01E0     		b	.L90
 1372              	.L107:
1225:.\Generated_Source\PSoC4/W5100.c **** 				if (digit<5) {
 1373              		.loc 1 1225 0
 1374 00fc 0020     		mov	r0, #0
 1375 00fe 05E0     		b	.L99
 1376              	.L90:
 1377              	.LVL169:
1214:.\Generated_Source\PSoC4/W5100.c **** 	for(digit = 0;(digit<6) && (result == CYRET_SUCCESS)&&(macString[index] != 0);++digit) {
 1378              		.loc 1 1214 0
 1379 0100 019C     		ldr	r4, [sp, #4]
 1380              	.LVL170:
 1381 0102 062C     		cmp	r4, #6
 1382 0104 02D0     		beq	.L99
1214:.\Generated_Source\PSoC4/W5100.c **** 	for(digit = 0;(digit<6) && (result == CYRET_SUCCESS)&&(macString[index] != 0);++digit) {
 1383              		.loc 1 1214 0 is_stmt 0 discriminator 2
 1384 0106 0028     		cmp	r0, #0
 1385 0108 00D1     		bne	.LCB1345
 1386 010a 7DE7     		b	.L88	@long jump
 1387              	.LCB1345:
 1388              	.LVL171:
 1389              	.L99:
1241:.\Generated_Source\PSoC4/W5100.c **** }
 1390              		.loc 1 1241 0 is_stmt 1
 1391              		@ sp needed for prologue
 1392 010c FEBD     		pop	{r1, r2, r3, r4, r5, r6, r7, pc}
 1393              		.cfi_endproc
 1394              	.LFE77:
 1395              		.size	W5100_ParseMAC, .-W5100_ParseMAC
 1396              		.section	.text.W5100_StringMAC,"ax",%progbits
 1397              		.align	1
 1398              		.global	W5100_StringMAC
 1399              		.code	16
 1400              		.thumb_func
 1401              		.type	W5100_StringMAC, %function
 1402              	W5100_StringMAC:
 1403              	.LFB78:
1244:.\Generated_Source\PSoC4/W5100.c **** {
 1404              		.loc 1 1244 0
 1405              		.cfi_startproc
 1406              	.LVL172:
 1407 0000 73B5     		push	{r0, r1, r4, r5, r6, lr}
 1408              	.LCFI17:
 1409              		.cfi_def_cfa_offset 24
 1410              		.cfi_offset 0, -24
 1411              		.cfi_offset 1, -20
 1412              		.cfi_offset 4, -16
ARM GAS  C:\Users\CHUCK~1.ERH\AppData\Local\Temp\cc506n3q.s 			page 54


 1413              		.cfi_offset 5, -12
 1414              		.cfi_offset 6, -8
 1415              		.cfi_offset 14, -4
 1416              	.LVL173:
1244:.\Generated_Source\PSoC4/W5100.c **** {
 1417              		.loc 1 1244 0
 1418 0002 051C     		mov	r5, r0
 360:.\Generated_Source\PSoC4/W5100.c **** 	for(index=0;index<6;++index) {
 1419              		.loc 1 360 0
 1420 0004 0024     		mov	r4, #0
 1421              	.LVL174:
 1422              	.L113:
 1423              	.LBB84:
 1424              	.LBB85:
 1425              	.LBB86:
1243:.\Generated_Source\PSoC4/W5100.c **** void W5100_StringMAC(char *macString)
 1426              		.loc 1 1243 0
 1427 0006 201C     		mov	r0, r4
 1428 0008 0930     		add	r0, r0, #9
 361:.\Generated_Source\PSoC4/W5100.c **** 		mac[index] = W5100_W51_Read(addr+index);
 1429              		.loc 1 361 0
 1430 000a 80B2     		uxth	r0, r0
 1431 000c FFF7FEFF 		bl	W5100_W51_Read
 1432              	.LVL175:
 1433 0010 6B46     		mov	r3, sp
 1434              	.LVL176:
 1435 0012 E054     		strb	r0, [r4, r3]
 360:.\Generated_Source\PSoC4/W5100.c **** 	for(index=0;index<6;++index) {
 1436              		.loc 1 360 0
 1437 0014 0134     		add	r4, r4, #1
 1438              	.LVL177:
 1439 0016 062C     		cmp	r4, #6
 1440 0018 F5D1     		bne	.L113
 1441 001a 0023     		mov	r3, #0
 1442              	.LVL178:
 1443 001c 1A1C     		mov	r2, r3
 1444              	.LVL179:
 1445              	.L120:
 1446              	.LBE86:
 1447              	.LBE85:
 1448              	.LBE84:
1258:.\Generated_Source\PSoC4/W5100.c **** 		macString[index++] = W5100_BIN2HEX(((mac[digit]>>4)&0x0F));
 1449              		.loc 1 1258 0
 1450 001e 6946     		mov	r1, sp
 1451              	.LVL180:
 1452 0020 895C     		ldrb	r1, [r1, r2]
 1453              	.LVL181:
 1454 0022 EE18     		add	r6, r5, r3
 1455 0024 0809     		lsr	r0, r1, #4
 1456 0026 041C     		mov	r4, r0
 1457 0028 3034     		add	r4, r4, #48
 1458 002a 0928     		cmp	r0, #9
 1459 002c 00DD     		ble	.L115
1258:.\Generated_Source\PSoC4/W5100.c **** 		macString[index++] = W5100_BIN2HEX(((mac[digit]>>4)&0x0F));
 1460              		.loc 1 1258 0 is_stmt 0 discriminator 1
 1461 002e 0734     		add	r4, r4, #7
 1462              	.L115:
ARM GAS  C:\Users\CHUCK~1.ERH\AppData\Local\Temp\cc506n3q.s 			page 55


1259:.\Generated_Source\PSoC4/W5100.c **** 		macString[index++] = W5100_BIN2HEX((mac[digit]&0x0F));
 1463              		.loc 1 1259 0 is_stmt 1 discriminator 3
 1464 0030 0F20     		mov	r0, #15
1258:.\Generated_Source\PSoC4/W5100.c **** 		macString[index++] = W5100_BIN2HEX(((mac[digit]>>4)&0x0F));
 1465              		.loc 1 1258 0 discriminator 3
 1466 0032 3470     		strb	r4, [r6]
 1467              	.LVL182:
1259:.\Generated_Source\PSoC4/W5100.c **** 		macString[index++] = W5100_BIN2HEX((mac[digit]&0x0F));
 1468              		.loc 1 1259 0 discriminator 3
 1469 0034 0140     		and	r1, r0
1258:.\Generated_Source\PSoC4/W5100.c **** 		macString[index++] = W5100_BIN2HEX(((mac[digit]>>4)&0x0F));
 1470              		.loc 1 1258 0 discriminator 3
 1471 0036 5E1C     		add	r6, r3, #1
 1472              	.LVL183:
1259:.\Generated_Source\PSoC4/W5100.c **** 		macString[index++] = W5100_BIN2HEX((mac[digit]&0x0F));
 1473              		.loc 1 1259 0 discriminator 3
 1474 0038 AC19     		add	r4, r5, r6
 1475 003a 0E1C     		mov	r6, r1
 1476              	.LVL184:
 1477 003c 3036     		add	r6, r6, #48
 1478 003e 0929     		cmp	r1, #9
 1479 0040 00DD     		ble	.L117
1259:.\Generated_Source\PSoC4/W5100.c **** 		macString[index++] = W5100_BIN2HEX((mac[digit]&0x0F));
 1480              		.loc 1 1259 0 is_stmt 0 discriminator 1
 1481 0042 0736     		add	r6, r6, #7
 1482              	.L117:
1259:.\Generated_Source\PSoC4/W5100.c **** 		macString[index++] = W5100_BIN2HEX((mac[digit]&0x0F));
 1483              		.loc 1 1259 0 discriminator 3
 1484 0044 2670     		strb	r6, [r4]
 1485 0046 991C     		add	r1, r3, #2
 1486              	.LVL185:
 1487 0048 541C     		add	r4, r2, #1
1260:.\Generated_Source\PSoC4/W5100.c **** 		if (digit<5) {
 1488              		.loc 1 1260 0 is_stmt 1 discriminator 3
 1489 004a 052A     		cmp	r2, #5
 1490 004c 06D0     		beq	.L118
1261:.\Generated_Source\PSoC4/W5100.c **** 			macString[index++] = '-';
 1491              		.loc 1 1261 0
 1492 004e 2D20     		mov	r0, #45
 1493 0050 6854     		strb	r0, [r5, r1]
 1494 0052 0333     		add	r3, r3, #3
 1495              	.LVL186:
1256:.\Generated_Source\PSoC4/W5100.c **** 	for(digit=0;digit<6;++digit) {
 1496              		.loc 1 1256 0
 1497 0054 221E     		sub	r2, r4, #0
 1498              	.LVL187:
 1499 0056 062A     		cmp	r2, #6
 1500 0058 E1D1     		bne	.L120
 1501 005a 01E0     		b	.L123
 1502              	.LVL188:
 1503              	.L118:
1264:.\Generated_Source\PSoC4/W5100.c **** 			macString[index] = 0;
 1504              		.loc 1 1264 0
 1505 005c 0022     		mov	r2, #0
 1506 005e 6A54     		strb	r2, [r5, r1]
 1507              	.LVL189:
 1508              	.L123:
ARM GAS  C:\Users\CHUCK~1.ERH\AppData\Local\Temp\cc506n3q.s 			page 56


1267:.\Generated_Source\PSoC4/W5100.c **** }
 1509              		.loc 1 1267 0
 1510              		@ sp needed for prologue
 1511              	.LVL190:
 1512 0060 73BD     		pop	{r0, r1, r4, r5, r6, pc}
 1513              		.cfi_endproc
 1514              	.LFE78:
 1515              		.size	W5100_StringMAC, .-W5100_StringMAC
 1516              		.global	__aeabi_idiv
 1517              		.section	.text.W5100_StringIP,"ax",%progbits
 1518              		.align	1
 1519              		.global	W5100_StringIP
 1520              		.code	16
 1521              		.thumb_func
 1522              		.type	W5100_StringIP, %function
 1523              	W5100_StringIP:
 1524              	.LFB79:
1270:.\Generated_Source\PSoC4/W5100.c **** {
 1525              		.loc 1 1270 0
 1526              		.cfi_startproc
 1527              	.LVL191:
 1528 0000 F7B5     		push	{r0, r1, r2, r4, r5, r6, r7, lr}
 1529              	.LCFI18:
 1530              		.cfi_def_cfa_offset 32
 1531              		.cfi_offset 0, -32
 1532              		.cfi_offset 1, -28
 1533              		.cfi_offset 2, -24
 1534              		.cfi_offset 4, -20
 1535              		.cfi_offset 5, -16
 1536              		.cfi_offset 6, -12
 1537              		.cfi_offset 7, -8
 1538              		.cfi_offset 14, -4
1270:.\Generated_Source\PSoC4/W5100.c **** {
 1539              		.loc 1 1270 0
 1540 0002 071C     		mov	r7, r0
 1541              	.LBB89:
 1542              	.LBB90:
 509:.\Generated_Source\PSoC4/W5100.c **** static uint32 W5100_GetSourceIP( void ) { return W5100_W51_GetIP( 0x0F ); }
 1543              		.loc 1 509 0
 1544 0004 FFF7FEFF 		bl	W5100_W51_GetIP.constprop.7
 1545              	.LVL192:
 1546              	.LBE90:
 1547              	.LBE89:
1280:.\Generated_Source\PSoC4/W5100.c **** 	for(digit=0;digit<4;++digit) {
 1548              		.loc 1 1280 0
 1549 0008 0026     		mov	r6, #0
1277:.\Generated_Source\PSoC4/W5100.c **** 	ip = W5100_GetSourceIP();
 1550              		.loc 1 1277 0
 1551 000a 0190     		str	r0, [sp, #4]
 1552              	.LVL193:
1279:.\Generated_Source\PSoC4/W5100.c **** 	index = 0;
 1553              		.loc 1 1279 0
 1554 000c 341C     		mov	r4, r6
 1555              	.LVL194:
 1556              	.L129:
1281:.\Generated_Source\PSoC4/W5100.c **** 		work = ipBytes[digit];
 1557              		.loc 1 1281 0
ARM GAS  C:\Users\CHUCK~1.ERH\AppData\Local\Temp\cc506n3q.s 			page 57


 1558 000e 01AB     		add	r3, sp, #4
 1559              	.LVL195:
 1560 0010 F55C     		ldrb	r5, [r6, r3]
 1561              	.LVL196:
1282:.\Generated_Source\PSoC4/W5100.c **** 		if (work >= 100) {
 1562              		.loc 1 1282 0
 1563 0012 632D     		cmp	r5, #99
 1564 0014 0ADD     		ble	.L125
1283:.\Generated_Source\PSoC4/W5100.c **** 			temp = work/100;
 1565              		.loc 1 1283 0
 1566 0016 281C     		mov	r0, r5
 1567 0018 6421     		mov	r1, #100
 1568 001a FFF7FEFF 		bl	__aeabi_idiv
 1569              	.LVL197:
1284:.\Generated_Source\PSoC4/W5100.c **** 			work -= (temp*100);
 1570              		.loc 1 1284 0
 1571 001e 6421     		mov	r1, #100
 1572 0020 4A42     		neg	r2, r1
 1573 0022 4243     		mul	r2, r0
1285:.\Generated_Source\PSoC4/W5100.c **** 			ipString[index++] = '0' + temp;
 1574              		.loc 1 1285 0
 1575 0024 3030     		add	r0, r0, #48
 1576              	.LVL198:
 1577 0026 3855     		strb	r0, [r7, r4]
1284:.\Generated_Source\PSoC4/W5100.c **** 			work -= (temp*100);
 1578              		.loc 1 1284 0
 1579 0028 AD18     		add	r5, r5, r2
 1580              	.LVL199:
1285:.\Generated_Source\PSoC4/W5100.c **** 			ipString[index++] = '0' + temp;
 1581              		.loc 1 1285 0
 1582 002a 0134     		add	r4, r4, #1
 1583              	.LVL200:
 1584              	.L125:
1287:.\Generated_Source\PSoC4/W5100.c **** 		if (work >= 10) {
 1585              		.loc 1 1287 0
 1586 002c 092D     		cmp	r5, #9
 1587 002e 0ADD     		ble	.L126
1288:.\Generated_Source\PSoC4/W5100.c **** 			temp = work /10;
 1588              		.loc 1 1288 0
 1589 0030 281C     		mov	r0, r5
 1590 0032 0A21     		mov	r1, #10
 1591 0034 FFF7FEFF 		bl	__aeabi_idiv
 1592              	.LVL201:
1289:.\Generated_Source\PSoC4/W5100.c **** 			work -= (temp*10);
 1593              		.loc 1 1289 0
 1594 0038 0A23     		mov	r3, #10
 1595 003a 5942     		neg	r1, r3
 1596 003c 4143     		mul	r1, r0
1290:.\Generated_Source\PSoC4/W5100.c **** 			ipString[index++] = '0'+temp;
 1597              		.loc 1 1290 0
 1598 003e 3030     		add	r0, r0, #48
 1599              	.LVL202:
 1600 0040 3855     		strb	r0, [r7, r4]
1289:.\Generated_Source\PSoC4/W5100.c **** 			work -= (temp*10);
 1601              		.loc 1 1289 0
 1602 0042 6D18     		add	r5, r5, r1
 1603              	.LVL203:
ARM GAS  C:\Users\CHUCK~1.ERH\AppData\Local\Temp\cc506n3q.s 			page 58


1290:.\Generated_Source\PSoC4/W5100.c **** 			ipString[index++] = '0'+temp;
 1604              		.loc 1 1290 0
 1605 0044 0134     		add	r4, r4, #1
 1606              	.LVL204:
 1607              	.L126:
1292:.\Generated_Source\PSoC4/W5100.c **** 		ipString[index++] = '0'+work;
 1608              		.loc 1 1292 0
 1609 0046 3035     		add	r5, r5, #48
 1610              	.LVL205:
 1611 0048 3D55     		strb	r5, [r7, r4]
 1612 004a 601C     		add	r0, r4, #1
 1613              	.LVL206:
 1614 004c 721C     		add	r2, r6, #1
1293:.\Generated_Source\PSoC4/W5100.c **** 		if (digit <3) {
 1615              		.loc 1 1293 0
 1616 004e 032E     		cmp	r6, #3
 1617 0050 06D0     		beq	.L127
1294:.\Generated_Source\PSoC4/W5100.c **** 			ipString[index++] = '.';
 1618              		.loc 1 1294 0
 1619 0052 2E23     		mov	r3, #46
 1620 0054 3B54     		strb	r3, [r7, r0]
 1621 0056 0234     		add	r4, r4, #2
 1622              	.LVL207:
1280:.\Generated_Source\PSoC4/W5100.c **** 	for(digit=0;digit<4;++digit) {
 1623              		.loc 1 1280 0
 1624 0058 161E     		sub	r6, r2, #0
 1625              	.LVL208:
 1626 005a 042E     		cmp	r6, #4
 1627 005c D7D1     		bne	.L129
 1628 005e 01E0     		b	.L131
 1629              	.LVL209:
 1630              	.L127:
1297:.\Generated_Source\PSoC4/W5100.c **** 			ipString[index] = 0;
 1631              		.loc 1 1297 0
 1632 0060 0026     		mov	r6, #0
 1633 0062 3E54     		strb	r6, [r7, r0]
 1634              	.LVL210:
 1635              	.L131:
1300:.\Generated_Source\PSoC4/W5100.c **** }
 1636              		.loc 1 1300 0
 1637              		@ sp needed for prologue
 1638              	.LVL211:
 1639              	.LVL212:
 1640 0064 F7BD     		pop	{r0, r1, r2, r4, r5, r6, r7, pc}
 1641              		.cfi_endproc
 1642              	.LFE79:
 1643              		.size	W5100_StringIP, .-W5100_StringIP
 1644              		.section	.text.W5100_SetIP,"ax",%progbits
 1645              		.align	1
 1646              		.global	W5100_SetIP
 1647              		.code	16
 1648              		.thumb_func
 1649              		.type	W5100_SetIP, %function
 1650              	W5100_SetIP:
 1651              	.LFB80:
1305:.\Generated_Source\PSoC4/W5100.c **** {
 1652              		.loc 1 1305 0
ARM GAS  C:\Users\CHUCK~1.ERH\AppData\Local\Temp\cc506n3q.s 			page 59


 1653              		.cfi_startproc
 1654              	.LVL213:
 1655 0000 08B5     		push	{r3, lr}
 1656              	.LCFI19:
 1657              		.cfi_def_cfa_offset 8
 1658              		.cfi_offset 3, -8
 1659              		.cfi_offset 14, -4
1308:.\Generated_Source\PSoC4/W5100.c **** 	if ( ( ip != 0) && (ip != 0xFFFFFFFF) ) {
 1660              		.loc 1 1308 0
 1661 0002 431E     		sub	r3, r0, #1
1305:.\Generated_Source\PSoC4/W5100.c **** {
 1662              		.loc 1 1305 0
 1663 0004 011C     		mov	r1, r0
1306:.\Generated_Source\PSoC4/W5100.c **** 	uint8 ok = 0;
 1664              		.loc 1 1306 0
 1665 0006 0020     		mov	r0, #0
 1666              	.LVL214:
1308:.\Generated_Source\PSoC4/W5100.c **** 	if ( ( ip != 0) && (ip != 0xFFFFFFFF) ) {
 1667              		.loc 1 1308 0
 1668 0008 0333     		add	r3, r3, #3
 1669 000a 03D8     		bhi	.L133
 1670              	.LVL215:
 1671              	.LBB93:
 1672              	.LBB94:
 503:.\Generated_Source\PSoC4/W5100.c **** static void W5100_SetSourceIP( uint32 ip ) { W5100_W51_SetIP( 0x0F, ip ); }
 1673              		.loc 1 503 0
 1674 000c 0F20     		mov	r0, #15
 1675 000e FFF7FEFF 		bl	W5100_W51_SetIP
 1676              	.LVL216:
1310:.\Generated_Source\PSoC4/W5100.c **** 		ok = 0xFF;
 1677              		.loc 1 1310 0
 1678 0012 FF20     		mov	r0, #255
 1679              	.LVL217:
 1680              	.L133:
 1681              	.LBE94:
 1682              	.LBE93:
1314:.\Generated_Source\PSoC4/W5100.c **** }
 1683              		.loc 1 1314 0
 1684              		@ sp needed for prologue
 1685 0014 08BD     		pop	{r3, pc}
 1686              		.cfi_endproc
 1687              	.LFE80:
 1688              		.size	W5100_SetIP, .-W5100_SetIP
 1689              		.section	.text.W5100_GetIP,"ax",%progbits
 1690              		.align	1
 1691              		.global	W5100_GetIP
 1692              		.code	16
 1693              		.thumb_func
 1694              		.type	W5100_GetIP, %function
 1695              	W5100_GetIP:
 1696              	.LFB81:
1318:.\Generated_Source\PSoC4/W5100.c **** {
 1697              		.loc 1 1318 0
 1698              		.cfi_startproc
 1699 0000 08B5     		push	{r3, lr}
 1700              	.LCFI20:
 1701              		.cfi_def_cfa_offset 8
ARM GAS  C:\Users\CHUCK~1.ERH\AppData\Local\Temp\cc506n3q.s 			page 60


 1702              		.cfi_offset 3, -8
 1703              		.cfi_offset 14, -4
 1704              	.LBB97:
 1705              	.LBB98:
 509:.\Generated_Source\PSoC4/W5100.c **** static uint32 W5100_GetSourceIP( void ) { return W5100_W51_GetIP( 0x0F ); }
 1706              		.loc 1 509 0
 1707 0002 FFF7FEFF 		bl	W5100_W51_GetIP.constprop.7
 1708              	.LVL218:
 1709              	.LBE98:
 1710              	.LBE97:
1320:.\Generated_Source\PSoC4/W5100.c **** }
 1711              		.loc 1 1320 0
 1712              		@ sp needed for prologue
 1713 0006 08BD     		pop	{r3, pc}
 1714              		.cfi_endproc
 1715              	.LFE81:
 1716              		.size	W5100_GetIP, .-W5100_GetIP
 1717              		.section	.text.W5100_SetMAC,"ax",%progbits
 1718              		.align	1
 1719              		.global	W5100_SetMAC
 1720              		.code	16
 1721              		.thumb_func
 1722              		.type	W5100_SetMAC, %function
 1723              	W5100_SetMAC:
 1724              	.LFB82:
1324:.\Generated_Source\PSoC4/W5100.c **** {
 1725              		.loc 1 1324 0
 1726              		.cfi_startproc
 1727              	.LVL219:
 1728 0000 38B5     		push	{r3, r4, r5, lr}
 1729              	.LCFI21:
 1730              		.cfi_def_cfa_offset 16
 1731              		.cfi_offset 3, -16
 1732              		.cfi_offset 4, -12
 1733              		.cfi_offset 5, -8
 1734              		.cfi_offset 14, -4
1324:.\Generated_Source\PSoC4/W5100.c **** {
 1735              		.loc 1 1324 0
 1736 0002 051C     		mov	r5, r0
 1737              	.LVL220:
 346:.\Generated_Source\PSoC4/W5100.c **** 	for(index = 0;index<6;++index)
 1738              		.loc 1 346 0
 1739 0004 0024     		mov	r4, #0
 1740              	.LVL221:
 1741              	.L137:
 1742              	.LBB103:
 1743              	.LBB104:
 1744              	.LBB105:
1323:.\Generated_Source\PSoC4/W5100.c **** W5100_SetMAC( uint8* mac )
 1745              		.loc 1 1323 0
 1746 0006 201C     		mov	r0, r4
 1747 0008 0930     		add	r0, r0, #9
 348:.\Generated_Source\PSoC4/W5100.c **** 		W5100_W51_Write(addr+index,mac[index]);
 1748              		.loc 1 348 0
 1749 000a 295D     		ldrb	r1, [r5, r4]
 1750 000c 80B2     		uxth	r0, r0
 346:.\Generated_Source\PSoC4/W5100.c **** 	for(index = 0;index<6;++index)
ARM GAS  C:\Users\CHUCK~1.ERH\AppData\Local\Temp\cc506n3q.s 			page 61


 1751              		.loc 1 346 0
 1752 000e 0134     		add	r4, r4, #1
 348:.\Generated_Source\PSoC4/W5100.c **** 		W5100_W51_Write(addr+index,mac[index]);
 1753              		.loc 1 348 0
 1754 0010 FFF7FEFF 		bl	W5100_W51_Write
 1755              	.LVL222:
 346:.\Generated_Source\PSoC4/W5100.c **** 	for(index = 0;index<6;++index)
 1756              		.loc 1 346 0
 1757 0014 062C     		cmp	r4, #6
 1758 0016 F6D1     		bne	.L137
 1759              	.LBE105:
 1760              	.LBE104:
 1761              	.LBE103:
1326:.\Generated_Source\PSoC4/W5100.c **** }
 1762              		.loc 1 1326 0
 1763              		@ sp needed for prologue
 1764              	.LVL223:
 1765              	.LVL224:
 1766 0018 38BD     		pop	{r3, r4, r5, pc}
 1767              		.cfi_endproc
 1768              	.LFE82:
 1769              		.size	W5100_SetMAC, .-W5100_SetMAC
 1770              		.section	.text.W5100_GetMAC,"ax",%progbits
 1771              		.align	1
 1772              		.global	W5100_GetMAC
 1773              		.code	16
 1774              		.thumb_func
 1775              		.type	W5100_GetMAC, %function
 1776              	W5100_GetMAC:
 1777              	.LFB83:
1330:.\Generated_Source\PSoC4/W5100.c **** {
 1778              		.loc 1 1330 0
 1779              		.cfi_startproc
 1780              	.LVL225:
 1781 0000 38B5     		push	{r3, r4, r5, lr}
 1782              	.LCFI22:
 1783              		.cfi_def_cfa_offset 16
 1784              		.cfi_offset 3, -16
 1785              		.cfi_offset 4, -12
 1786              		.cfi_offset 5, -8
 1787              		.cfi_offset 14, -4
1330:.\Generated_Source\PSoC4/W5100.c **** {
 1788              		.loc 1 1330 0
 1789 0002 051C     		mov	r5, r0
 1790              	.LVL226:
 360:.\Generated_Source\PSoC4/W5100.c **** 	for(index=0;index<6;++index) {
 1791              		.loc 1 360 0
 1792 0004 0024     		mov	r4, #0
 1793              	.LVL227:
 1794              	.L140:
 1795              	.LBB110:
 1796              	.LBB111:
 1797              	.LBB112:
1329:.\Generated_Source\PSoC4/W5100.c **** W5100_GetMAC( uint8* mac )
 1798              		.loc 1 1329 0
 1799 0006 201C     		mov	r0, r4
 1800 0008 0930     		add	r0, r0, #9
ARM GAS  C:\Users\CHUCK~1.ERH\AppData\Local\Temp\cc506n3q.s 			page 62


 361:.\Generated_Source\PSoC4/W5100.c **** 		mac[index] = W5100_W51_Read(addr+index);
 1801              		.loc 1 361 0
 1802 000a 80B2     		uxth	r0, r0
 1803 000c FFF7FEFF 		bl	W5100_W51_Read
 1804              	.LVL228:
 1805 0010 2855     		strb	r0, [r5, r4]
 360:.\Generated_Source\PSoC4/W5100.c **** 	for(index=0;index<6;++index) {
 1806              		.loc 1 360 0
 1807 0012 0134     		add	r4, r4, #1
 1808              	.LVL229:
 1809 0014 062C     		cmp	r4, #6
 1810 0016 F6D1     		bne	.L140
 1811              	.LBE112:
 1812              	.LBE111:
 1813              	.LBE110:
1332:.\Generated_Source\PSoC4/W5100.c **** }
 1814              		.loc 1 1332 0
 1815              		@ sp needed for prologue
 1816              	.LVL230:
 1817              	.LVL231:
 1818 0018 38BD     		pop	{r3, r4, r5, pc}
 1819              		.cfi_endproc
 1820              	.LFE83:
 1821              		.size	W5100_GetMAC, .-W5100_GetMAC
 1822              		.section	.text.W5100_SocketOpen,"ax",%progbits
 1823              		.align	1
 1824              		.global	W5100_SocketOpen
 1825              		.code	16
 1826              		.thumb_func
 1827              		.type	W5100_SocketOpen, %function
 1828              	W5100_SocketOpen:
 1829              	.LFB84:
1340:.\Generated_Source\PSoC4/W5100.c **** {
 1830              		.loc 1 1340 0
 1831              		.cfi_startproc
 1832              	.LVL232:
 1833 0000 F8B5     		push	{r3, r4, r5, r6, r7, lr}
 1834              	.LCFI23:
 1835              		.cfi_def_cfa_offset 24
 1836              		.cfi_offset 3, -24
 1837              		.cfi_offset 4, -20
 1838              		.cfi_offset 5, -16
 1839              		.cfi_offset 6, -12
 1840              		.cfi_offset 7, -8
 1841              		.cfi_offset 14, -4
1340:.\Generated_Source\PSoC4/W5100.c **** {
 1842              		.loc 1 1340 0
 1843 0002 051C     		mov	r5, r0
 1844 0004 161C     		mov	r6, r2
1352:.\Generated_Source\PSoC4/W5100.c **** 	for( index = 0;index<4;++index) {
 1845              		.loc 1 1352 0
 1846 0006 0023     		mov	r3, #0
1350:.\Generated_Source\PSoC4/W5100.c **** 	socket = 0xFF;
 1847              		.loc 1 1350 0
 1848 0008 FF24     		mov	r4, #255
 1849              	.LVL233:
 1850              	.L152:
ARM GAS  C:\Users\CHUCK~1.ERH\AppData\Local\Temp\cc506n3q.s 			page 63


 1851 000a 5A1C     		add	r2, r3, #1
1353:.\Generated_Source\PSoC4/W5100.c **** 		if ( (socket == 0xFF) && (W5100_SocketConfig[index].Protocol == 0) ) {
 1852              		.loc 1 1353 0
 1853 000c FF2C     		cmp	r4, #255
 1854 000e 0DD1     		bne	.L143
1339:.\Generated_Source\PSoC4/W5100.c **** W5100_SocketOpen( uint8 Protocol, uint16 port, uint8 flags )
 1855              		.loc 1 1339 0 discriminator 1
 1856 0010 0627     		mov	r7, #6
 1857 0012 5F43     		mul	r7, r3
1353:.\Generated_Source\PSoC4/W5100.c **** 		if ( (socket == 0xFF) && (W5100_SocketConfig[index].Protocol == 0) ) {
 1858              		.loc 1 1353 0 discriminator 1
 1859 0014 1748     		ldr	r0, .L153
 1860 0016 0430     		add	r0, r0, #4
 1861 0018 3F5C     		ldrb	r7, [r7, r0]
 1862 001a 002F     		cmp	r7, #0
 1863 001c 06D1     		bne	.L143
1359:.\Generated_Source\PSoC4/W5100.c **** 			if ( (Protocol != W5100_PROTO_MAC) || (index != 0) ) {
 1864              		.loc 1 1359 0
 1865 001e 042D     		cmp	r5, #4
 1866 0020 03D1     		bne	.L144
1359:.\Generated_Source\PSoC4/W5100.c **** 			if ( (Protocol != W5100_PROTO_MAC) || (index != 0) ) {
 1867              		.loc 1 1359 0 is_stmt 0 discriminator 1
 1868 0022 002B     		cmp	r3, #0
 1869 0024 01D1     		bne	.L144
 1870 0026 131C     		mov	r3, r2
 1871 0028 EFE7     		b	.L152
 1872              	.L144:
1361:.\Generated_Source\PSoC4/W5100.c **** 				socket = index;
 1873              		.loc 1 1361 0 is_stmt 1
 1874 002a DCB2     		uxtb	r4, r3
 1875              	.LVL234:
 1876              	.L143:
1352:.\Generated_Source\PSoC4/W5100.c **** 	for( index = 0;index<4;++index) {
 1877              		.loc 1 1352 0
 1878 002c 131E     		sub	r3, r2, #0
 1879              	.LVL235:
 1880 002e 042B     		cmp	r3, #4
 1881 0030 EBD1     		bne	.L152
 1882              	.LVL236:
1365:.\Generated_Source\PSoC4/W5100.c **** 	if (socket != 0xFF ) {
 1883              		.loc 1 1365 0
 1884 0032 FF2C     		cmp	r4, #255
 1885 0034 1BD0     		beq	.L146
1367:.\Generated_Source\PSoC4/W5100.c **** 		W5100_SocketConfig[socket].Protocol = Protocol;
 1886              		.loc 1 1367 0
 1887 0036 0620     		mov	r0, #6
 1888 0038 6043     		mul	r0, r4
 1889 003a 0E4A     		ldr	r2, .L153
 1890              	.LVL237:
1370:.\Generated_Source\PSoC4/W5100.c **** 		W5100_SocketConfig[socket].ServerFlag = 0;
 1891              		.loc 1 1370 0
 1892 003c 0023     		mov	r3, #0
 1893              	.LVL238:
1367:.\Generated_Source\PSoC4/W5100.c **** 		W5100_SocketConfig[socket].Protocol = Protocol;
 1894              		.loc 1 1367 0
 1895 003e 1718     		add	r7, r2, r0
 1896              	.LBB117:
ARM GAS  C:\Users\CHUCK~1.ERH\AppData\Local\Temp\cc506n3q.s 			page 64


 1897              	.LBB118:
 700:.\Generated_Source\PSoC4/W5100.c **** { W5100_W51_Write16(W5100_SOCKET_BASE(socket)+4,port); }
 1898              		.loc 1 700 0
 1899 0040 0D4A     		ldr	r2, .L153+4
 1900              	.LBE118:
 1901              	.LBE117:
1367:.\Generated_Source\PSoC4/W5100.c **** 		W5100_SocketConfig[socket].Protocol = Protocol;
 1902              		.loc 1 1367 0
 1903 0042 381D     		add	r0, r7, #4
1369:.\Generated_Source\PSoC4/W5100.c **** 		W5100_SocketConfig[socket].SourcePort = port;
 1904              		.loc 1 1369 0
 1905 0044 F980     		strh	r1, [r7, #6]
1367:.\Generated_Source\PSoC4/W5100.c **** 		W5100_SocketConfig[socket].Protocol = Protocol;
 1906              		.loc 1 1367 0
 1907 0046 3D71     		strb	r5, [r7, #4]
1368:.\Generated_Source\PSoC4/W5100.c **** 		W5100_SocketConfig[socket].SocketFlags = flags;
 1908              		.loc 1 1368 0
 1909 0048 7E71     		strb	r6, [r7, #5]
 1910              	.LBB121:
 1911              	.LBB119:
 700:.\Generated_Source\PSoC4/W5100.c **** { W5100_W51_Write16(W5100_SOCKET_BASE(socket)+4,port); }
 1912              		.loc 1 700 0
 1913 004a 2702     		lsl	r7, r4, #8
 1914              	.LBE119:
 1915              	.LBE121:
1370:.\Generated_Source\PSoC4/W5100.c **** 		W5100_SocketConfig[socket].ServerFlag = 0;
 1916              		.loc 1 1370 0
 1917 004c 0371     		strb	r3, [r0, #4]
 1918              	.LVL239:
 1919              	.LBB122:
 1920              	.LBB120:
 700:.\Generated_Source\PSoC4/W5100.c **** { W5100_W51_Write16(W5100_SOCKET_BASE(socket)+4,port); }
 1921              		.loc 1 700 0
 1922 004e B818     		add	r0, r7, r2
 1923 0050 80B2     		uxth	r0, r0
 1924 0052 FFF7FEFF 		bl	W5100_W51_Write16
 1925              	.LVL240:
 1926              	.LBE120:
 1927              	.LBE122:
 1928              	.LBB123:
 1929              	.LBB124:
 636:.\Generated_Source\PSoC4/W5100.c **** { W5100_W51_Write(W5100_SOCKET_BASE(socket), mode); }
 1930              		.loc 1 636 0
 1931 0056 8021     		mov	r1, #128
 1932 0058 CB00     		lsl	r3, r1, #3
 1933 005a FF18     		add	r7, r7, r3
 1934 005c 311C     		mov	r1, r6
 1935 005e B8B2     		uxth	r0, r7
 1936 0060 2943     		orr	r1, r5
 1937 0062 FFF7FEFF 		bl	W5100_W51_Write
 1938              	.LVL241:
 1939              	.LBE124:
 1940              	.LBE123:
1374:.\Generated_Source\PSoC4/W5100.c **** 		W5100_ExecuteSocketCommand( socket, 1 );
 1941              		.loc 1 1374 0
 1942 0066 201C     		mov	r0, r4
 1943 0068 0121     		mov	r1, #1
ARM GAS  C:\Users\CHUCK~1.ERH\AppData\Local\Temp\cc506n3q.s 			page 65


 1944 006a FFF7FEFF 		bl	W5100_ExecuteSocketCommand
 1945              	.LVL242:
 1946              	.L146:
1377:.\Generated_Source\PSoC4/W5100.c **** }
 1947              		.loc 1 1377 0
 1948 006e 201C     		mov	r0, r4
 1949              		@ sp needed for prologue
 1950              	.LVL243:
 1951 0070 F8BD     		pop	{r3, r4, r5, r6, r7, pc}
 1952              	.L154:
 1953 0072 C046     		.align	2
 1954              	.L153:
 1955 0074 00000000 		.word	.LANCHOR0
 1956 0078 04040000 		.word	1028
 1957              		.cfi_endproc
 1958              	.LFE84:
 1959              		.size	W5100_SocketOpen, .-W5100_SocketOpen
 1960              		.section	.text.W5100_SocketClose,"ax",%progbits
 1961              		.align	1
 1962              		.global	W5100_SocketClose
 1963              		.code	16
 1964              		.thumb_func
 1965              		.type	W5100_SocketClose, %function
 1966              	W5100_SocketClose:
 1967              	.LFB85:
1381:.\Generated_Source\PSoC4/W5100.c **** {
 1968              		.loc 1 1381 0
 1969              		.cfi_startproc
 1970              	.LVL244:
 1971 0000 10B5     		push	{r4, lr}
 1972              	.LCFI24:
 1973              		.cfi_def_cfa_offset 8
 1974              		.cfi_offset 4, -8
 1975              		.cfi_offset 14, -4
1381:.\Generated_Source\PSoC4/W5100.c **** {
 1976              		.loc 1 1381 0
 1977 0002 041E     		sub	r4, r0, #0
1386:.\Generated_Source\PSoC4/W5100.c **** 	if (socket < 4) {
 1978              		.loc 1 1386 0
 1979 0004 032C     		cmp	r4, #3
 1980 0006 11D8     		bhi	.L155
 1981              	.LVL245:
 1982              	.LBB129:
 1983              	.LBB130:
1388:.\Generated_Source\PSoC4/W5100.c **** 		W5100_SocketConfig[socket].Protocol = 0;
 1984              		.loc 1 1388 0
 1985 0008 0622     		mov	r2, #6
 1986 000a 4243     		mul	r2, r0
 1987 000c 084B     		ldr	r3, .L157
 1988 000e 0021     		mov	r1, #0
 1989 0010 9818     		add	r0, r3, r2
 1990              	.LVL246:
 1991 0012 0171     		strb	r1, [r0, #4]
1389:.\Generated_Source\PSoC4/W5100.c **** 		W5100_SocketConfig[socket].SocketFlags = 0;
 1992              		.loc 1 1389 0
 1993 0014 4171     		strb	r1, [r0, #5]
1391:.\Generated_Source\PSoC4/W5100.c **** 		W5100_ExecuteSocketCommand( socket, 0x10 );
ARM GAS  C:\Users\CHUCK~1.ERH\AppData\Local\Temp\cc506n3q.s 			page 66


 1994              		.loc 1 1391 0
 1995 0016 201C     		mov	r0, r4
 1996 0018 1021     		mov	r1, #16
 1997 001a FFF7FEFF 		bl	W5100_ExecuteSocketCommand
 1998              	.LVL247:
 1999              	.LBB131:
 2000              	.LBB132:
 668:.\Generated_Source\PSoC4/W5100.c **** { W5100_W51_Write(W5100_SOCKET_BASE(socket)+2,ir); }
 2001              		.loc 1 668 0
 2002 001e 054A     		ldr	r2, .L157+4
 2003 0020 2402     		lsl	r4, r4, #8
 2004              	.LVL248:
 2005 0022 A318     		add	r3, r4, r2
 2006 0024 98B2     		uxth	r0, r3
 2007 0026 FF21     		mov	r1, #255
 2008 0028 FFF7FEFF 		bl	W5100_W51_Write
 2009              	.LVL249:
 2010              	.L155:
 2011              	.LBE132:
 2012              	.LBE131:
 2013              	.LBE130:
 2014              	.LBE129:
1395:.\Generated_Source\PSoC4/W5100.c **** }
 2015              		.loc 1 1395 0
 2016              		@ sp needed for prologue
 2017 002c 10BD     		pop	{r4, pc}
 2018              	.L158:
 2019 002e C046     		.align	2
 2020              	.L157:
 2021 0030 00000000 		.word	.LANCHOR0
 2022 0034 02040000 		.word	1026
 2023              		.cfi_endproc
 2024              	.LFE85:
 2025              		.size	W5100_SocketClose, .-W5100_SocketClose
 2026              		.section	.text.W5100_Init,"ax",%progbits
 2027              		.align	1
 2028              		.global	W5100_Init
 2029              		.code	16
 2030              		.thumb_func
 2031              		.type	W5100_Init, %function
 2032              	W5100_Init:
 2033              	.LFB74:
1074:.\Generated_Source\PSoC4/W5100.c **** {
 2034              		.loc 1 1074 0
 2035              		.cfi_startproc
 2036              	.LVL250:
 2037 0000 F8B5     		push	{r3, r4, r5, r6, r7, lr}
 2038              	.LCFI25:
 2039              		.cfi_def_cfa_offset 24
 2040              		.cfi_offset 3, -24
 2041              		.cfi_offset 4, -20
 2042              		.cfi_offset 5, -16
 2043              		.cfi_offset 6, -12
 2044              		.cfi_offset 7, -8
 2045              		.cfi_offset 14, -4
1074:.\Generated_Source\PSoC4/W5100.c **** {
 2046              		.loc 1 1074 0
ARM GAS  C:\Users\CHUCK~1.ERH\AppData\Local\Temp\cc506n3q.s 			page 67


 2047 0002 061C     		mov	r6, r0
1082:.\Generated_Source\PSoC4/W5100.c **** 	CyDelay( 250 ); /* Fixed Boot Delay or chip inintialization will fail */
 2048              		.loc 1 1082 0
 2049 0004 FA20     		mov	r0, #250
 2050              	.LVL251:
1074:.\Generated_Source\PSoC4/W5100.c **** {
 2051              		.loc 1 1074 0
 2052 0006 141C     		mov	r4, r2
 2053 0008 1F1C     		mov	r7, r3
 2054 000a 0D1C     		mov	r5, r1
1082:.\Generated_Source\PSoC4/W5100.c **** 	CyDelay( 250 ); /* Fixed Boot Delay or chip inintialization will fail */
 2055              		.loc 1 1082 0
 2056 000c FFF7FEFF 		bl	CyDelay
 2057              	.LVL252:
 2058              	.LBB153:
 2059              	.LBB154:
 515:.\Generated_Source\PSoC4/W5100.c **** static void W5100_SetMode( uint8 mode ) { W5100_W51_Write(0,mode); }
 2060              		.loc 1 515 0
 2061 0010 8021     		mov	r1, #128
 2062 0012 0020     		mov	r0, #0
 2063 0014 FFF7FEFF 		bl	W5100_W51_Write
 2064              	.LVL253:
 2065              	.LBE154:
 2066              	.LBE153:
1087:.\Generated_Source\PSoC4/W5100.c **** 	CyDelay( 10 );
 2067              		.loc 1 1087 0
 2068 0018 0A20     		mov	r0, #10
 2069 001a FFF7FEFF 		bl	CyDelay
 2070              	.LVL254:
1091:.\Generated_Source\PSoC4/W5100.c **** 		W5100_SocketClose( index );
 2071              		.loc 1 1091 0
 2072 001e 0020     		mov	r0, #0
 2073 0020 FFF7FEFF 		bl	W5100_SocketClose
 2074              	.LVL255:
 2075 0024 0120     		mov	r0, #1
 2076 0026 FFF7FEFF 		bl	W5100_SocketClose
 2077              	.LVL256:
 2078 002a 0220     		mov	r0, #2
 2079 002c FFF7FEFF 		bl	W5100_SocketClose
 2080              	.LVL257:
 2081 0030 0320     		mov	r0, #3
 2082 0032 FFF7FEFF 		bl	W5100_SocketClose
 2083              	.LVL258:
 2084              	.LBB155:
 2085              	.LBB156:
 587:.\Generated_Source\PSoC4/W5100.c **** static void W5100_SetTxMemSize( uint8 size ) { W5100_W51_Write( 0x1B, size); }
 2086              		.loc 1 587 0
 2087 0036 1B20     		mov	r0, #27
 2088 0038 5521     		mov	r1, #85
 2089 003a FFF7FEFF 		bl	W5100_W51_Write
 2090              	.LVL259:
 2091              	.LBE156:
 2092              	.LBE155:
 2093              	.LBB157:
 2094              	.LBB158:
 575:.\Generated_Source\PSoC4/W5100.c **** static void W5100_SetRxMemSize( uint8 size ) { W5100_W51_Write( 0x1A, size ); }
 2095              		.loc 1 575 0
ARM GAS  C:\Users\CHUCK~1.ERH\AppData\Local\Temp\cc506n3q.s 			page 68


 2096 003e 1A20     		mov	r0, #26
 2097 0040 5521     		mov	r1, #85
 2098 0042 FFF7FEFF 		bl	W5100_W51_Write
 2099              	.LVL260:
 2100              	.LBE158:
 2101              	.LBE157:
 2102              	.LBB159:
 2103              	.LBB160:
 479:.\Generated_Source\PSoC4/W5100.c **** static void W5100_SetGatewayAddress(uint32 ip) { W5100_W51_SetIP(1,ip); }
 2104              		.loc 1 479 0
 2105 0046 0120     		mov	r0, #1
 2106 0048 391C     		mov	r1, r7
 2107 004a FFF7FEFF 		bl	W5100_W51_SetIP
 2108              	.LVL261:
 2109              	.LBE160:
 2110              	.LBE159:
 2111              	.LBB161:
 2112              	.LBB162:
 491:.\Generated_Source\PSoC4/W5100.c **** static void W5100_SetSubnetMask( uint32 ip ) { W5100_W51_SetIP(5, ip); }
 2113              		.loc 1 491 0
 2114 004e 211C     		mov	r1, r4
 2115 0050 0520     		mov	r0, #5
 2116 0052 FFF7FEFF 		bl	W5100_W51_SetIP
 2117              	.LVL262:
 2118              	.LBE162:
 2119              	.LBE161:
1100:.\Generated_Source\PSoC4/W5100.c **** 	W5100_SubnetMask = subnet;
 2120              		.loc 1 1100 0
 2121 0056 0C4B     		ldr	r3, .L162
 2122 0058 1C60     		str	r4, [r3]
 2123              	.LVL263:
 346:.\Generated_Source\PSoC4/W5100.c **** 	for(index = 0;index<6;++index)
 2124              		.loc 1 346 0
 2125 005a 0024     		mov	r4, #0
 2126              	.LVL264:
 2127              	.L160:
 2128              	.LBB163:
 2129              	.LBB164:
 2130              	.LBB165:
1073:.\Generated_Source\PSoC4/W5100.c **** W5100_Init(uint8* mac, uint32 ip, uint32 subnet, uint32 gateway)
 2131              		.loc 1 1073 0
 2132 005c 201C     		mov	r0, r4
 2133 005e 0930     		add	r0, r0, #9
 348:.\Generated_Source\PSoC4/W5100.c **** 		W5100_W51_Write(addr+index,mac[index]);
 2134              		.loc 1 348 0
 2135 0060 315D     		ldrb	r1, [r6, r4]
 2136 0062 80B2     		uxth	r0, r0
 346:.\Generated_Source\PSoC4/W5100.c **** 	for(index = 0;index<6;++index)
 2137              		.loc 1 346 0
 2138 0064 0134     		add	r4, r4, #1
 348:.\Generated_Source\PSoC4/W5100.c **** 		W5100_W51_Write(addr+index,mac[index]);
 2139              		.loc 1 348 0
 2140 0066 FFF7FEFF 		bl	W5100_W51_Write
 2141              	.LVL265:
 346:.\Generated_Source\PSoC4/W5100.c **** 	for(index = 0;index<6;++index)
 2142              		.loc 1 346 0
 2143 006a 062C     		cmp	r4, #6
ARM GAS  C:\Users\CHUCK~1.ERH\AppData\Local\Temp\cc506n3q.s 			page 69


 2144 006c F6D1     		bne	.L160
 2145              	.LVL266:
 2146              	.LBE165:
 2147              	.LBE164:
 2148              	.LBE163:
 2149              	.LBB166:
 2150              	.LBB167:
 503:.\Generated_Source\PSoC4/W5100.c **** static void W5100_SetSourceIP( uint32 ip ) { W5100_W51_SetIP( 0x0F, ip ); }
 2151              		.loc 1 503 0
 2152 006e 291C     		mov	r1, r5
 2153 0070 0F20     		mov	r0, #15
 2154 0072 FFF7FEFF 		bl	W5100_W51_SetIP
 2155              	.LVL267:
 2156              	.LBE167:
 2157              	.LBE166:
 2158              	.LBB168:
 2159              	.LBB169:
 527:.\Generated_Source\PSoC4/W5100.c **** static void W5100_SetIR( uint8 ir ) { W5100_W51_Write(0x0015,ir); }
 2160              		.loc 1 527 0
 2161 0076 1520     		mov	r0, #21
 2162 0078 FF21     		mov	r1, #255
 2163 007a FFF7FEFF 		bl	W5100_W51_Write
 2164              	.LVL268:
 2165              	.LBE169:
 2166              	.LBE168:
 2167              	.LBB170:
 2168              	.LBB171:
 491:.\Generated_Source\PSoC4/W5100.c **** static void W5100_SetSubnetMask( uint32 ip ) { W5100_W51_SetIP(5, ip); }
 2169              		.loc 1 491 0
 2170 007e 0520     		mov	r0, #5
 2171 0080 0021     		mov	r1, #0
 2172 0082 FFF7FEFF 		bl	W5100_W51_SetIP
 2173              	.LVL269:
 2174              	.LBE171:
 2175              	.LBE170:
1109:.\Generated_Source\PSoC4/W5100.c **** }
 2176              		.loc 1 1109 0
 2177              		@ sp needed for prologue
 2178              	.LVL270:
 2179              	.LVL271:
 2180              	.LVL272:
 2181              	.LVL273:
 2182 0086 F8BD     		pop	{r3, r4, r5, r6, r7, pc}
 2183              	.L163:
 2184              		.align	2
 2185              	.L162:
 2186 0088 00000000 		.word	.LANCHOR0
 2187              		.cfi_endproc
 2188              	.LFE74:
 2189              		.size	W5100_Init, .-W5100_Init
 2190              		.section	.text.W5100_Start,"ax",%progbits
 2191              		.align	1
 2192              		.global	W5100_Start
 2193              		.code	16
 2194              		.thumb_func
 2195              		.type	W5100_Start, %function
 2196              	W5100_Start:
ARM GAS  C:\Users\CHUCK~1.ERH\AppData\Local\Temp\cc506n3q.s 			page 70


 2197              	.LFB75:
1113:.\Generated_Source\PSoC4/W5100.c **** {
 2198              		.loc 1 1113 0
 2199              		.cfi_startproc
 2200 0000 70B5     		push	{r4, r5, r6, lr}
 2201              	.LCFI26:
 2202              		.cfi_def_cfa_offset 16
 2203              		.cfi_offset 4, -16
 2204              		.cfi_offset 5, -12
 2205              		.cfi_offset 6, -8
 2206              		.cfi_offset 14, -4
1119:.\Generated_Source\PSoC4/W5100.c **** 	if (SPI_initVar == 0) {
 2207              		.loc 1 1119 0
 2208 0002 184B     		ldr	r3, .L167
 2209 0004 1878     		ldrb	r0, [r3]
 2210 0006 0028     		cmp	r0, #0
 2211 0008 01D1     		bne	.L165
1124:.\Generated_Source\PSoC4/W5100.c **** 		SPI_Start();
 2212              		.loc 1 1124 0
 2213 000a FFF7FEFF 		bl	SPI_Start
 2214              	.LVL274:
 2215              	.L165:
1128:.\Generated_Source\PSoC4/W5100.c **** 	CyDelay( 10 );
 2216              		.loc 1 1128 0
 2217 000e 0A20     		mov	r0, #10
 2218 0010 FFF7FEFF 		bl	CyDelay
 2219              	.LVL275:
1130:.\Generated_Source\PSoC4/W5100.c **** 	if ( W5100_ParseMAC("00-DE-AD-BE-EF-00", &W5100_MAC[0]) == CYRET_BAD_DATA) {
 2220              		.loc 1 1130 0
 2221 0014 144C     		ldr	r4, .L167+4
 2222 0016 1548     		ldr	r0, .L167+8
 2223 0018 211C     		mov	r1, r4
 2224 001a 1C31     		add	r1, r1, #28
 2225 001c FFF7FEFF 		bl	W5100_ParseMAC
 2226              	.LVL276:
 2227 0020 0628     		cmp	r0, #6
 2228 0022 0BD1     		bne	.L166
1131:.\Generated_Source\PSoC4/W5100.c **** 		W5100_MAC[0] = 0;
 2229              		.loc 1 1131 0
 2230 0024 0025     		mov	r5, #0
1132:.\Generated_Source\PSoC4/W5100.c **** 		W5100_MAC[1] = 0xDE;
 2231              		.loc 1 1132 0
 2232 0026 DE22     		mov	r2, #222
1133:.\Generated_Source\PSoC4/W5100.c **** 		W5100_MAC[2] = 0xAD;
 2233              		.loc 1 1133 0
 2234 0028 AD21     		mov	r1, #173
1134:.\Generated_Source\PSoC4/W5100.c **** 		W5100_MAC[3] = 0xC0;
 2235              		.loc 1 1134 0
 2236 002a C026     		mov	r6, #192
1135:.\Generated_Source\PSoC4/W5100.c **** 		W5100_MAC[4] = 0xDE;
 2237              		.loc 1 1135 0
 2238 002c 631C     		add	r3, r4, #1
1136:.\Generated_Source\PSoC4/W5100.c **** 		W5100_MAC[5] = 0;
 2239              		.loc 1 1136 0
 2240 002e A01C     		add	r0, r4, #2
1131:.\Generated_Source\PSoC4/W5100.c **** 		W5100_MAC[0] = 0;
 2241              		.loc 1 1131 0
ARM GAS  C:\Users\CHUCK~1.ERH\AppData\Local\Temp\cc506n3q.s 			page 71


 2242 0030 2577     		strb	r5, [r4, #28]
1132:.\Generated_Source\PSoC4/W5100.c **** 		W5100_MAC[1] = 0xDE;
 2243              		.loc 1 1132 0
 2244 0032 6277     		strb	r2, [r4, #29]
1133:.\Generated_Source\PSoC4/W5100.c **** 		W5100_MAC[2] = 0xAD;
 2245              		.loc 1 1133 0
 2246 0034 A177     		strb	r1, [r4, #30]
1134:.\Generated_Source\PSoC4/W5100.c **** 		W5100_MAC[3] = 0xC0;
 2247              		.loc 1 1134 0
 2248 0036 E677     		strb	r6, [r4, #31]
1135:.\Generated_Source\PSoC4/W5100.c **** 		W5100_MAC[4] = 0xDE;
 2249              		.loc 1 1135 0
 2250 0038 DA77     		strb	r2, [r3, #31]
1136:.\Generated_Source\PSoC4/W5100.c **** 		W5100_MAC[5] = 0;
 2251              		.loc 1 1136 0
 2252 003a C577     		strb	r5, [r0, #31]
 2253              	.L166:
1139:.\Generated_Source\PSoC4/W5100.c **** 	ip = W5100_ParseIP("192.168.1.101");
 2254              		.loc 1 1139 0
 2255 003c 0C48     		ldr	r0, .L167+12
 2256 003e FFF7FEFF 		bl	W5100_ParseIP
 2257              	.LVL277:
 2258 0042 061C     		mov	r6, r0
 2259              	.LVL278:
1140:.\Generated_Source\PSoC4/W5100.c **** 	sub = W5100_ParseIP("255.255.255.0");
 2260              		.loc 1 1140 0
 2261 0044 0B48     		ldr	r0, .L167+16
 2262              	.LVL279:
 2263 0046 FFF7FEFF 		bl	W5100_ParseIP
 2264              	.LVL280:
 2265 004a 051C     		mov	r5, r0
 2266              	.LVL281:
1141:.\Generated_Source\PSoC4/W5100.c **** 	gateway = W5100_ParseIP("192.168.1.1");
 2267              		.loc 1 1141 0
 2268 004c 0A48     		ldr	r0, .L167+20
 2269              	.LVL282:
 2270 004e FFF7FEFF 		bl	W5100_ParseIP
 2271              	.LVL283:
 2272 0052 031C     		mov	r3, r0
 2273              	.LVL284:
1143:.\Generated_Source\PSoC4/W5100.c **** 	W5100_Init( &W5100_MAC[0], ip, sub, gateway  );
 2274              		.loc 1 1143 0
 2275 0054 201C     		mov	r0, r4
 2276              	.LVL285:
 2277 0056 311C     		mov	r1, r6
 2278 0058 2A1C     		mov	r2, r5
 2279 005a 1C30     		add	r0, r0, #28
 2280 005c FFF7FEFF 		bl	W5100_Init
 2281              	.LVL286:
1144:.\Generated_Source\PSoC4/W5100.c **** }
 2282              		.loc 1 1144 0
 2283              		@ sp needed for prologue
 2284              	.LVL287:
 2285              	.LVL288:
 2286 0060 70BD     		pop	{r4, r5, r6, pc}
 2287              	.L168:
 2288 0062 C046     		.align	2
ARM GAS  C:\Users\CHUCK~1.ERH\AppData\Local\Temp\cc506n3q.s 			page 72


 2289              	.L167:
 2290 0064 00000000 		.word	SPI_initVar
 2291 0068 00000000 		.word	.LANCHOR0
 2292 006c 00000000 		.word	.LC8
 2293 0070 12000000 		.word	.LC11
 2294 0074 20000000 		.word	.LC13
 2295 0078 2E000000 		.word	.LC15
 2296              		.cfi_endproc
 2297              	.LFE75:
 2298              		.size	W5100_Start, .-W5100_Start
 2299              		.section	.text.W5100_SocketProcessConnections,"ax",%progbits
 2300              		.align	1
 2301              		.global	W5100_SocketProcessConnections
 2302              		.code	16
 2303              		.thumb_func
 2304              		.type	W5100_SocketProcessConnections, %function
 2305              	W5100_SocketProcessConnections:
 2306              	.LFB86:
1399:.\Generated_Source\PSoC4/W5100.c **** {
 2307              		.loc 1 1399 0
 2308              		.cfi_startproc
 2309              	.LVL289:
 2310 0000 10B5     		push	{r4, lr}
 2311              	.LCFI27:
 2312              		.cfi_def_cfa_offset 8
 2313              		.cfi_offset 4, -8
 2314              		.cfi_offset 14, -4
1399:.\Generated_Source\PSoC4/W5100.c **** {
 2315              		.loc 1 1399 0
 2316 0002 041C     		mov	r4, r0
1402:.\Generated_Source\PSoC4/W5100.c **** 	status = W5100_GetSocketStatus(socket);
 2317              		.loc 1 1402 0
 2318 0004 FFF7FEFF 		bl	W5100_GetSocketStatus
 2319              	.LVL290:
1404:.\Generated_Source\PSoC4/W5100.c **** 	if (status == 0x1C) {
 2320              		.loc 1 1404 0
 2321 0008 1C28     		cmp	r0, #28
 2322 000a 02D1     		bne	.L170
1406:.\Generated_Source\PSoC4/W5100.c **** 		W5100_SocketClose(socket);
 2323              		.loc 1 1406 0
 2324 000c 201C     		mov	r0, r4
 2325              	.LVL291:
 2326 000e FFF7FEFF 		bl	W5100_SocketClose
 2327              	.LVL292:
 2328              	.L170:
1408:.\Generated_Source\PSoC4/W5100.c **** 	return (W5100_GetSocketStatus(socket) == 0x00);
 2329              		.loc 1 1408 0
 2330 0012 201C     		mov	r0, r4
 2331 0014 FFF7FEFF 		bl	W5100_GetSocketStatus
 2332              	.LVL293:
1409:.\Generated_Source\PSoC4/W5100.c **** }
 2333              		.loc 1 1409 0
 2334              		@ sp needed for prologue
1408:.\Generated_Source\PSoC4/W5100.c **** 	return (W5100_GetSocketStatus(socket) == 0x00);
 2335              		.loc 1 1408 0
 2336 0018 4342     		neg	r3, r0
 2337 001a 5841     		adc	r0, r0, r3
ARM GAS  C:\Users\CHUCK~1.ERH\AppData\Local\Temp\cc506n3q.s 			page 73


1409:.\Generated_Source\PSoC4/W5100.c **** }
 2338              		.loc 1 1409 0
 2339 001c 10BD     		pop	{r4, pc}
 2340              		.cfi_endproc
 2341              	.LFE86:
 2342              		.size	W5100_SocketProcessConnections, .-W5100_SocketProcessConnections
 2343              		.section	.text.W5100_SocketEstablished,"ax",%progbits
 2344              		.align	1
 2345              		.global	W5100_SocketEstablished
 2346              		.code	16
 2347              		.thumb_func
 2348              		.type	W5100_SocketEstablished, %function
 2349              	W5100_SocketEstablished:
 2350              	.LFB87:
1413:.\Generated_Source\PSoC4/W5100.c **** {
 2351              		.loc 1 1413 0
 2352              		.cfi_startproc
 2353              	.LVL294:
 2354 0000 08B5     		push	{r3, lr}
 2355              	.LCFI28:
 2356              		.cfi_def_cfa_offset 8
 2357              		.cfi_offset 3, -8
 2358              		.cfi_offset 14, -4
1414:.\Generated_Source\PSoC4/W5100.c **** 	return (W5100_GetSocketStatus( socket ) == 0x17);
 2359              		.loc 1 1414 0
 2360 0002 FFF7FEFF 		bl	W5100_GetSocketStatus
 2361              	.LVL295:
 2362 0006 1738     		sub	r0, r0, #23
 2363 0008 4342     		neg	r3, r0
 2364 000a 5841     		adc	r0, r0, r3
1415:.\Generated_Source\PSoC4/W5100.c **** }
 2365              		.loc 1 1415 0
 2366              		@ sp needed for prologue
 2367 000c 08BD     		pop	{r3, pc}
 2368              		.cfi_endproc
 2369              	.LFE87:
 2370              		.size	W5100_SocketEstablished, .-W5100_SocketEstablished
 2371              		.section	.text.W5100_SocketRxDataWaiting,"ax",%progbits
 2372              		.align	1
 2373              		.global	W5100_SocketRxDataWaiting
 2374              		.code	16
 2375              		.thumb_func
 2376              		.type	W5100_SocketRxDataWaiting, %function
 2377              	W5100_SocketRxDataWaiting:
 2378              	.LFB90:
1443:.\Generated_Source\PSoC4/W5100.c **** /* ------------------------------------------------------------------------ */
1444:.\Generated_Source\PSoC4/W5100.c **** /**
1445:.\Generated_Source\PSoC4/W5100.c ****  * \brief Execute a SEND without an ARP.
1446:.\Generated_Source\PSoC4/W5100.c ****  * \param socket the socket to which the SEND will be executed.
1447:.\Generated_Source\PSoC4/W5100.c ****  */
1448:.\Generated_Source\PSoC4/W5100.c **** static void
1449:.\Generated_Source\PSoC4/W5100.c **** W5100_SocketSendMac(uint8 socket )
1450:.\Generated_Source\PSoC4/W5100.c **** {
1451:.\Generated_Source\PSoC4/W5100.c **** 	uint8 ir;
1452:.\Generated_Source\PSoC4/W5100.c **** 	
1453:.\Generated_Source\PSoC4/W5100.c **** 	/* initialize the subnet mask register : ERRATA FIX */
1454:.\Generated_Source\PSoC4/W5100.c **** 	W5100_SetSubnetMask( W5100_SubnetMask );
ARM GAS  C:\Users\CHUCK~1.ERH\AppData\Local\Temp\cc506n3q.s 			page 74


1455:.\Generated_Source\PSoC4/W5100.c **** 	/* Issue the SEND command */
1456:.\Generated_Source\PSoC4/W5100.c **** 	W5100_ExecuteSocketCommand( socket, 0x21 );
1457:.\Generated_Source\PSoC4/W5100.c **** 	/* wait for the SEND to complete, or for a timeout */
1458:.\Generated_Source\PSoC4/W5100.c **** 	ir = W5100_GetSocketIR( socket );
1459:.\Generated_Source\PSoC4/W5100.c **** 	/* while SEND is not done, and the socket hasnot timed out or been dsconnected */
1460:.\Generated_Source\PSoC4/W5100.c **** 	while ( ((ir & 0x10) == 0) && (!(ir&0x0A)) ) {
1461:.\Generated_Source\PSoC4/W5100.c **** 		CyDelay(1);
1462:.\Generated_Source\PSoC4/W5100.c **** 		ir = W5100_GetSocketIR( socket );
1463:.\Generated_Source\PSoC4/W5100.c **** 		
1464:.\Generated_Source\PSoC4/W5100.c **** 	}
1465:.\Generated_Source\PSoC4/W5100.c **** 	/* clear the SEND_OK flag from the register */
1466:.\Generated_Source\PSoC4/W5100.c **** 	W5100_SetSocketIR( socket, 0x10 );
1467:.\Generated_Source\PSoC4/W5100.c **** 	/* reset the subnet mask : ERRATA FIX */
1468:.\Generated_Source\PSoC4/W5100.c **** 	W5100_SetSubnetMask( 0 );
1469:.\Generated_Source\PSoC4/W5100.c **** }
1470:.\Generated_Source\PSoC4/W5100.c **** /* ------------------------------------------------------------------------ */
1471:.\Generated_Source\PSoC4/W5100.c **** uint16
1472:.\Generated_Source\PSoC4/W5100.c **** W5100_SocketRxDataWaiting( uint8 socket )
1473:.\Generated_Source\PSoC4/W5100.c **** {
 2379              		.loc 1 1473 0
 2380              		.cfi_startproc
 2381              	.LVL296:
 2382 0000 08B5     		push	{r3, lr}
 2383              	.LCFI29:
 2384              		.cfi_def_cfa_offset 8
 2385              		.cfi_offset 3, -8
 2386              		.cfi_offset 14, -4
1474:.\Generated_Source\PSoC4/W5100.c **** 	return W5100_GetRxSize( socket );
 2387              		.loc 1 1474 0
 2388 0002 FFF7FEFF 		bl	W5100_GetRxSize
 2389              	.LVL297:
1475:.\Generated_Source\PSoC4/W5100.c **** }
 2390              		.loc 1 1475 0
 2391              		@ sp needed for prologue
 2392 0006 08BD     		pop	{r3, pc}
 2393              		.cfi_endproc
 2394              	.LFE90:
 2395              		.size	W5100_SocketRxDataWaiting, .-W5100_SocketRxDataWaiting
 2396              		.section	.text.W5100_TcpOpen,"ax",%progbits
 2397              		.align	1
 2398              		.global	W5100_TcpOpen
 2399              		.code	16
 2400              		.thumb_func
 2401              		.type	W5100_TcpOpen, %function
 2402              	W5100_TcpOpen:
 2403              	.LFB91:
1476:.\Generated_Source\PSoC4/W5100.c **** #endif
1477:.\Generated_Source\PSoC4/W5100.c **** /* ======================================================================== */
1478:.\Generated_Source\PSoC4/W5100.c **** /* TCP/IP */
1479:.\Generated_Source\PSoC4/W5100.c **** #if (1)
1480:.\Generated_Source\PSoC4/W5100.c **** /* ------------------------------------------------------------------------ */
1481:.\Generated_Source\PSoC4/W5100.c **** uint8
1482:.\Generated_Source\PSoC4/W5100.c **** W5100_TcpOpen(uint16 port)
1483:.\Generated_Source\PSoC4/W5100.c **** {
 2404              		.loc 1 1483 0
 2405              		.cfi_startproc
 2406              	.LVL298:
ARM GAS  C:\Users\CHUCK~1.ERH\AppData\Local\Temp\cc506n3q.s 			page 75


 2407 0000 08B5     		push	{r3, lr}
 2408              	.LCFI30:
 2409              		.cfi_def_cfa_offset 8
 2410              		.cfi_offset 3, -8
 2411              		.cfi_offset 14, -4
 2412              		.loc 1 1483 0
 2413 0002 011C     		mov	r1, r0
1484:.\Generated_Source\PSoC4/W5100.c **** 	return W5100_SocketOpen(W5100_PROTO_TCP, port, 0);
 2414              		.loc 1 1484 0
 2415 0004 0022     		mov	r2, #0
 2416 0006 0120     		mov	r0, #1
 2417              	.LVL299:
 2418 0008 FFF7FEFF 		bl	W5100_SocketOpen
 2419              	.LVL300:
1485:.\Generated_Source\PSoC4/W5100.c **** }
 2420              		.loc 1 1485 0
 2421              		@ sp needed for prologue
 2422 000c 08BD     		pop	{r3, pc}
 2423              		.cfi_endproc
 2424              	.LFE91:
 2425              		.size	W5100_TcpOpen, .-W5100_TcpOpen
 2426              		.section	.text.W5100_TcpStartServer,"ax",%progbits
 2427              		.align	1
 2428              		.global	W5100_TcpStartServer
 2429              		.code	16
 2430              		.thumb_func
 2431              		.type	W5100_TcpStartServer, %function
 2432              	W5100_TcpStartServer:
 2433              	.LFB92:
1486:.\Generated_Source\PSoC4/W5100.c **** /* ------------------------------------------------------------------------ */
1487:.\Generated_Source\PSoC4/W5100.c **** void
1488:.\Generated_Source\PSoC4/W5100.c **** W5100_TcpStartServer( uint8 socket )
1489:.\Generated_Source\PSoC4/W5100.c **** {
 2434              		.loc 1 1489 0
 2435              		.cfi_startproc
 2436              	.LVL301:
 2437 0000 08B5     		push	{r3, lr}
 2438              	.LCFI31:
 2439              		.cfi_def_cfa_offset 8
 2440              		.cfi_offset 3, -8
 2441              		.cfi_offset 14, -4
1490:.\Generated_Source\PSoC4/W5100.c **** 	/*
1491:.\Generated_Source\PSoC4/W5100.c **** 	 * Start a open socket listening for a connection
1492:.\Generated_Source\PSoC4/W5100.c **** 	 */
1493:.\Generated_Source\PSoC4/W5100.c **** 	/* was this a valid socket? */
1494:.\Generated_Source\PSoC4/W5100.c **** 	if (socket < 4) {
 2442              		.loc 1 1494 0
 2443 0002 0328     		cmp	r0, #3
 2444 0004 02D8     		bhi	.L174
1495:.\Generated_Source\PSoC4/W5100.c **** 		/* Execute the listen command */
1496:.\Generated_Source\PSoC4/W5100.c **** 		W5100_ExecuteSocketCommand( socket, 0x02 );
 2445              		.loc 1 1496 0
 2446 0006 0221     		mov	r1, #2
 2447 0008 FFF7FEFF 		bl	W5100_ExecuteSocketCommand
 2448              	.LVL302:
 2449              	.L174:
1497:.\Generated_Source\PSoC4/W5100.c **** 	}
ARM GAS  C:\Users\CHUCK~1.ERH\AppData\Local\Temp\cc506n3q.s 			page 76


1498:.\Generated_Source\PSoC4/W5100.c **** }
 2450              		.loc 1 1498 0
 2451              		@ sp needed for prologue
 2452 000c 08BD     		pop	{r3, pc}
 2453              		.cfi_endproc
 2454              	.LFE92:
 2455              		.size	W5100_TcpStartServer, .-W5100_TcpStartServer
 2456              		.section	.text.W5100_TcpStartServerWait,"ax",%progbits
 2457              		.align	1
 2458              		.global	W5100_TcpStartServerWait
 2459              		.code	16
 2460              		.thumb_func
 2461              		.type	W5100_TcpStartServerWait, %function
 2462              	W5100_TcpStartServerWait:
 2463              	.LFB93:
1499:.\Generated_Source\PSoC4/W5100.c **** /* ------------------------------------------------------------------------ */
1500:.\Generated_Source\PSoC4/W5100.c **** void
1501:.\Generated_Source\PSoC4/W5100.c **** W5100_TcpStartServerWait( uint8 socket )
1502:.\Generated_Source\PSoC4/W5100.c **** {
 2464              		.loc 1 1502 0
 2465              		.cfi_startproc
 2466              	.LVL303:
 2467 0000 10B5     		push	{r4, lr}
 2468              	.LCFI32:
 2469              		.cfi_def_cfa_offset 8
 2470              		.cfi_offset 4, -8
 2471              		.cfi_offset 14, -4
 2472              		.loc 1 1502 0
 2473 0002 041C     		mov	r4, r0
1503:.\Generated_Source\PSoC4/W5100.c **** 	W5100_TcpStartServer(socket);
 2474              		.loc 1 1503 0
 2475 0004 FFF7FEFF 		bl	W5100_TcpStartServer
 2476              	.LVL304:
 2477              	.L177:
1504:.\Generated_Source\PSoC4/W5100.c **** 	/* wait for socket establishment */
1505:.\Generated_Source\PSoC4/W5100.c **** 	while ( !W5100_SocketEstablished(socket) ) {
 2478              		.loc 1 1505 0 discriminator 1
 2479 0008 201C     		mov	r0, r4
 2480 000a FFF7FEFF 		bl	W5100_SocketEstablished
 2481              	.LVL305:
 2482 000e 0028     		cmp	r0, #0
 2483 0010 03D1     		bne	.L179
 2484              	.L178:
1506:.\Generated_Source\PSoC4/W5100.c **** 		CyDelay(1);
 2485              		.loc 1 1506 0
 2486 0012 0120     		mov	r0, #1
 2487 0014 FFF7FEFF 		bl	CyDelay
 2488              	.LVL306:
 2489 0018 F6E7     		b	.L177
 2490              	.L179:
1507:.\Generated_Source\PSoC4/W5100.c **** 	}
1508:.\Generated_Source\PSoC4/W5100.c **** }
 2491              		.loc 1 1508 0
 2492              		@ sp needed for prologue
 2493 001a 10BD     		pop	{r4, pc}
 2494              		.cfi_endproc
 2495              	.LFE93:
ARM GAS  C:\Users\CHUCK~1.ERH\AppData\Local\Temp\cc506n3q.s 			page 77


 2496              		.size	W5100_TcpStartServerWait, .-W5100_TcpStartServerWait
 2497              		.section	.text.W5100_TcpConnect,"ax",%progbits
 2498              		.align	1
 2499              		.global	W5100_TcpConnect
 2500              		.code	16
 2501              		.thumb_func
 2502              		.type	W5100_TcpConnect, %function
 2503              	W5100_TcpConnect:
 2504              	.LFB94:
1509:.\Generated_Source\PSoC4/W5100.c **** /* ------------------------------------------------------------------------ */
1510:.\Generated_Source\PSoC4/W5100.c **** void
1511:.\Generated_Source\PSoC4/W5100.c **** W5100_TcpConnect( uint8 socket, uint32 ip, uint16 port )
1512:.\Generated_Source\PSoC4/W5100.c **** {
 2505              		.loc 1 1512 0
 2506              		.cfi_startproc
 2507              	.LVL307:
 2508 0000 F8B5     		push	{r3, r4, r5, r6, r7, lr}
 2509              	.LCFI33:
 2510              		.cfi_def_cfa_offset 24
 2511              		.cfi_offset 3, -24
 2512              		.cfi_offset 4, -20
 2513              		.cfi_offset 5, -16
 2514              		.cfi_offset 6, -12
 2515              		.cfi_offset 7, -8
 2516              		.cfi_offset 14, -4
1513:.\Generated_Source\PSoC4/W5100.c **** 	uint32 timeout;
1514:.\Generated_Source\PSoC4/W5100.c **** 	uint8 ir;
1515:.\Generated_Source\PSoC4/W5100.c **** 	
1516:.\Generated_Source\PSoC4/W5100.c **** 	if ( (ip != 0xFFFFFFFF) && (ip != 0) ) {
 2517              		.loc 1 1516 0
 2518 0002 4B1E     		sub	r3, r1, #1
1512:.\Generated_Source\PSoC4/W5100.c **** {
 2519              		.loc 1 1512 0
 2520 0004 061C     		mov	r6, r0
 2521 0006 171C     		mov	r7, r2
 2522              		.loc 1 1516 0
 2523 0008 0333     		add	r3, r3, #3
 2524 000a 2ED8     		bhi	.L180
 2525              	.LVL308:
 2526              	.LBB182:
 2527              	.LBB183:
 732:.\Generated_Source\PSoC4/W5100.c **** { W5100_W51_SetIP(W5100_SOCKET_BASE(socket)+12,ip); }
 2528              		.loc 1 732 0
 2529 000c 0502     		lsl	r5, r0, #8
 2530 000e 1748     		ldr	r0, .L188
 2531              	.LVL309:
 2532 0010 2A18     		add	r2, r5, r0
 2533              	.LVL310:
 2534 0012 90B2     		uxth	r0, r2
 2535 0014 FFF7FEFF 		bl	W5100_W51_SetIP
 2536              	.LVL311:
 2537              	.LBE183:
 2538              	.LBE182:
 2539              	.LBB184:
 2540              	.LBB185:
 748:.\Generated_Source\PSoC4/W5100.c **** { W5100_W51_Write16( W5100_SOCKET_BASE(socket)+16, port); }
 2541              		.loc 1 748 0
ARM GAS  C:\Users\CHUCK~1.ERH\AppData\Local\Temp\cc506n3q.s 			page 78


 2542 0018 8221     		mov	r1, #130
 2543 001a CB00     		lsl	r3, r1, #3
 2544 001c E818     		add	r0, r5, r3
 2545 001e 391C     		mov	r1, r7
 2546 0020 80B2     		uxth	r0, r0
 2547 0022 FFF7FEFF 		bl	W5100_W51_Write16
 2548              	.LVL312:
 2549              	.LBE185:
 2550              	.LBE184:
 2551              	.LBB186:
 2552              	.LBB187:
 491:.\Generated_Source\PSoC4/W5100.c **** static void W5100_SetSubnetMask( uint32 ip ) { W5100_W51_SetIP(5, ip); }
 2553              		.loc 1 491 0
 2554 0026 124F     		ldr	r7, .L188+4
 2555              	.LVL313:
 2556 0028 0520     		mov	r0, #5
 2557 002a 3968     		ldr	r1, [r7]
 2558 002c FFF7FEFF 		bl	W5100_W51_SetIP
 2559              	.LVL314:
 2560              	.LBE187:
 2561              	.LBE186:
1517:.\Generated_Source\PSoC4/W5100.c **** 		W5100_SetSocketDestIP( socket, ip );
1518:.\Generated_Source\PSoC4/W5100.c **** 		W5100_SetSocketDestPort( socket, port );
1519:.\Generated_Source\PSoC4/W5100.c **** 		/* set socket subnet mask */
1520:.\Generated_Source\PSoC4/W5100.c **** 		W5100_SetSubnetMask( W5100_SubnetMask );
1521:.\Generated_Source\PSoC4/W5100.c **** 		W5100_ExecuteSocketCommand( socket, 0x04);
 2562              		.loc 1 1521 0
 2563 0030 301C     		mov	r0, r6
 2564 0032 0421     		mov	r1, #4
 2565 0034 FFF7FEFF 		bl	W5100_ExecuteSocketCommand
 2566              	.LVL315:
 2567              	.L187:
1522:.\Generated_Source\PSoC4/W5100.c **** 		/* wait for the socket connection to the remote host is established */
1523:.\Generated_Source\PSoC4/W5100.c **** 		while ( (!W5100_SocketEstablished(socket))  && (timeout < 3000) ) {
 2568              		.loc 1 1523 0 discriminator 1
 2569 0038 301C     		mov	r0, r6
 2570 003a FFF7FEFF 		bl	W5100_SocketEstablished
 2571              	.LVL316:
 2572 003e 0028     		cmp	r0, #0
 2573 0040 0FD1     		bne	.L184
 2574              		.loc 1 1523 0 is_stmt 0 discriminator 2
 2575 0042 0C4F     		ldr	r7, .L188+8
 2576 0044 BC42     		cmp	r4, r7
 2577 0046 0CD0     		beq	.L184
 2578              	.L185:
1524:.\Generated_Source\PSoC4/W5100.c **** 			CyDelay(1);
 2579              		.loc 1 1524 0 is_stmt 1
 2580 0048 0120     		mov	r0, #1
 2581 004a FFF7FEFF 		bl	CyDelay
 2582              	.LVL317:
 2583              	.LBB188:
 2584              	.LBB189:
 676:.\Generated_Source\PSoC4/W5100.c **** { return W5100_W51_Read(W5100_SOCKET_BASE(socket)+2); }
 2585              		.loc 1 676 0
 2586 004e 0A4A     		ldr	r2, .L188+12
 2587              	.LBE189:
 2588              	.LBE188:
ARM GAS  C:\Users\CHUCK~1.ERH\AppData\Local\Temp\cc506n3q.s 			page 79


1525:.\Generated_Source\PSoC4/W5100.c **** 			++timeout;
 2589              		.loc 1 1525 0
 2590 0050 0134     		add	r4, r4, #1
 2591              	.LVL318:
 2592              	.LBB191:
 2593              	.LBB190:
 676:.\Generated_Source\PSoC4/W5100.c **** { return W5100_W51_Read(W5100_SOCKET_BASE(socket)+2); }
 2594              		.loc 1 676 0
 2595 0052 A918     		add	r1, r5, r2
 2596 0054 88B2     		uxth	r0, r1
 2597 0056 FFF7FEFF 		bl	W5100_W51_Read
 2598              	.LVL319:
 2599              	.LBE190:
 2600              	.LBE191:
1526:.\Generated_Source\PSoC4/W5100.c **** 			ir = W5100_GetSocketIR( socket );
1527:.\Generated_Source\PSoC4/W5100.c **** 			if ( (ir & 0x08) != 0 ) {
 2601              		.loc 1 1527 0
 2602 005a 0307     		lsl	r3, r0, #28
 2603 005c ECD5     		bpl	.L187
1528:.\Generated_Source\PSoC4/W5100.c **** 				/* internal chip timeout occured */
1529:.\Generated_Source\PSoC4/W5100.c **** 				timeout = 3000;
 2604              		.loc 1 1529 0
 2605 005e 3C1C     		mov	r4, r7
 2606              	.LVL320:
 2607 0060 EAE7     		b	.L187
 2608              	.LVL321:
 2609              	.L184:
 2610              	.LBB192:
 2611              	.LBB193:
 491:.\Generated_Source\PSoC4/W5100.c **** static void W5100_SetSubnetMask( uint32 ip ) { W5100_W51_SetIP(5, ip); }
 2612              		.loc 1 491 0
 2613 0062 0520     		mov	r0, #5
 2614 0064 0021     		mov	r1, #0
 2615 0066 FFF7FEFF 		bl	W5100_W51_SetIP
 2616              	.LVL322:
 2617              	.L180:
 2618              	.LBE193:
 2619              	.LBE192:
1530:.\Generated_Source\PSoC4/W5100.c **** 			}
1531:.\Generated_Source\PSoC4/W5100.c **** 		}
1532:.\Generated_Source\PSoC4/W5100.c **** 		/* clear the Subnet mask register */
1533:.\Generated_Source\PSoC4/W5100.c **** 		W5100_SetSubnetMask(0);
1534:.\Generated_Source\PSoC4/W5100.c **** 	}
1535:.\Generated_Source\PSoC4/W5100.c **** }
 2620              		.loc 1 1535 0
 2621              		@ sp needed for prologue
 2622 006a F8BD     		pop	{r3, r4, r5, r6, r7, pc}
 2623              	.L189:
 2624              		.align	2
 2625              	.L188:
 2626 006c 0C040000 		.word	1036
 2627 0070 00000000 		.word	.LANCHOR0
 2628 0074 B80B0000 		.word	3000
 2629 0078 02040000 		.word	1026
 2630              		.cfi_endproc
 2631              	.LFE94:
 2632              		.size	W5100_TcpConnect, .-W5100_TcpConnect
ARM GAS  C:\Users\CHUCK~1.ERH\AppData\Local\Temp\cc506n3q.s 			page 80


 2633              		.section	.text.W5100_TcpConnected,"ax",%progbits
 2634              		.align	1
 2635              		.global	W5100_TcpConnected
 2636              		.code	16
 2637              		.thumb_func
 2638              		.type	W5100_TcpConnected, %function
 2639              	W5100_TcpConnected:
 2640              	.LFB95:
1536:.\Generated_Source\PSoC4/W5100.c **** /* ------------------------------------------------------------------------ */
1537:.\Generated_Source\PSoC4/W5100.c **** uint8
1538:.\Generated_Source\PSoC4/W5100.c **** W5100_TcpConnected( uint8 socket )
1539:.\Generated_Source\PSoC4/W5100.c **** { return W5100_SocketEstablished(socket); }
 2641              		.loc 1 1539 0
 2642              		.cfi_startproc
 2643              	.LVL323:
 2644 0000 08B5     		push	{r3, lr}
 2645              	.LCFI34:
 2646              		.cfi_def_cfa_offset 8
 2647              		.cfi_offset 3, -8
 2648              		.cfi_offset 14, -4
 2649              		.loc 1 1539 0
 2650 0002 FFF7FEFF 		bl	W5100_SocketEstablished
 2651              	.LVL324:
 2652              		@ sp needed for prologue
 2653 0006 08BD     		pop	{r3, pc}
 2654              		.cfi_endproc
 2655              	.LFE95:
 2656              		.size	W5100_TcpConnected, .-W5100_TcpConnected
 2657              		.section	.text.W5100_TcpDisconnect,"ax",%progbits
 2658              		.align	1
 2659              		.global	W5100_TcpDisconnect
 2660              		.code	16
 2661              		.thumb_func
 2662              		.type	W5100_TcpDisconnect, %function
 2663              	W5100_TcpDisconnect:
 2664              	.LFB96:
1540:.\Generated_Source\PSoC4/W5100.c **** /* ------------------------------------------------------------------------ */
1541:.\Generated_Source\PSoC4/W5100.c **** void
1542:.\Generated_Source\PSoC4/W5100.c **** W5100_TcpDisconnect( uint8 socket )
1543:.\Generated_Source\PSoC4/W5100.c **** {
 2665              		.loc 1 1543 0
 2666              		.cfi_startproc
 2667              	.LVL325:
 2668 0000 08B5     		push	{r3, lr}
 2669              	.LCFI35:
 2670              		.cfi_def_cfa_offset 8
 2671              		.cfi_offset 3, -8
 2672              		.cfi_offset 14, -4
1544:.\Generated_Source\PSoC4/W5100.c **** 	W5100_ExecuteSocketCommand(socket, 0x08);
 2673              		.loc 1 1544 0
 2674 0002 0821     		mov	r1, #8
 2675 0004 FFF7FEFF 		bl	W5100_ExecuteSocketCommand
 2676              	.LVL326:
1545:.\Generated_Source\PSoC4/W5100.c **** }
 2677              		.loc 1 1545 0
 2678              		@ sp needed for prologue
 2679 0008 08BD     		pop	{r3, pc}
ARM GAS  C:\Users\CHUCK~1.ERH\AppData\Local\Temp\cc506n3q.s 			page 81


 2680              		.cfi_endproc
 2681              	.LFE96:
 2682              		.size	W5100_TcpDisconnect, .-W5100_TcpDisconnect
 2683              		.section	.text.W5100_TcpSend,"ax",%progbits
 2684              		.align	1
 2685              		.global	W5100_TcpSend
 2686              		.code	16
 2687              		.thumb_func
 2688              		.type	W5100_TcpSend, %function
 2689              	W5100_TcpSend:
 2690              	.LFB97:
1546:.\Generated_Source\PSoC4/W5100.c **** /* ------------------------------------------------------------------------ */
1547:.\Generated_Source\PSoC4/W5100.c **** uint16
1548:.\Generated_Source\PSoC4/W5100.c **** W5100_TcpSend(uint8 socket, uint8* buffer, uint16 len)
1549:.\Generated_Source\PSoC4/W5100.c **** {
 2691              		.loc 1 1549 0
 2692              		.cfi_startproc
 2693              	.LVL327:
 2694 0000 F7B5     		push	{r0, r1, r2, r4, r5, r6, r7, lr}
 2695              	.LCFI36:
 2696              		.cfi_def_cfa_offset 32
 2697              		.cfi_offset 0, -32
 2698              		.cfi_offset 1, -28
 2699              		.cfi_offset 2, -24
 2700              		.cfi_offset 4, -20
 2701              		.cfi_offset 5, -16
 2702              		.cfi_offset 6, -12
 2703              		.cfi_offset 7, -8
 2704              		.cfi_offset 14, -4
 2705              		.loc 1 1549 0
 2706 0002 041C     		mov	r4, r0
 2707 0004 0191     		str	r1, [sp, #4]
 2708 0006 161C     		mov	r6, r2
 2709              	.LVL328:
1550:.\Generated_Source\PSoC4/W5100.c **** 	uint16 TxSize;
1551:.\Generated_Source\PSoC4/W5100.c **** 	uint16 FreeSpace;
1552:.\Generated_Source\PSoC4/W5100.c **** 	uint8 status;
1553:.\Generated_Source\PSoC4/W5100.c **** 	
1554:.\Generated_Source\PSoC4/W5100.c **** 	TxSize =  (len > 0x0800) ? 0x0800 : len;
1555:.\Generated_Source\PSoC4/W5100.c **** 	/* check the connection status, and protocol of the socket */
1556:.\Generated_Source\PSoC4/W5100.c **** 	status = W5100_GetSocketStatus(socket);
 2710              		.loc 1 1556 0
 2711 0008 FFF7FEFF 		bl	W5100_GetSocketStatus
 2712              	.LVL329:
1557:.\Generated_Source\PSoC4/W5100.c **** 	if ( ( status == 0x17) && (W5100_SocketConfig[socket].Protocol == W5100_PROTO_TCP) ) {
1558:.\Generated_Source\PSoC4/W5100.c **** 		/* 
1559:.\Generated_Source\PSoC4/W5100.c **** 		 * The socket was open with the correct protocol and is connected to
1560:.\Generated_Source\PSoC4/W5100.c **** 		 * a valid remote system. In order to send the requested packet data,
1561:.\Generated_Source\PSoC4/W5100.c **** 		 * first, we must wait for the available buffer memory to be free
1562:.\Generated_Source\PSoC4/W5100.c **** 		 * in the transmit buffer fifo.
1563:.\Generated_Source\PSoC4/W5100.c **** 		 */
1564:.\Generated_Source\PSoC4/W5100.c **** 		FreeSpace = 0;
1565:.\Generated_Source\PSoC4/W5100.c **** 		status = 0x17;
1566:.\Generated_Source\PSoC4/W5100.c **** 		while ( (FreeSpace < TxSize) && ( (status == 0x17) && (status != 0x1C) ) ) {
1567:.\Generated_Source\PSoC4/W5100.c **** 			FreeSpace = W5100_GetTxFreeSize( socket );
1568:.\Generated_Source\PSoC4/W5100.c **** 			status = W5100_GetSocketStatus( socket );
1569:.\Generated_Source\PSoC4/W5100.c **** 		}
ARM GAS  C:\Users\CHUCK~1.ERH\AppData\Local\Temp\cc506n3q.s 			page 82


1570:.\Generated_Source\PSoC4/W5100.c **** 		/*
1571:.\Generated_Source\PSoC4/W5100.c **** 		 * Write the data buffer to the chip Tx Buffer, then issue
1572:.\Generated_Source\PSoC4/W5100.c **** 		 * the chip SEND command
1573:.\Generated_Source\PSoC4/W5100.c **** 		 */
1574:.\Generated_Source\PSoC4/W5100.c **** 		W5100_ProcessTxData(socket, 0, buffer, TxSize);
1575:.\Generated_Source\PSoC4/W5100.c **** 		W5100_SocketSend( socket );
1576:.\Generated_Source\PSoC4/W5100.c **** 	}
1577:.\Generated_Source\PSoC4/W5100.c **** 	else {
1578:.\Generated_Source\PSoC4/W5100.c **** 		/*
1579:.\Generated_Source\PSoC4/W5100.c **** 		 * the socket was not establised, or there was an error, so clear
1580:.\Generated_Source\PSoC4/W5100.c **** 		 * the TxSize to signal that no data has bee sent
1581:.\Generated_Source\PSoC4/W5100.c **** 		 */
1582:.\Generated_Source\PSoC4/W5100.c **** 		TxSize = 0;
 2713              		.loc 1 1582 0
 2714 000c 0025     		mov	r5, #0
1557:.\Generated_Source\PSoC4/W5100.c **** 	if ( ( status == 0x17) && (W5100_SocketConfig[socket].Protocol == W5100_PROTO_TCP) ) {
 2715              		.loc 1 1557 0
 2716 000e 1728     		cmp	r0, #23
 2717 0010 30D1     		bne	.L193
1557:.\Generated_Source\PSoC4/W5100.c **** 	if ( ( status == 0x17) && (W5100_SocketConfig[socket].Protocol == W5100_PROTO_TCP) ) {
 2718              		.loc 1 1557 0 is_stmt 0 discriminator 1
 2719 0012 0623     		mov	r3, #6
 2720 0014 6343     		mul	r3, r4
 2721 0016 184A     		ldr	r2, .L206
 2722 0018 D118     		add	r1, r2, r3
 2723 001a 0F79     		ldrb	r7, [r1, #4]
 2724 001c 012F     		cmp	r7, #1
 2725 001e 29D1     		bne	.L193
1554:.\Generated_Source\PSoC4/W5100.c **** 	TxSize =  (len > 0x0800) ? 0x0800 : len;
 2726              		.loc 1 1554 0 is_stmt 1
 2727 0020 8025     		mov	r5, #128
 2728 0022 2B01     		lsl	r3, r5, #4
 2729 0024 321C     		add	r2, r6, #0
 2730 0026 9E42     		cmp	r6, r3
 2731 0028 00D9     		bls	.L194
 2732 002a 1A1C     		add	r2, r3, #0
 2733              	.L194:
 2734              	.LBB200:
 2735              	.LBB201:
 2736              	.LBB202:
 2737              	.LBB203:
 828:.\Generated_Source\PSoC4/W5100.c **** { return W5100_W51_Read16(W5100_SOCKET_BASE(socket)+0x20); }
 2738              		.loc 1 828 0
 2739 002c 8421     		mov	r1, #132
 2740 002e 2602     		lsl	r6, r4, #8
 2741              	.LVL330:
 2742 0030 CF00     		lsl	r7, r1, #3
 2743 0032 F319     		add	r3, r6, r7
 2744              	.LBE203:
 2745              	.LBE202:
 2746              	.LBE201:
 2747              	.LBE200:
1554:.\Generated_Source\PSoC4/W5100.c **** 	TxSize =  (len > 0x0800) ? 0x0800 : len;
 2748              		.loc 1 1554 0
 2749 0034 95B2     		uxth	r5, r2
 2750              	.LBB212:
 2751              	.LBB210:
ARM GAS  C:\Users\CHUCK~1.ERH\AppData\Local\Temp\cc506n3q.s 			page 83


 2752              	.LBB206:
 2753              	.LBB204:
 828:.\Generated_Source\PSoC4/W5100.c **** { return W5100_W51_Read16(W5100_SOCKET_BASE(socket)+0x20); }
 2754              		.loc 1 828 0
 2755 0036 9AB2     		uxth	r2, r3
 2756 0038 0092     		str	r2, [sp]
 2757 003a 0026     		mov	r6, #0
 2758              	.LVL331:
 2759              	.L195:
 2760              	.LBE204:
 2761              	.LBE206:
 2762              	.LBE210:
 2763              	.LBE212:
1566:.\Generated_Source\PSoC4/W5100.c **** 		while ( (FreeSpace < TxSize) && ( (status == 0x17) && (status != 0x1C) ) ) {
 2764              		.loc 1 1566 0 discriminator 1
 2765 003c AE42     		cmp	r6, r5
 2766 003e 11D2     		bcs	.L198
1566:.\Generated_Source\PSoC4/W5100.c **** 		while ( (FreeSpace < TxSize) && ( (status == 0x17) && (status != 0x1C) ) ) {
 2767              		.loc 1 1566 0 is_stmt 0 discriminator 2
 2768 0040 1728     		cmp	r0, #23
 2769 0042 0FD1     		bne	.L198
 2770              	.L201:
1566:.\Generated_Source\PSoC4/W5100.c **** 		while ( (FreeSpace < TxSize) && ( (status == 0x17) && (status != 0x1C) ) ) {
 2771              		.loc 1 1566 0
 2772 0044 0026     		mov	r6, #0
 2773              	.LVL332:
 2774              	.L197:
 2775              	.LBB213:
 2776              	.LBB211:
 2777              	.LBB207:
 2778              	.LBB205:
 828:.\Generated_Source\PSoC4/W5100.c **** { return W5100_W51_Read16(W5100_SOCKET_BASE(socket)+0x20); }
 2779              		.loc 1 828 0 is_stmt 1
 2780 0046 0098     		ldr	r0, [sp]
 2781 0048 FFF7FEFF 		bl	W5100_W51_Read16
 2782              	.LVL333:
 2783 004c 071E     		sub	r7, r0, #0
 2784              	.LBE205:
 2785              	.LBE207:
 918:.\Generated_Source\PSoC4/W5100.c **** 		if (first != 0) {
 2786              		.loc 1 918 0
 2787 004e 03D0     		beq	.L196
 2788              	.LBB208:
 2789              	.LBB209:
 828:.\Generated_Source\PSoC4/W5100.c **** { return W5100_W51_Read16(W5100_SOCKET_BASE(socket)+0x20); }
 2790              		.loc 1 828 0
 2791 0050 0098     		ldr	r0, [sp]
 2792 0052 FFF7FEFF 		bl	W5100_W51_Read16
 2793              	.LVL334:
 2794 0056 061C     		mov	r6, r0
 2795              	.LVL335:
 2796              	.L196:
 2797              	.LBE209:
 2798              	.LBE208:
 922:.\Generated_Source\PSoC4/W5100.c **** 	while (first != second );
 2799              		.loc 1 922 0
 2800 0058 B742     		cmp	r7, r6
ARM GAS  C:\Users\CHUCK~1.ERH\AppData\Local\Temp\cc506n3q.s 			page 84


 2801 005a F4D1     		bne	.L197
 2802              	.LBE211:
 2803              	.LBE213:
1568:.\Generated_Source\PSoC4/W5100.c **** 			status = W5100_GetSocketStatus( socket );
 2804              		.loc 1 1568 0
 2805 005c 201C     		mov	r0, r4
 2806 005e FFF7FEFF 		bl	W5100_GetSocketStatus
 2807              	.LVL336:
 2808 0062 EBE7     		b	.L195
 2809              	.LVL337:
 2810              	.L198:
1574:.\Generated_Source\PSoC4/W5100.c **** 		W5100_ProcessTxData(socket, 0, buffer, TxSize);
 2811              		.loc 1 1574 0
 2812 0064 201C     		mov	r0, r4
 2813              	.LVL338:
 2814 0066 0199     		ldr	r1, [sp, #4]
 2815 0068 2A1C     		mov	r2, r5
 2816 006a FFF7FEFF 		bl	W5100_ProcessTxData.constprop.2
 2817              	.LVL339:
1575:.\Generated_Source\PSoC4/W5100.c **** 		W5100_SocketSend( socket );
 2818              		.loc 1 1575 0
 2819 006e 201C     		mov	r0, r4
 2820 0070 FFF7FEFF 		bl	W5100_SocketSend
 2821              	.LVL340:
 2822              	.L193:
1583:.\Generated_Source\PSoC4/W5100.c **** 	}
1584:.\Generated_Source\PSoC4/W5100.c **** 	return TxSize;
1585:.\Generated_Source\PSoC4/W5100.c **** }
 2823              		.loc 1 1585 0
 2824 0074 281C     		mov	r0, r5
 2825              		@ sp needed for prologue
 2826              	.LVL341:
 2827 0076 FEBD     		pop	{r1, r2, r3, r4, r5, r6, r7, pc}
 2828              	.L207:
 2829              		.align	2
 2830              	.L206:
 2831 0078 00000000 		.word	.LANCHOR0
 2832              		.cfi_endproc
 2833              	.LFE97:
 2834              		.size	W5100_TcpSend, .-W5100_TcpSend
 2835              		.section	.text.W5100_TcpReceive,"ax",%progbits
 2836              		.align	1
 2837              		.global	W5100_TcpReceive
 2838              		.code	16
 2839              		.thumb_func
 2840              		.type	W5100_TcpReceive, %function
 2841              	W5100_TcpReceive:
 2842              	.LFB98:
1586:.\Generated_Source\PSoC4/W5100.c **** /* ------------------------------------------------------------------------ */
1587:.\Generated_Source\PSoC4/W5100.c **** uint16
1588:.\Generated_Source\PSoC4/W5100.c **** W5100_TcpReceive( uint8 socket, uint8* buffer, uint16 length )
1589:.\Generated_Source\PSoC4/W5100.c **** {
 2843              		.loc 1 1589 0
 2844              		.cfi_startproc
 2845              	.LVL342:
 2846 0000 F8B5     		push	{r3, r4, r5, r6, r7, lr}
 2847              	.LCFI37:
ARM GAS  C:\Users\CHUCK~1.ERH\AppData\Local\Temp\cc506n3q.s 			page 85


 2848              		.cfi_def_cfa_offset 24
 2849              		.cfi_offset 3, -24
 2850              		.cfi_offset 4, -20
 2851              		.cfi_offset 5, -16
 2852              		.cfi_offset 6, -12
 2853              		.cfi_offset 7, -8
 2854              		.cfi_offset 14, -4
 2855              		.loc 1 1589 0
 2856 0002 051C     		mov	r5, r0
 2857 0004 0F1C     		mov	r7, r1
 2858 0006 161C     		mov	r6, r2
1590:.\Generated_Source\PSoC4/W5100.c **** 	uint16 RxSize;
1591:.\Generated_Source\PSoC4/W5100.c **** 
1592:.\Generated_Source\PSoC4/W5100.c **** 	/*
1593:.\Generated_Source\PSoC4/W5100.c **** 	 * First thing to do is to check to see if the socket is connected
1594:.\Generated_Source\PSoC4/W5100.c **** 	 * and that there is data waiting
1595:.\Generated_Source\PSoC4/W5100.c **** 	 */
1596:.\Generated_Source\PSoC4/W5100.c **** //	RxSize = 0;
1597:.\Generated_Source\PSoC4/W5100.c **** 
1598:.\Generated_Source\PSoC4/W5100.c **** //	if ( W5100_GetSocketStatus( socket ) == 0x17) {
1599:.\Generated_Source\PSoC4/W5100.c **** 		/*
1600:.\Generated_Source\PSoC4/W5100.c **** 		 * read the number of waiting bytes in the buffer memory
1601:.\Generated_Source\PSoC4/W5100.c **** 		 * but, clip the length of data read to the requested
1602:.\Generated_Source\PSoC4/W5100.c **** 		 * length of data.
1603:.\Generated_Source\PSoC4/W5100.c **** 		 */
1604:.\Generated_Source\PSoC4/W5100.c **** 		RxSize = W5100_GetRxSize( socket );
 2859              		.loc 1 1604 0
 2860 0008 FFF7FEFF 		bl	W5100_GetRxSize
 2861              	.LVL343:
1605:.\Generated_Source\PSoC4/W5100.c **** 		RxSize = (RxSize > length) ? length : RxSize;
 2862              		.loc 1 1605 0
 2863 000c 041C     		add	r4, r0, #0
 2864 000e B042     		cmp	r0, r6
 2865 0010 00D9     		bls	.L209
 2866 0012 341C     		add	r4, r6, #0
 2867              	.L209:
 2868 0014 A6B2     		uxth	r6, r4
 2869              	.LVL344:
1606:.\Generated_Source\PSoC4/W5100.c **** 		/* If there was waiting data, read it from the buffer */
1607:.\Generated_Source\PSoC4/W5100.c **** 		if (RxSize > 0) {
 2870              		.loc 1 1607 0
 2871 0016 002E     		cmp	r6, #0
 2872 0018 09D0     		beq	.L210
1608:.\Generated_Source\PSoC4/W5100.c **** 			W5100_ProcessRxData( socket, 0, buffer, RxSize, 0);
 2873              		.loc 1 1608 0
 2874 001a 281C     		mov	r0, r5
 2875 001c 0021     		mov	r1, #0
 2876 001e 3A1C     		mov	r2, r7
 2877 0020 331C     		mov	r3, r6
 2878 0022 FFF7FEFF 		bl	W5100_ProcessRxData.constprop.1
 2879              	.LVL345:
1609:.\Generated_Source\PSoC4/W5100.c **** 			/* 
1610:.\Generated_Source\PSoC4/W5100.c **** 			 * after reading the buffer data, send the receive command
1611:.\Generated_Source\PSoC4/W5100.c **** 			 * to the socket so that the W5100 completes the read
1612:.\Generated_Source\PSoC4/W5100.c **** 			 */
1613:.\Generated_Source\PSoC4/W5100.c **** 			W5100_ExecuteSocketCommand(socket, 0x40);
 2880              		.loc 1 1613 0
ARM GAS  C:\Users\CHUCK~1.ERH\AppData\Local\Temp\cc506n3q.s 			page 86


 2881 0026 281C     		mov	r0, r5
 2882 0028 4021     		mov	r1, #64
 2883 002a FFF7FEFF 		bl	W5100_ExecuteSocketCommand
 2884              	.LVL346:
 2885              	.L210:
1614:.\Generated_Source\PSoC4/W5100.c **** 		}
1615:.\Generated_Source\PSoC4/W5100.c **** //	}
1616:.\Generated_Source\PSoC4/W5100.c **** 	
1617:.\Generated_Source\PSoC4/W5100.c **** 	/* return the number of read bytes from the buffer memory */
1618:.\Generated_Source\PSoC4/W5100.c **** 	return RxSize;
1619:.\Generated_Source\PSoC4/W5100.c **** }
 2886              		.loc 1 1619 0
 2887 002e 301C     		mov	r0, r6
 2888              		@ sp needed for prologue
 2889              	.LVL347:
 2890              	.LVL348:
 2891              	.LVL349:
 2892 0030 F8BD     		pop	{r3, r4, r5, r6, r7, pc}
 2893              		.cfi_endproc
 2894              	.LFE98:
 2895              		.size	W5100_TcpReceive, .-W5100_TcpReceive
 2896              		.section	.text.W5100_TcpPrint,"ax",%progbits
 2897              		.align	1
 2898              		.global	W5100_TcpPrint
 2899              		.code	16
 2900              		.thumb_func
 2901              		.type	W5100_TcpPrint, %function
 2902              	W5100_TcpPrint:
 2903              	.LFB99:
1620:.\Generated_Source\PSoC4/W5100.c **** /* ------------------------------------------------------------------------ */
1621:.\Generated_Source\PSoC4/W5100.c **** void
1622:.\Generated_Source\PSoC4/W5100.c **** W5100_TcpPrint( uint8 socket, const char* str )
1623:.\Generated_Source\PSoC4/W5100.c **** {
 2904              		.loc 1 1623 0
 2905              		.cfi_startproc
 2906              	.LVL350:
 2907 0000 38B5     		push	{r3, r4, r5, lr}
 2908              	.LCFI38:
 2909              		.cfi_def_cfa_offset 16
 2910              		.cfi_offset 3, -16
 2911              		.cfi_offset 4, -12
 2912              		.cfi_offset 5, -8
 2913              		.cfi_offset 14, -4
 2914              		.loc 1 1623 0
 2915 0002 051C     		mov	r5, r0
1624:.\Generated_Source\PSoC4/W5100.c **** 	W5100_TcpSend(socket, (uint8*)str, strlen(str));
 2916              		.loc 1 1624 0
 2917 0004 081C     		mov	r0, r1
 2918              	.LVL351:
1623:.\Generated_Source\PSoC4/W5100.c **** {
 2919              		.loc 1 1623 0
 2920 0006 0C1C     		mov	r4, r1
 2921              		.loc 1 1624 0
 2922 0008 FFF7FEFF 		bl	strlen
 2923              	.LVL352:
 2924 000c 211C     		mov	r1, r4
 2925 000e 82B2     		uxth	r2, r0
ARM GAS  C:\Users\CHUCK~1.ERH\AppData\Local\Temp\cc506n3q.s 			page 87


 2926 0010 281C     		mov	r0, r5
 2927 0012 FFF7FEFF 		bl	W5100_TcpSend
 2928              	.LVL353:
1625:.\Generated_Source\PSoC4/W5100.c **** }
 2929              		.loc 1 1625 0
 2930              		@ sp needed for prologue
 2931              	.LVL354:
 2932 0016 38BD     		pop	{r3, r4, r5, pc}
 2933              		.cfi_endproc
 2934              	.LFE99:
 2935              		.size	W5100_TcpPrint, .-W5100_TcpPrint
 2936              		.section	.text.W5100_UdpOpen,"ax",%progbits
 2937              		.align	1
 2938              		.global	W5100_UdpOpen
 2939              		.code	16
 2940              		.thumb_func
 2941              		.type	W5100_UdpOpen, %function
 2942              	W5100_UdpOpen:
 2943              	.LFB100:
1626:.\Generated_Source\PSoC4/W5100.c **** #endif
1627:.\Generated_Source\PSoC4/W5100.c **** /* ======================================================================== */
1628:.\Generated_Source\PSoC4/W5100.c **** /* UDP */
1629:.\Generated_Source\PSoC4/W5100.c **** #if (1)
1630:.\Generated_Source\PSoC4/W5100.c **** /* ------------------------------------------------------------------------ */
1631:.\Generated_Source\PSoC4/W5100.c **** uint8
1632:.\Generated_Source\PSoC4/W5100.c **** W5100_UdpOpen(uint16 port)
1633:.\Generated_Source\PSoC4/W5100.c **** {
 2944              		.loc 1 1633 0
 2945              		.cfi_startproc
 2946              	.LVL355:
 2947 0000 08B5     		push	{r3, lr}
 2948              	.LCFI39:
 2949              		.cfi_def_cfa_offset 8
 2950              		.cfi_offset 3, -8
 2951              		.cfi_offset 14, -4
 2952              		.loc 1 1633 0
 2953 0002 011C     		mov	r1, r0
1634:.\Generated_Source\PSoC4/W5100.c **** 	return W5100_SocketOpen(W5100_PROTO_UDP, port, 0);
 2954              		.loc 1 1634 0
 2955 0004 0022     		mov	r2, #0
 2956 0006 0220     		mov	r0, #2
 2957              	.LVL356:
 2958 0008 FFF7FEFF 		bl	W5100_SocketOpen
 2959              	.LVL357:
1635:.\Generated_Source\PSoC4/W5100.c **** }
 2960              		.loc 1 1635 0
 2961              		@ sp needed for prologue
 2962 000c 08BD     		pop	{r3, pc}
 2963              		.cfi_endproc
 2964              	.LFE100:
 2965              		.size	W5100_UdpOpen, .-W5100_UdpOpen
 2966              		.section	.text.W5100_UdpSend,"ax",%progbits
 2967              		.align	1
 2968              		.global	W5100_UdpSend
 2969              		.code	16
 2970              		.thumb_func
 2971              		.type	W5100_UdpSend, %function
ARM GAS  C:\Users\CHUCK~1.ERH\AppData\Local\Temp\cc506n3q.s 			page 88


 2972              	W5100_UdpSend:
 2973              	.LFB101:
1636:.\Generated_Source\PSoC4/W5100.c **** /* ------------------------------------------------------------------------ */	
1637:.\Generated_Source\PSoC4/W5100.c **** uint16
1638:.\Generated_Source\PSoC4/W5100.c **** W5100_UdpSend(uint8 socket, uint32 ip, uint16 port, uint8* buffer, uint16 length)
1639:.\Generated_Source\PSoC4/W5100.c **** {
 2974              		.loc 1 1639 0
 2975              		.cfi_startproc
 2976              	.LVL358:
 2977 0000 F7B5     		push	{r0, r1, r2, r4, r5, r6, r7, lr}
 2978              	.LCFI40:
 2979              		.cfi_def_cfa_offset 32
 2980              		.cfi_offset 0, -32
 2981              		.cfi_offset 1, -28
 2982              		.cfi_offset 2, -24
 2983              		.cfi_offset 4, -20
 2984              		.cfi_offset 5, -16
 2985              		.cfi_offset 6, -12
 2986              		.cfi_offset 7, -8
 2987              		.cfi_offset 14, -4
 2988              		.loc 1 1639 0
 2989 0002 0193     		str	r3, [sp, #4]
 2990 0004 08AB     		add	r3, sp, #32
 2991              	.LVL359:
 2992 0006 041C     		mov	r4, r0
 2993 0008 0F1C     		mov	r7, r1
 2994 000a 0092     		str	r2, [sp]
 2995 000c 1E88     		ldrh	r6, [r3]
1640:.\Generated_Source\PSoC4/W5100.c **** 	uint16 TxSize;
1641:.\Generated_Source\PSoC4/W5100.c **** 	
1642:.\Generated_Source\PSoC4/W5100.c **** 	/*
1643:.\Generated_Source\PSoC4/W5100.c **** 	 * Transmit a buffer of data to a specified remote system using UDP.
1644:.\Generated_Source\PSoC4/W5100.c **** 	 */
1645:.\Generated_Source\PSoC4/W5100.c **** 	if (W5100_GetSocketStatus(socket) == 0x17) {
 2996              		.loc 1 1645 0
 2997 000e FFF7FEFF 		bl	W5100_GetSocketStatus
 2998              	.LVL360:
 2999 0012 1728     		cmp	r0, #23
 3000 0014 20D1     		bne	.L217
 3001              	.LVL361:
1646:.\Generated_Source\PSoC4/W5100.c **** 		/*
1647:.\Generated_Source\PSoC4/W5100.c **** 		 * The socket has been established, so wait for available
1648:.\Generated_Source\PSoC4/W5100.c **** 		 * room in the transmit buffer of the socket, but, trim the
1649:.\Generated_Source\PSoC4/W5100.c **** 		 * transmitted data length to no more than the available
1650:.\Generated_Source\PSoC4/W5100.c **** 		 * buffer size in the device. (2K)
1651:.\Generated_Source\PSoC4/W5100.c **** 		 */
1652:.\Generated_Source\PSoC4/W5100.c **** 		TxSize = (length > 0x0800) ? 0x0800 : length;
1653:.\Generated_Source\PSoC4/W5100.c **** 		if ( (ip != 0) && (ip != 0xFFFFFFFF) ) {
 3002              		.loc 1 1653 0
 3003 0016 781E     		sub	r0, r7, #1
1654:.\Generated_Source\PSoC4/W5100.c **** 			/*
1655:.\Generated_Source\PSoC4/W5100.c **** 			 * Store the destination IP and port in the chip
1656:.\Generated_Source\PSoC4/W5100.c **** 			 * socket registers.
1657:.\Generated_Source\PSoC4/W5100.c **** 			 */
1658:.\Generated_Source\PSoC4/W5100.c **** 			W5100_SetSocketDestIP( socket, ip );
1659:.\Generated_Source\PSoC4/W5100.c **** 			W5100_SetSocketDestPort( socket, port );
1660:.\Generated_Source\PSoC4/W5100.c **** 			/*
ARM GAS  C:\Users\CHUCK~1.ERH\AppData\Local\Temp\cc506n3q.s 			page 89


1661:.\Generated_Source\PSoC4/W5100.c **** 			 * process the transmission buffer, and write it in to
1662:.\Generated_Source\PSoC4/W5100.c **** 			 * the chip buffer memory.
1663:.\Generated_Source\PSoC4/W5100.c **** 			 */
1664:.\Generated_Source\PSoC4/W5100.c **** 			W5100_ProcessTxData(socket,0,buffer,TxSize);
1665:.\Generated_Source\PSoC4/W5100.c **** 			/*
1666:.\Generated_Source\PSoC4/W5100.c **** 			 * Issue the send command to transmit the buffer.
1667:.\Generated_Source\PSoC4/W5100.c **** 			 */
1668:.\Generated_Source\PSoC4/W5100.c **** 			W5100_SocketSend( socket ); 
1669:.\Generated_Source\PSoC4/W5100.c **** 		}
1670:.\Generated_Source\PSoC4/W5100.c **** 		else {
1671:.\Generated_Source\PSoC4/W5100.c **** 			/* an invalid IP address was issued, so return that no data was sent. */
1672:.\Generated_Source\PSoC4/W5100.c **** 			TxSize = 0;
 3004              		.loc 1 1672 0
 3005 0018 0025     		mov	r5, #0
1653:.\Generated_Source\PSoC4/W5100.c **** 		if ( (ip != 0) && (ip != 0xFFFFFFFF) ) {
 3006              		.loc 1 1653 0
 3007 001a C31C     		add	r3, r0, #3
 3008 001c 1CD8     		bhi	.L217
1652:.\Generated_Source\PSoC4/W5100.c **** 		TxSize = (length > 0x0800) ? 0x0800 : length;
 3009              		.loc 1 1652 0
 3010 001e 8021     		mov	r1, #128
 3011 0020 0A01     		lsl	r2, r1, #4
 3012 0022 351C     		add	r5, r6, #0
 3013 0024 9642     		cmp	r6, r2
 3014 0026 00D9     		bls	.L218
 3015 0028 151C     		add	r5, r2, #0
 3016              	.L218:
 3017              	.LBB218:
 3018              	.LBB219:
 732:.\Generated_Source\PSoC4/W5100.c **** { W5100_W51_SetIP(W5100_SOCKET_BASE(socket)+12,ip); }
 3019              		.loc 1 732 0
 3020 002a 0C4B     		ldr	r3, .L220
 3021 002c 2602     		lsl	r6, r4, #8
 3022              	.LVL362:
 3023 002e F018     		add	r0, r6, r3
 3024 0030 391C     		mov	r1, r7
 3025 0032 80B2     		uxth	r0, r0
 3026              	.LBE219:
 3027              	.LBE218:
 3028              	.LBB221:
 3029              	.LBB222:
 748:.\Generated_Source\PSoC4/W5100.c **** { W5100_W51_Write16( W5100_SOCKET_BASE(socket)+16, port); }
 3030              		.loc 1 748 0
 3031 0034 8227     		mov	r7, #130
 3032              	.LVL363:
 3033              	.LBE222:
 3034              	.LBE221:
 3035              	.LBB225:
 3036              	.LBB220:
 732:.\Generated_Source\PSoC4/W5100.c **** { W5100_W51_SetIP(W5100_SOCKET_BASE(socket)+12,ip); }
 3037              		.loc 1 732 0
 3038 0036 FFF7FEFF 		bl	W5100_W51_SetIP
 3039              	.LVL364:
 3040              	.LBE220:
 3041              	.LBE225:
 3042              	.LBB226:
 3043              	.LBB223:
ARM GAS  C:\Users\CHUCK~1.ERH\AppData\Local\Temp\cc506n3q.s 			page 90


 748:.\Generated_Source\PSoC4/W5100.c **** { W5100_W51_Write16( W5100_SOCKET_BASE(socket)+16, port); }
 3044              		.loc 1 748 0
 3045 003a F900     		lsl	r1, r7, #3
 3046 003c 7218     		add	r2, r6, r1
 3047 003e 90B2     		uxth	r0, r2
 3048 0040 0099     		ldr	r1, [sp]
 3049              	.LBE223:
 3050              	.LBE226:
1652:.\Generated_Source\PSoC4/W5100.c **** 		TxSize = (length > 0x0800) ? 0x0800 : length;
 3051              		.loc 1 1652 0
 3052 0042 ADB2     		uxth	r5, r5
 3053              	.LVL365:
 3054              	.LBB227:
 3055              	.LBB224:
 748:.\Generated_Source\PSoC4/W5100.c **** { W5100_W51_Write16( W5100_SOCKET_BASE(socket)+16, port); }
 3056              		.loc 1 748 0
 3057 0044 FFF7FEFF 		bl	W5100_W51_Write16
 3058              	.LVL366:
 3059              	.LBE224:
 3060              	.LBE227:
1664:.\Generated_Source\PSoC4/W5100.c **** 			W5100_ProcessTxData(socket,0,buffer,TxSize);
 3061              		.loc 1 1664 0
 3062 0048 201C     		mov	r0, r4
 3063 004a 0199     		ldr	r1, [sp, #4]
 3064 004c 2A1C     		mov	r2, r5
 3065 004e FFF7FEFF 		bl	W5100_ProcessTxData.constprop.2
 3066              	.LVL367:
1668:.\Generated_Source\PSoC4/W5100.c **** 			W5100_SocketSend( socket ); 
 3067              		.loc 1 1668 0
 3068 0052 201C     		mov	r0, r4
 3069 0054 FFF7FEFF 		bl	W5100_SocketSend
 3070              	.LVL368:
 3071              	.L217:
1673:.\Generated_Source\PSoC4/W5100.c **** 		}
1674:.\Generated_Source\PSoC4/W5100.c **** 	}
1675:.\Generated_Source\PSoC4/W5100.c **** 	return TxSize;
1676:.\Generated_Source\PSoC4/W5100.c **** }
 3072              		.loc 1 1676 0
 3073 0058 281C     		mov	r0, r5
 3074              		@ sp needed for prologue
 3075              	.LVL369:
 3076 005a FEBD     		pop	{r1, r2, r3, r4, r5, r6, r7, pc}
 3077              	.L221:
 3078              		.align	2
 3079              	.L220:
 3080 005c 0C040000 		.word	1036
 3081              		.cfi_endproc
 3082              	.LFE101:
 3083              		.size	W5100_UdpSend, .-W5100_UdpSend
 3084              		.section	.text.W5100_UdpReceive,"ax",%progbits
 3085              		.align	1
 3086              		.global	W5100_UdpReceive
 3087              		.code	16
 3088              		.thumb_func
 3089              		.type	W5100_UdpReceive, %function
 3090              	W5100_UdpReceive:
 3091              	.LFB102:
ARM GAS  C:\Users\CHUCK~1.ERH\AppData\Local\Temp\cc506n3q.s 			page 91


1677:.\Generated_Source\PSoC4/W5100.c **** /* ------------------------------------------------------------------------ */
1678:.\Generated_Source\PSoC4/W5100.c **** uint16
1679:.\Generated_Source\PSoC4/W5100.c **** W5100_UdpReceive(uint8 socket, uint32 *ip, uint16 *port, uint8* buffer, uint16 length)
1680:.\Generated_Source\PSoC4/W5100.c **** {
 3092              		.loc 1 1680 0
 3093              		.cfi_startproc
 3094              	.LVL370:
 3095 0000 F0B5     		push	{r4, r5, r6, r7, lr}
 3096              	.LCFI41:
 3097              		.cfi_def_cfa_offset 20
 3098              		.cfi_offset 4, -20
 3099              		.cfi_offset 5, -16
 3100              		.cfi_offset 6, -12
 3101              		.cfi_offset 7, -8
 3102              		.cfi_offset 14, -4
 3103 0002 85B0     		sub	sp, sp, #20
 3104              	.LCFI42:
 3105              		.cfi_def_cfa_offset 40
 3106              		.loc 1 1680 0
 3107 0004 0193     		str	r3, [sp, #4]
 3108 0006 0AAB     		add	r3, sp, #40
 3109              	.LVL371:
 3110 0008 041C     		mov	r4, r0
 3111 000a 0F1C     		mov	r7, r1
 3112 000c 0092     		str	r2, [sp]
 3113 000e 1E88     		ldrh	r6, [r3]
1681:.\Generated_Source\PSoC4/W5100.c **** 	uint16 RxSize;
1682:.\Generated_Source\PSoC4/W5100.c **** 	uint16 PacketSize;
1683:.\Generated_Source\PSoC4/W5100.c **** 	uint8  PacketHeader[8];
1684:.\Generated_Source\PSoC4/W5100.c **** 	
1685:.\Generated_Source\PSoC4/W5100.c **** 	/*
1686:.\Generated_Source\PSoC4/W5100.c **** 	 * First thing to do is to check to see if the socket is connected
1687:.\Generated_Source\PSoC4/W5100.c **** 	 * and that there is data waiting
1688:.\Generated_Source\PSoC4/W5100.c **** 	 */
1689:.\Generated_Source\PSoC4/W5100.c **** 	RxSize = 0;
1690:.\Generated_Source\PSoC4/W5100.c **** 	if (W5100_GetSocketStatus( socket ) == 0x17) {
 3114              		.loc 1 1690 0
 3115 0010 FFF7FEFF 		bl	W5100_GetSocketStatus
 3116              	.LVL372:
 3117 0014 1728     		cmp	r0, #23
 3118 0016 01D0     		beq	.L223
 3119              	.LVL373:
 3120              	.L226:
1689:.\Generated_Source\PSoC4/W5100.c **** 	RxSize = 0;
 3121              		.loc 1 1689 0
 3122 0018 0021     		mov	r1, #0
 3123 001a 34E0     		b	.L224
 3124              	.LVL374:
 3125              	.L223:
1691:.\Generated_Source\PSoC4/W5100.c **** 		/*
1692:.\Generated_Source\PSoC4/W5100.c **** 		 * read the number of waiting bytes in the buffer memory
1693:.\Generated_Source\PSoC4/W5100.c **** 		 * but, clip the length of data read to the requested
1694:.\Generated_Source\PSoC4/W5100.c **** 		 * length of data.
1695:.\Generated_Source\PSoC4/W5100.c **** 		 */
1696:.\Generated_Source\PSoC4/W5100.c **** 		RxSize = W5100_GetRxSize( socket );
 3126              		.loc 1 1696 0
 3127 001c 201C     		mov	r0, r4
ARM GAS  C:\Users\CHUCK~1.ERH\AppData\Local\Temp\cc506n3q.s 			page 92


 3128 001e FFF7FEFF 		bl	W5100_GetRxSize
 3129              	.LVL375:
 3130 0022 051C     		mov	r5, r0
 3131              	.LVL376:
1697:.\Generated_Source\PSoC4/W5100.c **** 		RxSize = (RxSize > length+8) ? length : RxSize;
 3132              		.loc 1 1697 0
 3133 0024 301C     		mov	r0, r6
 3134              	.LVL377:
 3135 0026 0830     		add	r0, r0, #8
 3136 0028 8542     		cmp	r5, r0
 3137 002a 00DD     		ble	.L225
 3138 002c 351C     		mov	r5, r6
 3139              	.LVL378:
 3140              	.L225:
1698:.\Generated_Source\PSoC4/W5100.c **** 		/* If there was waiting data, read it from the buffer */
1699:.\Generated_Source\PSoC4/W5100.c **** 		if (RxSize > 0) {
 3141              		.loc 1 1699 0 discriminator 3
 3142 002e 002D     		cmp	r5, #0
 3143 0030 F2D0     		beq	.L226
1700:.\Generated_Source\PSoC4/W5100.c **** 			/*
1701:.\Generated_Source\PSoC4/W5100.c **** 			 * the UDP packet is stored in the buffer memory as an 8-byte
1702:.\Generated_Source\PSoC4/W5100.c **** 			 * packet header followed by the packet data.
1703:.\Generated_Source\PSoC4/W5100.c **** 			*/
1704:.\Generated_Source\PSoC4/W5100.c **** 			W5100_ProcessRxData( socket, 0, &PacketHeader[0], 8, 0);
 3144              		.loc 1 1704 0
 3145 0032 201C     		mov	r0, r4
 3146 0034 0021     		mov	r1, #0
 3147 0036 02AA     		add	r2, sp, #8
 3148 0038 0823     		mov	r3, #8
 3149 003a FFF7FEFF 		bl	W5100_ProcessRxData.constprop.1
 3150              	.LVL379:
1705:.\Generated_Source\PSoC4/W5100.c **** 			/*
1706:.\Generated_Source\PSoC4/W5100.c **** 			 * The packet header contains the 4-byte IP address followed by the
1707:.\Generated_Source\PSoC4/W5100.c **** 			 * 2-byte port number and the 2-byte packet data length
1708:.\Generated_Source\PSoC4/W5100.c **** 			 */
1709:.\Generated_Source\PSoC4/W5100.c **** 			*ip = W5100_IPADDRESS(PacketHeader[0], PacketHeader[1], PacketHeader[2], PacketHeader[3]);
 3151              		.loc 1 1709 0
 3152 003e 6946     		mov	r1, sp
 3153 0040 CA7A     		ldrb	r2, [r1, #11]
 3154 0042 0E7A     		ldrb	r6, [r1, #8]
 3155 0044 1306     		lsl	r3, r2, #24
 3156 0046 4A7A     		ldrb	r2, [r1, #9]
 3157 0048 9819     		add	r0, r3, r6
 3158 004a 1302     		lsl	r3, r2, #8
 3159 004c C618     		add	r6, r0, r3
 3160 004e 887A     		ldrb	r0, [r1, #10]
 3161 0050 0204     		lsl	r2, r0, #16
 3162 0052 B318     		add	r3, r6, r2
 3163 0054 3B60     		str	r3, [r7]
1710:.\Generated_Source\PSoC4/W5100.c **** 			*port = (uint16)((PacketHeader[4]<<8)&0xFF00) | (PacketHeader[5]&0x00FF);
 3164              		.loc 1 1710 0
 3165 0056 0F7B     		ldrb	r7, [r1, #12]
 3166              	.LVL380:
 3167 0058 487B     		ldrb	r0, [r1, #13]
 3168 005a 3E02     		lsl	r6, r7, #8
 3169 005c 009A     		ldr	r2, [sp]
 3170 005e 0643     		orr	r6, r0
ARM GAS  C:\Users\CHUCK~1.ERH\AppData\Local\Temp\cc506n3q.s 			page 93


 3171 0060 1680     		strh	r6, [r2]
1711:.\Generated_Source\PSoC4/W5100.c **** 			PacketSize = (uint16)((PacketHeader[6]<<8)&0xFF00) | (PacketHeader[7]&0x00FF);
 3172              		.loc 1 1711 0
 3173 0062 8B7B     		ldrb	r3, [r1, #14]
 3174 0064 C97B     		ldrb	r1, [r1, #15]
 3175 0066 1F02     		lsl	r7, r3, #8
 3176 0068 0F43     		orr	r7, r1
 3177              	.LVL381:
1712:.\Generated_Source\PSoC4/W5100.c **** 			/*
1713:.\Generated_Source\PSoC4/W5100.c **** 			 * Check to make sure that the packet data has been received completely
1714:.\Generated_Source\PSoC4/W5100.c **** 			 */
1715:.\Generated_Source\PSoC4/W5100.c **** 			if (RxSize >= (PacketSize+8) ) {
 3178              		.loc 1 1715 0
 3179 006a FE1D     		add	r6, r7, #7
1716:.\Generated_Source\PSoC4/W5100.c **** 			
1717:.\Generated_Source\PSoC4/W5100.c **** 				W5100_ProcessRxData( socket, 8, buffer, PacketSize, 0);
1718:.\Generated_Source\PSoC4/W5100.c **** 				/* 
1719:.\Generated_Source\PSoC4/W5100.c **** 				 * after reading the buffer data, send the receive command
1720:.\Generated_Source\PSoC4/W5100.c **** 				 * to the socket so that the W5100 completes the read
1721:.\Generated_Source\PSoC4/W5100.c **** 				 */
1722:.\Generated_Source\PSoC4/W5100.c **** 				W5100_ExecuteSocketCommand(socket, 0x40);
1723:.\Generated_Source\PSoC4/W5100.c **** 				RxSize = PacketSize;
1724:.\Generated_Source\PSoC4/W5100.c **** 			}
1725:.\Generated_Source\PSoC4/W5100.c **** 			else {
1726:.\Generated_Source\PSoC4/W5100.c **** 				RxSize = 8;
 3180              		.loc 1 1726 0
 3181 006c 0821     		mov	r1, #8
1715:.\Generated_Source\PSoC4/W5100.c **** 			if (RxSize >= (PacketSize+8) ) {
 3182              		.loc 1 1715 0
 3183 006e AE42     		cmp	r6, r5
 3184 0070 09DA     		bge	.L224
1717:.\Generated_Source\PSoC4/W5100.c **** 				W5100_ProcessRxData( socket, 8, buffer, PacketSize, 0);
 3185              		.loc 1 1717 0
 3186 0072 201C     		mov	r0, r4
 3187 0074 019A     		ldr	r2, [sp, #4]
 3188 0076 3B1C     		mov	r3, r7
 3189 0078 FFF7FEFF 		bl	W5100_ProcessRxData.constprop.1
 3190              	.LVL382:
1722:.\Generated_Source\PSoC4/W5100.c **** 				W5100_ExecuteSocketCommand(socket, 0x40);
 3191              		.loc 1 1722 0
 3192 007c 4021     		mov	r1, #64
 3193 007e 201C     		mov	r0, r4
 3194 0080 FFF7FEFF 		bl	W5100_ExecuteSocketCommand
 3195              	.LVL383:
1723:.\Generated_Source\PSoC4/W5100.c **** 				RxSize = PacketSize;
 3196              		.loc 1 1723 0
 3197 0084 391C     		mov	r1, r7
 3198              	.LVL384:
 3199              	.L224:
1727:.\Generated_Source\PSoC4/W5100.c **** 			}
1728:.\Generated_Source\PSoC4/W5100.c **** 		}
1729:.\Generated_Source\PSoC4/W5100.c **** 	}
1730:.\Generated_Source\PSoC4/W5100.c **** 	
1731:.\Generated_Source\PSoC4/W5100.c **** 	/* return the number of read bytes from the buffer memory */
1732:.\Generated_Source\PSoC4/W5100.c **** 	return RxSize;
1733:.\Generated_Source\PSoC4/W5100.c **** }
 3200              		.loc 1 1733 0
ARM GAS  C:\Users\CHUCK~1.ERH\AppData\Local\Temp\cc506n3q.s 			page 94


 3201 0086 081C     		mov	r0, r1
 3202 0088 05B0     		add	sp, sp, #20
 3203              	.LVL385:
 3204              		@ sp needed for prologue
 3205 008a F0BD     		pop	{r4, r5, r6, r7, pc}
 3206              		.cfi_endproc
 3207              	.LFE102:
 3208              		.size	W5100_UdpReceive, .-W5100_UdpReceive
 3209              		.section	.rodata.str1.1,"aMS",%progbits,1
 3210              	.LC8:
 3211 0000 30302D44 		.ascii	"00-DE-AD-BE-EF-00\000"
 3211      452D4144 
 3211      2D42452D 
 3211      45462D30 
 3211      3000
 3212              	.LC11:
 3213 0012 3139322E 		.ascii	"192.168.1.101\000"
 3213      3136382E 
 3213      312E3130 
 3213      3100
 3214              	.LC13:
 3215 0020 3235352E 		.ascii	"255.255.255.0\000"
 3215      3235352E 
 3215      3235352E 
 3215      3000
 3216              	.LC15:
 3217 002e 3139322E 		.ascii	"192.168.1.1\000"
 3217      3136382E 
 3217      312E3100 
 3218              		.bss
 3219              		.align	2
 3220              		.set	.LANCHOR0,. + 0
 3221              		.type	W5100_SubnetMask, %object
 3222              		.size	W5100_SubnetMask, 4
 3223              	W5100_SubnetMask:
 3224 0000 00000000 		.space	4
 3225              		.type	W5100_SocketConfig, %object
 3226              		.size	W5100_SocketConfig, 24
 3227              	W5100_SocketConfig:
 3228 0004 00000000 		.space	24
 3228      00000000 
 3228      00000000 
 3228      00000000 
 3228      00000000 
 3229              		.type	W5100_MAC, %object
 3230              		.size	W5100_MAC, 6
 3231              	W5100_MAC:
 3232 001c 00000000 		.space	6
 3232      0000
 3233 0022 0000     		.text
 3234              	.Letext0:
 3235              		.file 2 "./Generated_Source/PSoC4/cytypes.h"
 3236              		.file 3 "c:\\program files (x86)\\cypress\\psoc creator\\3.0\\psoc creator\\import\\gnu_cs\\arm\\4
 3237              		.file 4 "./Generated_Source/PSoC4/SPI_SPI_UART.h"
 3238              		.file 5 "./Generated_Source/PSoC4/cylib.h"
 3239              		.file 6 "./Generated_Source/PSoC4/SPI_ss1_m.h"
 3240              		.file 7 "./Generated_Source/PSoC4/SPI.h"
ARM GAS  C:\Users\CHUCK~1.ERH\AppData\Local\Temp\cc506n3q.s 			page 95


 3241              		.file 8 "c:\\program files (x86)\\cypress\\psoc creator\\3.0\\psoc creator\\import\\gnu_cs\\arm\\4
 3242              		.section	.debug_info,"",%progbits
 3243              	.Ldebug_info0:
 3244 0000 CC220000 		.4byte	0x22cc
 3245 0004 0200     		.2byte	0x2
 3246 0006 00000000 		.4byte	.Ldebug_abbrev0
 3247 000a 04       		.byte	0x4
 3248 000b 01       		.uleb128 0x1
 3249 000c 21050000 		.4byte	.LASF135
 3250 0010 01       		.byte	0x1
 3251 0011 2B060000 		.4byte	.LASF136
 3252 0015 72060000 		.4byte	.LASF137
 3253 0019 58010000 		.4byte	.Ldebug_ranges0+0x158
 3254 001d 00000000 		.4byte	0
 3255 0021 00000000 		.4byte	0
 3256 0025 00000000 		.4byte	.Ldebug_line0
 3257 0029 02       		.uleb128 0x2
 3258 002a 01       		.byte	0x1
 3259 002b 06       		.byte	0x6
 3260 002c 75010000 		.4byte	.LASF0
 3261 0030 02       		.uleb128 0x2
 3262 0031 01       		.byte	0x1
 3263 0032 08       		.byte	0x8
 3264 0033 6A050000 		.4byte	.LASF1
 3265 0037 02       		.uleb128 0x2
 3266 0038 02       		.byte	0x2
 3267 0039 05       		.byte	0x5
 3268 003a 90050000 		.4byte	.LASF2
 3269 003e 02       		.uleb128 0x2
 3270 003f 02       		.byte	0x2
 3271 0040 07       		.byte	0x7
 3272 0041 3C030000 		.4byte	.LASF3
 3273 0045 02       		.uleb128 0x2
 3274 0046 04       		.byte	0x4
 3275 0047 05       		.byte	0x5
 3276 0048 BB010000 		.4byte	.LASF4
 3277 004c 02       		.uleb128 0x2
 3278 004d 04       		.byte	0x4
 3279 004e 07       		.byte	0x7
 3280 004f E6020000 		.4byte	.LASF5
 3281 0053 02       		.uleb128 0x2
 3282 0054 08       		.byte	0x8
 3283 0055 05       		.byte	0x5
 3284 0056 67010000 		.4byte	.LASF6
 3285 005a 02       		.uleb128 0x2
 3286 005b 08       		.byte	0x8
 3287 005c 07       		.byte	0x7
 3288 005d EA000000 		.4byte	.LASF7
 3289 0061 03       		.uleb128 0x3
 3290 0062 04       		.byte	0x4
 3291 0063 05       		.byte	0x5
 3292 0064 696E7400 		.ascii	"int\000"
 3293 0068 02       		.uleb128 0x2
 3294 0069 04       		.byte	0x4
 3295 006a 07       		.byte	0x7
 3296 006b B9020000 		.4byte	.LASF8
 3297 006f 04       		.uleb128 0x4
ARM GAS  C:\Users\CHUCK~1.ERH\AppData\Local\Temp\cc506n3q.s 			page 96


 3298 0070 E5010000 		.4byte	.LASF9
 3299 0074 02       		.byte	0x2
 3300 0075 5B       		.byte	0x5b
 3301 0076 30000000 		.4byte	0x30
 3302 007a 04       		.uleb128 0x4
 3303 007b 2C000000 		.4byte	.LASF10
 3304 007f 02       		.byte	0x2
 3305 0080 5C       		.byte	0x5c
 3306 0081 3E000000 		.4byte	0x3e
 3307 0085 04       		.uleb128 0x4
 3308 0086 68020000 		.4byte	.LASF11
 3309 008a 02       		.byte	0x2
 3310 008b 5D       		.byte	0x5d
 3311 008c 4C000000 		.4byte	0x4c
 3312 0090 02       		.uleb128 0x2
 3313 0091 04       		.byte	0x4
 3314 0092 04       		.byte	0x4
 3315 0093 00050000 		.4byte	.LASF12
 3316 0097 02       		.uleb128 0x2
 3317 0098 08       		.byte	0x8
 3318 0099 04       		.byte	0x4
 3319 009a 22020000 		.4byte	.LASF13
 3320 009e 02       		.uleb128 0x2
 3321 009f 01       		.byte	0x1
 3322 00a0 08       		.byte	0x8
 3323 00a1 F1060000 		.4byte	.LASF14
 3324 00a5 04       		.uleb128 0x4
 3325 00a6 22080000 		.4byte	.LASF15
 3326 00aa 02       		.byte	0x2
 3327 00ab E8       		.byte	0xe8
 3328 00ac 4C000000 		.4byte	0x4c
 3329 00b0 02       		.uleb128 0x2
 3330 00b1 04       		.byte	0x4
 3331 00b2 07       		.byte	0x7
 3332 00b3 49040000 		.4byte	.LASF16
 3333 00b7 05       		.uleb128 0x5
 3334 00b8 04       		.byte	0x4
 3335 00b9 9E000000 		.4byte	0x9e
 3336 00bd 05       		.uleb128 0x5
 3337 00be 04       		.byte	0x4
 3338 00bf C3000000 		.4byte	0xc3
 3339 00c3 06       		.uleb128 0x6
 3340 00c4 9E000000 		.4byte	0x9e
 3341 00c8 04       		.uleb128 0x4
 3342 00c9 4B000000 		.4byte	.LASF17
 3343 00cd 03       		.byte	0x3
 3344 00ce D5       		.byte	0xd5
 3345 00cf 68000000 		.4byte	0x68
 3346 00d3 07       		.uleb128 0x7
 3347 00d4 06       		.byte	0x6
 3348 00d5 01       		.byte	0x1
 3349 00d6 2E       		.byte	0x2e
 3350 00d7 14010000 		.4byte	0x114
 3351 00db 08       		.uleb128 0x8
 3352 00dc 20010000 		.4byte	.LASF18
 3353 00e0 01       		.byte	0x1
 3354 00e1 30       		.byte	0x30
ARM GAS  C:\Users\CHUCK~1.ERH\AppData\Local\Temp\cc506n3q.s 			page 97


 3355 00e2 6F000000 		.4byte	0x6f
 3356 00e6 02       		.byte	0x2
 3357 00e7 23       		.byte	0x23
 3358 00e8 00       		.uleb128 0
 3359 00e9 08       		.uleb128 0x8
 3360 00ea B3040000 		.4byte	.LASF19
 3361 00ee 01       		.byte	0x1
 3362 00ef 31       		.byte	0x31
 3363 00f0 6F000000 		.4byte	0x6f
 3364 00f4 02       		.byte	0x2
 3365 00f5 23       		.byte	0x23
 3366 00f6 01       		.uleb128 0x1
 3367 00f7 08       		.uleb128 0x8
 3368 00f8 95010000 		.4byte	.LASF20
 3369 00fc 01       		.byte	0x1
 3370 00fd 32       		.byte	0x32
 3371 00fe 7A000000 		.4byte	0x7a
 3372 0102 02       		.byte	0x2
 3373 0103 23       		.byte	0x23
 3374 0104 02       		.uleb128 0x2
 3375 0105 08       		.uleb128 0x8
 3376 0106 67060000 		.4byte	.LASF21
 3377 010a 01       		.byte	0x1
 3378 010b 33       		.byte	0x33
 3379 010c 6F000000 		.4byte	0x6f
 3380 0110 02       		.byte	0x2
 3381 0111 23       		.byte	0x23
 3382 0112 04       		.uleb128 0x4
 3383 0113 00       		.byte	0
 3384 0114 04       		.uleb128 0x4
 3385 0115 35080000 		.4byte	.LASF22
 3386 0119 01       		.byte	0x1
 3387 011a 34       		.byte	0x34
 3388 011b D3000000 		.4byte	0xd3
 3389 011f 05       		.uleb128 0x5
 3390 0120 04       		.byte	0x4
 3391 0121 6F000000 		.4byte	0x6f
 3392 0125 09       		.uleb128 0x9
 3393 0126 01       		.byte	0x1
 3394 0127 D4050000 		.4byte	.LASF125
 3395 012b 01       		.byte	0x1
 3396 012c 6405     		.2byte	0x564
 3397 012e 01       		.byte	0x1
 3398 012f 01       		.byte	0x1
 3399 0130 41010000 		.4byte	0x141
 3400 0134 0A       		.uleb128 0xa
 3401 0135 68000000 		.4byte	.LASF23
 3402 0139 01       		.byte	0x1
 3403 013a 6405     		.2byte	0x564
 3404 013c 6F000000 		.4byte	0x6f
 3405 0140 00       		.byte	0
 3406 0141 0B       		.uleb128 0xb
 3407 0142 1C070000 		.4byte	.LASF25
 3408 0146 01       		.byte	0x1
 3409 0147 5601     		.2byte	0x156
 3410 0149 01       		.byte	0x1
 3411 014a 01       		.byte	0x1
ARM GAS  C:\Users\CHUCK~1.ERH\AppData\Local\Temp\cc506n3q.s 			page 98


 3412 014b 74010000 		.4byte	0x174
 3413 014f 0A       		.uleb128 0xa
 3414 0150 1B010000 		.4byte	.LASF24
 3415 0154 01       		.byte	0x1
 3416 0155 5601     		.2byte	0x156
 3417 0157 7A000000 		.4byte	0x7a
 3418 015b 0C       		.uleb128 0xc
 3419 015c 6D616300 		.ascii	"mac\000"
 3420 0160 01       		.byte	0x1
 3421 0161 5601     		.2byte	0x156
 3422 0163 1F010000 		.4byte	0x11f
 3423 0167 0D       		.uleb128 0xd
 3424 0168 16070000 		.4byte	.LASF27
 3425 016c 01       		.byte	0x1
 3426 016d 5801     		.2byte	0x158
 3427 016f 85000000 		.4byte	0x85
 3428 0173 00       		.byte	0
 3429 0174 0B       		.uleb128 0xb
 3430 0175 29010000 		.4byte	.LASF26
 3431 0179 01       		.byte	0x1
 3432 017a 6501     		.2byte	0x165
 3433 017c 01       		.byte	0x1
 3434 017d 01       		.byte	0x1
 3435 017e A7010000 		.4byte	0x1a7
 3436 0182 0A       		.uleb128 0xa
 3437 0183 1B010000 		.4byte	.LASF24
 3438 0187 01       		.byte	0x1
 3439 0188 6501     		.2byte	0x165
 3440 018a 7A000000 		.4byte	0x7a
 3441 018e 0C       		.uleb128 0xc
 3442 018f 6D616300 		.ascii	"mac\000"
 3443 0193 01       		.byte	0x1
 3444 0194 6501     		.2byte	0x165
 3445 0196 1F010000 		.4byte	0x11f
 3446 019a 0D       		.uleb128 0xd
 3447 019b 16070000 		.4byte	.LASF27
 3448 019f 01       		.byte	0x1
 3449 01a0 6701     		.2byte	0x167
 3450 01a2 85000000 		.4byte	0x85
 3451 01a6 00       		.byte	0
 3452 01a7 0E       		.uleb128 0xe
 3453 01a8 F8020000 		.4byte	.LASF48
 3454 01ac 01       		.byte	0x1
 3455 01ad 8201     		.2byte	0x182
 3456 01af 01       		.byte	0x1
 3457 01b0 85000000 		.4byte	0x85
 3458 01b4 01       		.byte	0x1
 3459 01b5 E9010000 		.4byte	0x1e9
 3460 01b9 0A       		.uleb128 0xa
 3461 01ba 1B010000 		.4byte	.LASF24
 3462 01be 01       		.byte	0x1
 3463 01bf 8201     		.2byte	0x182
 3464 01c1 7A000000 		.4byte	0x7a
 3465 01c5 0D       		.uleb128 0xd
 3466 01c6 2D070000 		.4byte	.LASF28
 3467 01ca 01       		.byte	0x1
 3468 01cb 8401     		.2byte	0x184
ARM GAS  C:\Users\CHUCK~1.ERH\AppData\Local\Temp\cc506n3q.s 			page 99


 3469 01cd E9010000 		.4byte	0x1e9
 3470 01d1 0D       		.uleb128 0xd
 3471 01d2 16070000 		.4byte	.LASF27
 3472 01d6 01       		.byte	0x1
 3473 01d7 8501     		.2byte	0x185
 3474 01d9 61000000 		.4byte	0x61
 3475 01dd 0F       		.uleb128 0xf
 3476 01de 697000   		.ascii	"ip\000"
 3477 01e1 01       		.byte	0x1
 3478 01e2 8601     		.2byte	0x186
 3479 01e4 F9010000 		.4byte	0x1f9
 3480 01e8 00       		.byte	0
 3481 01e9 10       		.uleb128 0x10
 3482 01ea 6F000000 		.4byte	0x6f
 3483 01ee F9010000 		.4byte	0x1f9
 3484 01f2 11       		.uleb128 0x11
 3485 01f3 B0000000 		.4byte	0xb0
 3486 01f7 03       		.byte	0x3
 3487 01f8 00       		.byte	0
 3488 01f9 05       		.uleb128 0x5
 3489 01fa 04       		.byte	0x4
 3490 01fb 85000000 		.4byte	0x85
 3491 01ff 0B       		.uleb128 0xb
 3492 0200 69080000 		.4byte	.LASF29
 3493 0204 01       		.byte	0x1
 3494 0205 0302     		.2byte	0x203
 3495 0207 01       		.byte	0x1
 3496 0208 01       		.byte	0x1
 3497 0209 1A020000 		.4byte	0x21a
 3498 020d 0A       		.uleb128 0xa
 3499 020e 11070000 		.4byte	.LASF30
 3500 0212 01       		.byte	0x1
 3501 0213 0302     		.2byte	0x203
 3502 0215 6F000000 		.4byte	0x6f
 3503 0219 00       		.byte	0
 3504 021a 0B       		.uleb128 0xb
 3505 021b 4F070000 		.4byte	.LASF31
 3506 021f 01       		.byte	0x1
 3507 0220 0F02     		.2byte	0x20f
 3508 0222 01       		.byte	0x1
 3509 0223 01       		.byte	0x1
 3510 0224 34020000 		.4byte	0x234
 3511 0228 0C       		.uleb128 0xc
 3512 0229 697200   		.ascii	"ir\000"
 3513 022c 01       		.byte	0x1
 3514 022d 0F02     		.2byte	0x20f
 3515 022f 6F000000 		.4byte	0x6f
 3516 0233 00       		.byte	0
 3517 0234 0B       		.uleb128 0xb
 3518 0235 56080000 		.4byte	.LASF32
 3519 0239 01       		.byte	0x1
 3520 023a 3F02     		.2byte	0x23f
 3521 023c 01       		.byte	0x1
 3522 023d 01       		.byte	0x1
 3523 023e 4F020000 		.4byte	0x24f
 3524 0242 0A       		.uleb128 0xa
 3525 0243 37030000 		.4byte	.LASF33
ARM GAS  C:\Users\CHUCK~1.ERH\AppData\Local\Temp\cc506n3q.s 			page 100


 3526 0247 01       		.byte	0x1
 3527 0248 3F02     		.2byte	0x23f
 3528 024a 6F000000 		.4byte	0x6f
 3529 024e 00       		.byte	0
 3530 024f 0B       		.uleb128 0xb
 3531 0250 6F020000 		.4byte	.LASF34
 3532 0254 01       		.byte	0x1
 3533 0255 4B02     		.2byte	0x24b
 3534 0257 01       		.byte	0x1
 3535 0258 01       		.byte	0x1
 3536 0259 6A020000 		.4byte	0x26a
 3537 025d 0A       		.uleb128 0xa
 3538 025e 37030000 		.4byte	.LASF33
 3539 0262 01       		.byte	0x1
 3540 0263 4B02     		.2byte	0x24b
 3541 0265 6F000000 		.4byte	0x6f
 3542 0269 00       		.byte	0
 3543 026a 0B       		.uleb128 0xb
 3544 026b 42080000 		.4byte	.LASF35
 3545 026f 01       		.byte	0x1
 3546 0270 C303     		.2byte	0x3c3
 3547 0272 01       		.byte	0x1
 3548 0273 01       		.byte	0x1
 3549 0274 D9020000 		.4byte	0x2d9
 3550 0278 0A       		.uleb128 0xa
 3551 0279 68000000 		.4byte	.LASF23
 3552 027d 01       		.byte	0x1
 3553 027e C303     		.2byte	0x3c3
 3554 0280 6F000000 		.4byte	0x6f
 3555 0284 0A       		.uleb128 0xa
 3556 0285 48070000 		.4byte	.LASF36
 3557 0289 01       		.byte	0x1
 3558 028a C303     		.2byte	0x3c3
 3559 028c 7A000000 		.4byte	0x7a
 3560 0290 0A       		.uleb128 0xa
 3561 0291 2D070000 		.4byte	.LASF28
 3562 0295 01       		.byte	0x1
 3563 0296 C303     		.2byte	0x3c3
 3564 0298 1F010000 		.4byte	0x11f
 3565 029c 0A       		.uleb128 0xa
 3566 029d D7060000 		.4byte	.LASF37
 3567 02a1 01       		.byte	0x1
 3568 02a2 C303     		.2byte	0x3c3
 3569 02a4 7A000000 		.4byte	0x7a
 3570 02a8 0D       		.uleb128 0xd
 3571 02a9 1B010000 		.4byte	.LASF24
 3572 02ad 01       		.byte	0x1
 3573 02ae C503     		.2byte	0x3c5
 3574 02b0 7A000000 		.4byte	0x7a
 3575 02b4 0D       		.uleb128 0xd
 3576 02b5 37040000 		.4byte	.LASF38
 3577 02b9 01       		.byte	0x1
 3578 02ba C603     		.2byte	0x3c6
 3579 02bc 7A000000 		.4byte	0x7a
 3580 02c0 0D       		.uleb128 0xd
 3581 02c1 03040000 		.4byte	.LASF39
 3582 02c5 01       		.byte	0x1
ARM GAS  C:\Users\CHUCK~1.ERH\AppData\Local\Temp\cc506n3q.s 			page 101


 3583 02c6 C703     		.2byte	0x3c7
 3584 02c8 7A000000 		.4byte	0x7a
 3585 02cc 0D       		.uleb128 0xd
 3586 02cd 37030000 		.4byte	.LASF33
 3587 02d1 01       		.byte	0x1
 3588 02d2 C803     		.2byte	0x3c8
 3589 02d4 7A000000 		.4byte	0x7a
 3590 02d8 00       		.byte	0
 3591 02d9 0B       		.uleb128 0xb
 3592 02da 73030000 		.4byte	.LASF40
 3593 02de 01       		.byte	0x1
 3594 02df FB03     		.2byte	0x3fb
 3595 02e1 01       		.byte	0x1
 3596 02e2 01       		.byte	0x1
 3597 02e3 54030000 		.4byte	0x354
 3598 02e7 0A       		.uleb128 0xa
 3599 02e8 68000000 		.4byte	.LASF23
 3600 02ec 01       		.byte	0x1
 3601 02ed FB03     		.2byte	0x3fb
 3602 02ef 6F000000 		.4byte	0x6f
 3603 02f3 0A       		.uleb128 0xa
 3604 02f4 48070000 		.4byte	.LASF36
 3605 02f8 01       		.byte	0x1
 3606 02f9 FB03     		.2byte	0x3fb
 3607 02fb 7A000000 		.4byte	0x7a
 3608 02ff 0A       		.uleb128 0xa
 3609 0300 2D070000 		.4byte	.LASF28
 3610 0304 01       		.byte	0x1
 3611 0305 FB03     		.2byte	0x3fb
 3612 0307 1F010000 		.4byte	0x11f
 3613 030b 0A       		.uleb128 0xa
 3614 030c D7060000 		.4byte	.LASF37
 3615 0310 01       		.byte	0x1
 3616 0311 FB03     		.2byte	0x3fb
 3617 0313 7A000000 		.4byte	0x7a
 3618 0317 0A       		.uleb128 0xa
 3619 0318 1C080000 		.4byte	.LASF41
 3620 031c 01       		.byte	0x1
 3621 031d FB03     		.2byte	0x3fb
 3622 031f 6F000000 		.4byte	0x6f
 3623 0323 0D       		.uleb128 0xd
 3624 0324 1B010000 		.4byte	.LASF24
 3625 0328 01       		.byte	0x1
 3626 0329 FD03     		.2byte	0x3fd
 3627 032b 7A000000 		.4byte	0x7a
 3628 032f 0D       		.uleb128 0xd
 3629 0330 37040000 		.4byte	.LASF38
 3630 0334 01       		.byte	0x1
 3631 0335 FE03     		.2byte	0x3fe
 3632 0337 7A000000 		.4byte	0x7a
 3633 033b 0D       		.uleb128 0xd
 3634 033c 03040000 		.4byte	.LASF39
 3635 0340 01       		.byte	0x1
 3636 0341 FF03     		.2byte	0x3ff
 3637 0343 7A000000 		.4byte	0x7a
 3638 0347 0D       		.uleb128 0xd
 3639 0348 37030000 		.4byte	.LASF33
ARM GAS  C:\Users\CHUCK~1.ERH\AppData\Local\Temp\cc506n3q.s 			page 102


 3640 034c 01       		.byte	0x1
 3641 034d 0004     		.2byte	0x400
 3642 034f 7A000000 		.4byte	0x7a
 3643 0353 00       		.byte	0
 3644 0354 12       		.uleb128 0x12
 3645 0355 0B080000 		.4byte	.LASF138
 3646 0359 01       		.byte	0x1
 3647 035a EB       		.byte	0xeb
 3648 035b 01       		.byte	0x1
 3649 035c 01       		.byte	0x1
 3650 035d 13       		.uleb128 0x13
 3651 035e 01       		.byte	0x1
 3652 035f AC050000 		.4byte	.LASF76
 3653 0363 01       		.byte	0x1
 3654 0364 0201     		.2byte	0x102
 3655 0366 01       		.byte	0x1
 3656 0367 00000000 		.4byte	.LFB1
 3657 036b 3A000000 		.4byte	.LFE1
 3658 036f 00000000 		.4byte	.LLST0
 3659 0373 01       		.byte	0x1
 3660 0374 33040000 		.4byte	0x433
 3661 0378 14       		.uleb128 0x14
 3662 0379 1B010000 		.4byte	.LASF24
 3663 037d 01       		.byte	0x1
 3664 037e 0201     		.2byte	0x102
 3665 0380 7A000000 		.4byte	0x7a
 3666 0384 20000000 		.4byte	.LLST1
 3667 0388 15       		.uleb128 0x15
 3668 0389 64617400 		.ascii	"dat\000"
 3669 038d 01       		.byte	0x1
 3670 038e 0201     		.2byte	0x102
 3671 0390 6F000000 		.4byte	0x6f
 3672 0394 41000000 		.4byte	.LLST2
 3673 0398 16       		.uleb128 0x16
 3674 0399 54030000 		.4byte	0x354
 3675 039d 16000000 		.4byte	.LBB4
 3676 03a1 1C000000 		.4byte	.LBE4
 3677 03a5 01       		.byte	0x1
 3678 03a6 0B01     		.2byte	0x10b
 3679 03a8 BC030000 		.4byte	0x3bc
 3680 03ac 17       		.uleb128 0x17
 3681 03ad 1C000000 		.4byte	.LVL4
 3682 03b1 24220000 		.4byte	0x2224
 3683 03b5 18       		.uleb128 0x18
 3684 03b6 01       		.byte	0x1
 3685 03b7 50       		.byte	0x50
 3686 03b8 01       		.byte	0x1
 3687 03b9 31       		.byte	0x31
 3688 03ba 00       		.byte	0
 3689 03bb 00       		.byte	0
 3690 03bc 19       		.uleb128 0x19
 3691 03bd 0A000000 		.4byte	.LVL2
 3692 03c1 39220000 		.4byte	0x2239
 3693 03c5 1A       		.uleb128 0x1a
 3694 03c6 14000000 		.4byte	.LVL3
 3695 03ca 47220000 		.4byte	0x2247
 3696 03ce D8030000 		.4byte	0x3d8
ARM GAS  C:\Users\CHUCK~1.ERH\AppData\Local\Temp\cc506n3q.s 			page 103


 3697 03d2 18       		.uleb128 0x18
 3698 03d3 01       		.byte	0x1
 3699 03d4 50       		.byte	0x50
 3700 03d5 01       		.byte	0x1
 3701 03d6 31       		.byte	0x31
 3702 03d7 00       		.byte	0
 3703 03d8 19       		.uleb128 0x19
 3704 03d9 20000000 		.4byte	.LVL5
 3705 03dd 5B220000 		.4byte	0x225b
 3706 03e1 1A       		.uleb128 0x1a
 3707 03e2 26000000 		.4byte	.LVL6
 3708 03e6 66220000 		.4byte	0x2266
 3709 03ea F5030000 		.4byte	0x3f5
 3710 03ee 18       		.uleb128 0x18
 3711 03ef 01       		.byte	0x1
 3712 03f0 50       		.byte	0x50
 3713 03f1 02       		.byte	0x2
 3714 03f2 08       		.byte	0x8
 3715 03f3 F0       		.byte	0xf0
 3716 03f4 00       		.byte	0
 3717 03f5 1A       		.uleb128 0x1a
 3718 03f6 2C000000 		.4byte	.LVL7
 3719 03fa 66220000 		.4byte	0x2266
 3720 03fe 0B040000 		.4byte	0x40b
 3721 0402 18       		.uleb128 0x18
 3722 0403 01       		.byte	0x1
 3723 0404 50       		.byte	0x50
 3724 0405 04       		.byte	0x4
 3725 0406 74       		.byte	0x74
 3726 0407 00       		.sleb128 0
 3727 0408 38       		.byte	0x38
 3728 0409 25       		.byte	0x25
 3729 040a 00       		.byte	0
 3730 040b 1A       		.uleb128 0x1a
 3731 040c 32000000 		.4byte	.LVL8
 3732 0410 66220000 		.4byte	0x2266
 3733 0414 22040000 		.4byte	0x422
 3734 0418 18       		.uleb128 0x18
 3735 0419 01       		.byte	0x1
 3736 041a 50       		.byte	0x50
 3737 041b 05       		.byte	0x5
 3738 041c 74       		.byte	0x74
 3739 041d 00       		.sleb128 0
 3740 041e 08       		.byte	0x8
 3741 041f FF       		.byte	0xff
 3742 0420 1A       		.byte	0x1a
 3743 0421 00       		.byte	0
 3744 0422 17       		.uleb128 0x17
 3745 0423 38000000 		.4byte	.LVL9
 3746 0427 66220000 		.4byte	0x2266
 3747 042b 18       		.uleb128 0x18
 3748 042c 01       		.byte	0x1
 3749 042d 50       		.byte	0x50
 3750 042e 02       		.byte	0x2
 3751 042f 75       		.byte	0x75
 3752 0430 00       		.sleb128 0
 3753 0431 00       		.byte	0
ARM GAS  C:\Users\CHUCK~1.ERH\AppData\Local\Temp\cc506n3q.s 			page 104


 3754 0432 00       		.byte	0
 3755 0433 1B       		.uleb128 0x1b
 3756 0434 4C060000 		.4byte	.LASF42
 3757 0438 01       		.byte	0x1
 3758 0439 9501     		.2byte	0x195
 3759 043b 01       		.byte	0x1
 3760 043c 00000000 		.4byte	.LFB7
 3761 0440 18000000 		.4byte	.LFE7
 3762 0444 62000000 		.4byte	.LLST3
 3763 0448 01       		.byte	0x1
 3764 0449 A0040000 		.4byte	0x4a0
 3765 044d 14       		.uleb128 0x14
 3766 044e 1B010000 		.4byte	.LASF24
 3767 0452 01       		.byte	0x1
 3768 0453 9501     		.2byte	0x195
 3769 0455 7A000000 		.4byte	0x7a
 3770 0459 82000000 		.4byte	.LLST4
 3771 045d 15       		.uleb128 0x15
 3772 045e 76616C00 		.ascii	"val\000"
 3773 0462 01       		.byte	0x1
 3774 0463 9501     		.2byte	0x195
 3775 0465 7A000000 		.4byte	0x7a
 3776 0469 A3000000 		.4byte	.LLST5
 3777 046d 1A       		.uleb128 0x1a
 3778 046e 0E000000 		.4byte	.LVL12
 3779 0472 5D030000 		.4byte	0x35d
 3780 0476 89040000 		.4byte	0x489
 3781 047a 18       		.uleb128 0x18
 3782 047b 01       		.byte	0x1
 3783 047c 51       		.byte	0x51
 3784 047d 04       		.byte	0x4
 3785 047e 74       		.byte	0x74
 3786 047f 00       		.sleb128 0
 3787 0480 38       		.byte	0x38
 3788 0481 25       		.byte	0x25
 3789 0482 18       		.uleb128 0x18
 3790 0483 01       		.byte	0x1
 3791 0484 50       		.byte	0x50
 3792 0485 02       		.byte	0x2
 3793 0486 75       		.byte	0x75
 3794 0487 7F       		.sleb128 -1
 3795 0488 00       		.byte	0
 3796 0489 17       		.uleb128 0x17
 3797 048a 16000000 		.4byte	.LVL13
 3798 048e 5D030000 		.4byte	0x35d
 3799 0492 18       		.uleb128 0x18
 3800 0493 01       		.byte	0x1
 3801 0494 51       		.byte	0x51
 3802 0495 02       		.byte	0x2
 3803 0496 74       		.byte	0x74
 3804 0497 00       		.sleb128 0
 3805 0498 18       		.uleb128 0x18
 3806 0499 01       		.byte	0x1
 3807 049a 50       		.byte	0x50
 3808 049b 02       		.byte	0x2
 3809 049c 75       		.byte	0x75
 3810 049d 00       		.sleb128 0
ARM GAS  C:\Users\CHUCK~1.ERH\AppData\Local\Temp\cc506n3q.s 			page 105


 3811 049e 00       		.byte	0
 3812 049f 00       		.byte	0
 3813 04a0 1B       		.uleb128 0x1b
 3814 04a1 3A020000 		.4byte	.LASF43
 3815 04a5 01       		.byte	0x1
 3816 04a6 7201     		.2byte	0x172
 3817 04a8 01       		.byte	0x1
 3818 04a9 00000000 		.4byte	.LFB5
 3819 04ad 1C000000 		.4byte	.LFE5
 3820 04b1 C4000000 		.4byte	.LLST6
 3821 04b5 01       		.byte	0x1
 3822 04b6 0F050000 		.4byte	0x50f
 3823 04ba 14       		.uleb128 0x14
 3824 04bb 1B010000 		.4byte	.LASF24
 3825 04bf 01       		.byte	0x1
 3826 04c0 7201     		.2byte	0x172
 3827 04c2 7A000000 		.4byte	0x7a
 3828 04c6 E4000000 		.4byte	.LLST7
 3829 04ca 15       		.uleb128 0x15
 3830 04cb 697000   		.ascii	"ip\000"
 3831 04ce 01       		.byte	0x1
 3832 04cf 7201     		.2byte	0x172
 3833 04d1 85000000 		.4byte	0x85
 3834 04d5 05010000 		.4byte	.LLST8
 3835 04d9 1C       		.uleb128 0x1c
 3836 04da 16070000 		.4byte	.LASF27
 3837 04de 01       		.byte	0x1
 3838 04df 7401     		.2byte	0x174
 3839 04e1 85000000 		.4byte	0x85
 3840 04e5 23010000 		.4byte	.LLST9
 3841 04e9 1C       		.uleb128 0x1c
 3842 04ea 2D070000 		.4byte	.LASF28
 3843 04ee 01       		.byte	0x1
 3844 04ef 7501     		.2byte	0x175
 3845 04f1 1F010000 		.4byte	0x11f
 3846 04f5 42010000 		.4byte	.LLST10
 3847 04f9 17       		.uleb128 0x17
 3848 04fa 16000000 		.4byte	.LVL19
 3849 04fe 5D030000 		.4byte	0x35d
 3850 0502 18       		.uleb128 0x18
 3851 0503 01       		.byte	0x1
 3852 0504 50       		.byte	0x50
 3853 0505 07       		.byte	0x7
 3854 0506 74       		.byte	0x74
 3855 0507 00       		.sleb128 0
 3856 0508 75       		.byte	0x75
 3857 0509 00       		.sleb128 0
 3858 050a 22       		.byte	0x22
 3859 050b 31       		.byte	0x31
 3860 050c 1C       		.byte	0x1c
 3861 050d 00       		.byte	0
 3862 050e 00       		.byte	0
 3863 050f 1B       		.uleb128 0x1b
 3864 0510 16060000 		.4byte	.LASF44
 3865 0514 01       		.byte	0x1
 3866 0515 B101     		.2byte	0x1b1
 3867 0517 01       		.byte	0x1
ARM GAS  C:\Users\CHUCK~1.ERH\AppData\Local\Temp\cc506n3q.s 			page 106


 3868 0518 00000000 		.4byte	.LFB9
 3869 051c 1E000000 		.4byte	.LFE9
 3870 0520 6F010000 		.4byte	.LLST11
 3871 0524 01       		.byte	0x1
 3872 0525 7D050000 		.4byte	0x57d
 3873 0529 14       		.uleb128 0x14
 3874 052a 1B010000 		.4byte	.LASF24
 3875 052e 01       		.byte	0x1
 3876 052f B101     		.2byte	0x1b1
 3877 0531 7A000000 		.4byte	0x7a
 3878 0535 8F010000 		.4byte	.LLST12
 3879 0539 14       		.uleb128 0x14
 3880 053a 2D070000 		.4byte	.LASF28
 3881 053e 01       		.byte	0x1
 3882 053f B101     		.2byte	0x1b1
 3883 0541 1F010000 		.4byte	0x11f
 3884 0545 B0010000 		.4byte	.LLST13
 3885 0549 14       		.uleb128 0x14
 3886 054a D7060000 		.4byte	.LASF37
 3887 054e 01       		.byte	0x1
 3888 054f B101     		.2byte	0x1b1
 3889 0551 7A000000 		.4byte	0x7a
 3890 0555 DC010000 		.4byte	.LLST14
 3891 0559 1C       		.uleb128 0x1c
 3892 055a 16070000 		.4byte	.LASF27
 3893 055e 01       		.byte	0x1
 3894 055f B301     		.2byte	0x1b3
 3895 0561 61000000 		.4byte	0x61
 3896 0565 FD010000 		.4byte	.LLST15
 3897 0569 17       		.uleb128 0x17
 3898 056a 18000000 		.4byte	.LVL23
 3899 056e 5D030000 		.4byte	0x35d
 3900 0572 18       		.uleb128 0x18
 3901 0573 01       		.byte	0x1
 3902 0574 50       		.byte	0x50
 3903 0575 05       		.byte	0x5
 3904 0576 76       		.byte	0x76
 3905 0577 00       		.sleb128 0
 3906 0578 74       		.byte	0x74
 3907 0579 00       		.sleb128 0
 3908 057a 22       		.byte	0x22
 3909 057b 00       		.byte	0
 3910 057c 00       		.byte	0
 3911 057d 1D       		.uleb128 0x1d
 3912 057e 01       		.byte	0x1
 3913 057f E1070000 		.4byte	.LASF66
 3914 0583 01       		.byte	0x1
 3915 0584 2101     		.2byte	0x121
 3916 0586 01       		.byte	0x1
 3917 0587 6F000000 		.4byte	0x6f
 3918 058b 00000000 		.4byte	.LFB2
 3919 058f 5A000000 		.4byte	.LFE2
 3920 0593 1C020000 		.4byte	.LLST16
 3921 0597 01       		.byte	0x1
 3922 0598 95060000 		.4byte	0x695
 3923 059c 14       		.uleb128 0x14
 3924 059d 1B010000 		.4byte	.LASF24
ARM GAS  C:\Users\CHUCK~1.ERH\AppData\Local\Temp\cc506n3q.s 			page 107


 3925 05a1 01       		.byte	0x1
 3926 05a2 2101     		.2byte	0x121
 3927 05a4 7A000000 		.4byte	0x7a
 3928 05a8 3C020000 		.4byte	.LLST17
 3929 05ac 1E       		.uleb128 0x1e
 3930 05ad 64617400 		.ascii	"dat\000"
 3931 05b1 01       		.byte	0x1
 3932 05b2 2301     		.2byte	0x123
 3933 05b4 85000000 		.4byte	0x85
 3934 05b8 01       		.byte	0x1
 3935 05b9 55       		.byte	0x55
 3936 05ba 1C       		.uleb128 0x1c
 3937 05bb 14000000 		.4byte	.LASF45
 3938 05bf 01       		.byte	0x1
 3939 05c0 2401     		.2byte	0x124
 3940 05c2 85000000 		.4byte	0x85
 3941 05c6 5D020000 		.4byte	.LLST18
 3942 05ca 16       		.uleb128 0x16
 3943 05cb 54030000 		.4byte	0x354
 3944 05cf 14000000 		.4byte	.LBB8
 3945 05d3 1A000000 		.4byte	.LBE8
 3946 05d7 01       		.byte	0x1
 3947 05d8 2D01     		.2byte	0x12d
 3948 05da EE050000 		.4byte	0x5ee
 3949 05de 17       		.uleb128 0x17
 3950 05df 1A000000 		.4byte	.LVL31
 3951 05e3 24220000 		.4byte	0x2224
 3952 05e7 18       		.uleb128 0x18
 3953 05e8 01       		.byte	0x1
 3954 05e9 50       		.byte	0x50
 3955 05ea 01       		.byte	0x1
 3956 05eb 31       		.byte	0x31
 3957 05ec 00       		.byte	0
 3958 05ed 00       		.byte	0
 3959 05ee 19       		.uleb128 0x19
 3960 05ef 08000000 		.4byte	.LVL29
 3961 05f3 39220000 		.4byte	0x2239
 3962 05f7 1A       		.uleb128 0x1a
 3963 05f8 12000000 		.4byte	.LVL30
 3964 05fc 47220000 		.4byte	0x2247
 3965 0600 0A060000 		.4byte	0x60a
 3966 0604 18       		.uleb128 0x18
 3967 0605 01       		.byte	0x1
 3968 0606 50       		.byte	0x50
 3969 0607 01       		.byte	0x1
 3970 0608 31       		.byte	0x31
 3971 0609 00       		.byte	0
 3972 060a 19       		.uleb128 0x19
 3973 060b 1E000000 		.4byte	.LVL32
 3974 060f 5B220000 		.4byte	0x225b
 3975 0613 1A       		.uleb128 0x1a
 3976 0614 24000000 		.4byte	.LVL33
 3977 0618 66220000 		.4byte	0x2266
 3978 061c 26060000 		.4byte	0x626
 3979 0620 18       		.uleb128 0x18
 3980 0621 01       		.byte	0x1
 3981 0622 50       		.byte	0x50
ARM GAS  C:\Users\CHUCK~1.ERH\AppData\Local\Temp\cc506n3q.s 			page 108


 3982 0623 01       		.byte	0x1
 3983 0624 3F       		.byte	0x3f
 3984 0625 00       		.byte	0
 3985 0626 1A       		.uleb128 0x1a
 3986 0627 2A000000 		.4byte	.LVL34
 3987 062b 66220000 		.4byte	0x2266
 3988 062f 3C060000 		.4byte	0x63c
 3989 0633 18       		.uleb128 0x18
 3990 0634 01       		.byte	0x1
 3991 0635 50       		.byte	0x50
 3992 0636 04       		.byte	0x4
 3993 0637 74       		.byte	0x74
 3994 0638 00       		.sleb128 0
 3995 0639 38       		.byte	0x38
 3996 063a 25       		.byte	0x25
 3997 063b 00       		.byte	0
 3998 063c 1A       		.uleb128 0x1a
 3999 063d 30000000 		.4byte	.LVL35
 4000 0641 66220000 		.4byte	0x2266
 4001 0645 53060000 		.4byte	0x653
 4002 0649 18       		.uleb128 0x18
 4003 064a 01       		.byte	0x1
 4004 064b 50       		.byte	0x50
 4005 064c 05       		.byte	0x5
 4006 064d 74       		.byte	0x74
 4007 064e 00       		.sleb128 0
 4008 064f 08       		.byte	0x8
 4009 0650 FF       		.byte	0xff
 4010 0651 1A       		.byte	0x1a
 4011 0652 00       		.byte	0
 4012 0653 1A       		.uleb128 0x1a
 4013 0654 36000000 		.4byte	.LVL36
 4014 0658 66220000 		.4byte	0x2266
 4015 065c 66060000 		.4byte	0x666
 4016 0660 18       		.uleb128 0x18
 4017 0661 01       		.byte	0x1
 4018 0662 50       		.byte	0x50
 4019 0663 01       		.byte	0x1
 4020 0664 30       		.byte	0x30
 4021 0665 00       		.byte	0
 4022 0666 19       		.uleb128 0x19
 4023 0667 3A000000 		.4byte	.LVL37
 4024 066b 39220000 		.4byte	0x2239
 4025 066f 1A       		.uleb128 0x1a
 4026 0670 44000000 		.4byte	.LVL38
 4027 0674 47220000 		.4byte	0x2247
 4028 0678 82060000 		.4byte	0x682
 4029 067c 18       		.uleb128 0x18
 4030 067d 01       		.byte	0x1
 4031 067e 50       		.byte	0x50
 4032 067f 01       		.byte	0x1
 4033 0680 31       		.byte	0x31
 4034 0681 00       		.byte	0
 4035 0682 19       		.uleb128 0x19
 4036 0683 4A000000 		.4byte	.LVL39
 4037 0687 7B220000 		.4byte	0x227b
 4038 068b 19       		.uleb128 0x19
ARM GAS  C:\Users\CHUCK~1.ERH\AppData\Local\Temp\cc506n3q.s 			page 109


 4039 068c 52000000 		.4byte	.LVL40
 4040 0690 8A220000 		.4byte	0x228a
 4041 0694 00       		.byte	0
 4042 0695 1F       		.uleb128 0x1f
 4043 0696 77080000 		.4byte	.LASF46
 4044 069a 01       		.byte	0x1
 4045 069b B302     		.2byte	0x2b3
 4046 069d 01       		.byte	0x1
 4047 069e 6F000000 		.4byte	0x6f
 4048 06a2 00000000 		.4byte	.LFB44
 4049 06a6 14000000 		.4byte	.LFE44
 4050 06aa 7B020000 		.4byte	.LLST19
 4051 06ae 01       		.byte	0x1
 4052 06af CD060000 		.4byte	0x6cd
 4053 06b3 14       		.uleb128 0x14
 4054 06b4 68000000 		.4byte	.LASF23
 4055 06b8 01       		.byte	0x1
 4056 06b9 B302     		.2byte	0x2b3
 4057 06bb 6F000000 		.4byte	0x6f
 4058 06bf 9B020000 		.4byte	.LLST20
 4059 06c3 19       		.uleb128 0x19
 4060 06c4 0E000000 		.4byte	.LVL45
 4061 06c8 7D050000 		.4byte	0x57d
 4062 06cc 00       		.byte	0
 4063 06cd 1F       		.uleb128 0x1f
 4064 06ce AA000000 		.4byte	.LASF47
 4065 06d2 01       		.byte	0x1
 4066 06d3 A001     		.2byte	0x1a0
 4067 06d5 01       		.byte	0x1
 4068 06d6 7A000000 		.4byte	0x7a
 4069 06da 00000000 		.4byte	.LFB8
 4070 06de 1A000000 		.4byte	.LFE8
 4071 06e2 BC020000 		.4byte	.LLST21
 4072 06e6 01       		.byte	0x1
 4073 06e7 30070000 		.4byte	0x730
 4074 06eb 14       		.uleb128 0x14
 4075 06ec 1B010000 		.4byte	.LASF24
 4076 06f0 01       		.byte	0x1
 4077 06f1 A001     		.2byte	0x1a0
 4078 06f3 7A000000 		.4byte	0x7a
 4079 06f7 DC020000 		.4byte	.LLST22
 4080 06fb 20       		.uleb128 0x20
 4081 06fc 76616C00 		.ascii	"val\000"
 4082 0700 01       		.byte	0x1
 4083 0701 A201     		.2byte	0x1a2
 4084 0703 7A000000 		.4byte	0x7a
 4085 0707 FD020000 		.4byte	.LLST23
 4086 070b 1A       		.uleb128 0x1a
 4087 070c 08000000 		.4byte	.LVL47
 4088 0710 7D050000 		.4byte	0x57d
 4089 0714 1F070000 		.4byte	0x71f
 4090 0718 18       		.uleb128 0x18
 4091 0719 01       		.byte	0x1
 4092 071a 50       		.byte	0x50
 4093 071b 02       		.byte	0x2
 4094 071c 74       		.byte	0x74
 4095 071d 00       		.sleb128 0
ARM GAS  C:\Users\CHUCK~1.ERH\AppData\Local\Temp\cc506n3q.s 			page 110


 4096 071e 00       		.byte	0
 4097 071f 17       		.uleb128 0x17
 4098 0720 12000000 		.4byte	.LVL49
 4099 0724 7D050000 		.4byte	0x57d
 4100 0728 18       		.uleb128 0x18
 4101 0729 01       		.byte	0x1
 4102 072a 50       		.byte	0x50
 4103 072b 02       		.byte	0x2
 4104 072c 74       		.byte	0x74
 4105 072d 00       		.sleb128 0
 4106 072e 00       		.byte	0
 4107 072f 00       		.byte	0
 4108 0730 0E       		.uleb128 0xe
 4109 0731 CB010000 		.4byte	.LASF49
 4110 0735 01       		.byte	0x1
 4111 0736 5B03     		.2byte	0x35b
 4112 0738 01       		.byte	0x1
 4113 0739 7A000000 		.4byte	0x7a
 4114 073d 01       		.byte	0x1
 4115 073e 4F070000 		.4byte	0x74f
 4116 0742 0A       		.uleb128 0xa
 4117 0743 68000000 		.4byte	.LASF23
 4118 0747 01       		.byte	0x1
 4119 0748 5B03     		.2byte	0x35b
 4120 074a 6F000000 		.4byte	0x6f
 4121 074e 00       		.byte	0
 4122 074f 0B       		.uleb128 0xb
 4123 0750 59030000 		.4byte	.LASF50
 4124 0754 01       		.byte	0x1
 4125 0755 5303     		.2byte	0x353
 4126 0757 01       		.byte	0x1
 4127 0758 01       		.byte	0x1
 4128 0759 76070000 		.4byte	0x776
 4129 075d 0A       		.uleb128 0xa
 4130 075e 68000000 		.4byte	.LASF23
 4131 0762 01       		.byte	0x1
 4132 0763 5303     		.2byte	0x353
 4133 0765 6F000000 		.4byte	0x6f
 4134 0769 0C       		.uleb128 0xc
 4135 076a 70747200 		.ascii	"ptr\000"
 4136 076e 01       		.byte	0x1
 4137 076f 5303     		.2byte	0x353
 4138 0771 7A000000 		.4byte	0x7a
 4139 0775 00       		.byte	0
 4140 0776 21       		.uleb128 0x21
 4141 0777 6A020000 		.4byte	0x26a
 4142 077b 00000000 		.4byte	.LFB111
 4143 077f 60000000 		.4byte	.LFE111
 4144 0783 23030000 		.4byte	.LLST24
 4145 0787 01       		.byte	0x1
 4146 0788 6B080000 		.4byte	0x86b
 4147 078c 22       		.uleb128 0x22
 4148 078d 78020000 		.4byte	0x278
 4149 0791 43030000 		.4byte	.LLST25
 4150 0795 22       		.uleb128 0x22
 4151 0796 90020000 		.4byte	0x290
 4152 079a 64030000 		.4byte	.LLST26
ARM GAS  C:\Users\CHUCK~1.ERH\AppData\Local\Temp\cc506n3q.s 			page 111


 4153 079e 22       		.uleb128 0x22
 4154 079f 9C020000 		.4byte	0x29c
 4155 07a3 90030000 		.4byte	.LLST27
 4156 07a7 23       		.uleb128 0x23
 4157 07a8 A8020000 		.4byte	0x2a8
 4158 07ac B1030000 		.4byte	.LLST28
 4159 07b0 23       		.uleb128 0x23
 4160 07b1 B4020000 		.4byte	0x2b4
 4161 07b5 E5030000 		.4byte	.LLST29
 4162 07b9 23       		.uleb128 0x23
 4163 07ba C0020000 		.4byte	0x2c0
 4164 07be 0B040000 		.4byte	.LLST30
 4165 07c2 23       		.uleb128 0x23
 4166 07c3 CC020000 		.4byte	0x2cc
 4167 07c7 30040000 		.4byte	.LLST31
 4168 07cb 24       		.uleb128 0x24
 4169 07cc 84020000 		.4byte	0x284
 4170 07d0 00       		.byte	0
 4171 07d1 25       		.uleb128 0x25
 4172 07d2 30070000 		.4byte	0x730
 4173 07d6 04000000 		.4byte	.LBB14
 4174 07da 00000000 		.4byte	.Ldebug_ranges0+0
 4175 07de 01       		.byte	0x1
 4176 07df CF03     		.2byte	0x3cf
 4177 07e1 FF070000 		.4byte	0x7ff
 4178 07e5 22       		.uleb128 0x22
 4179 07e6 42070000 		.4byte	0x742
 4180 07ea 64040000 		.4byte	.LLST32
 4181 07ee 17       		.uleb128 0x17
 4182 07ef 16000000 		.4byte	.LVL55
 4183 07f3 CD060000 		.4byte	0x6cd
 4184 07f7 18       		.uleb128 0x18
 4185 07f8 01       		.byte	0x1
 4186 07f9 50       		.byte	0x50
 4187 07fa 02       		.byte	0x2
 4188 07fb 77       		.byte	0x77
 4189 07fc 00       		.sleb128 0
 4190 07fd 00       		.byte	0
 4191 07fe 00       		.byte	0
 4192 07ff 16       		.uleb128 0x16
 4193 0800 4F070000 		.4byte	0x74f
 4194 0804 52000000 		.4byte	.LBB22
 4195 0808 5A000000 		.4byte	.LBE22
 4196 080c 01       		.byte	0x1
 4197 080d F003     		.2byte	0x3f0
 4198 080f 38080000 		.4byte	0x838
 4199 0813 22       		.uleb128 0x22
 4200 0814 69070000 		.4byte	0x769
 4201 0818 82040000 		.4byte	.LLST33
 4202 081c 26       		.uleb128 0x26
 4203 081d 5D070000 		.4byte	0x75d
 4204 0821 17       		.uleb128 0x17
 4205 0822 5A000000 		.4byte	.LVL67
 4206 0826 33040000 		.4byte	0x433
 4207 082a 18       		.uleb128 0x18
 4208 082b 01       		.byte	0x1
 4209 082c 51       		.byte	0x51
ARM GAS  C:\Users\CHUCK~1.ERH\AppData\Local\Temp\cc506n3q.s 			page 112


 4210 082d 02       		.byte	0x2
 4211 082e 74       		.byte	0x74
 4212 082f 00       		.sleb128 0
 4213 0830 18       		.uleb128 0x18
 4214 0831 01       		.byte	0x1
 4215 0832 50       		.byte	0x50
 4216 0833 02       		.byte	0x2
 4217 0834 77       		.byte	0x77
 4218 0835 00       		.sleb128 0
 4219 0836 00       		.byte	0
 4220 0837 00       		.byte	0
 4221 0838 1A       		.uleb128 0x1a
 4222 0839 42000000 		.4byte	.LVL63
 4223 083d 0F050000 		.4byte	0x50f
 4224 0841 61080000 		.4byte	0x861
 4225 0845 18       		.uleb128 0x18
 4226 0846 01       		.byte	0x1
 4227 0847 52       		.byte	0x52
 4228 0848 02       		.byte	0x2
 4229 0849 75       		.byte	0x75
 4230 084a 00       		.sleb128 0
 4231 084b 18       		.uleb128 0x18
 4232 084c 01       		.byte	0x1
 4233 084d 51       		.byte	0x51
 4234 084e 02       		.byte	0x2
 4235 084f 76       		.byte	0x76
 4236 0850 00       		.sleb128 0
 4237 0851 18       		.uleb128 0x18
 4238 0852 01       		.byte	0x1
 4239 0853 50       		.byte	0x50
 4240 0854 0B       		.byte	0xb
 4241 0855 91       		.byte	0x91
 4242 0856 64       		.sleb128 -28
 4243 0857 06       		.byte	0x6
 4244 0858 45       		.byte	0x45
 4245 0859 24       		.byte	0x24
 4246 085a 45       		.byte	0x45
 4247 085b 25       		.byte	0x25
 4248 085c 91       		.byte	0x91
 4249 085d 60       		.sleb128 -32
 4250 085e 06       		.byte	0x6
 4251 085f 22       		.byte	0x22
 4252 0860 00       		.byte	0
 4253 0861 19       		.uleb128 0x19
 4254 0862 4E000000 		.4byte	.LVL65
 4255 0866 0F050000 		.4byte	0x50f
 4256 086a 00       		.byte	0
 4257 086b 0E       		.uleb128 0xe
 4258 086c 83040000 		.4byte	.LASF51
 4259 0870 01       		.byte	0x1
 4260 0871 6303     		.2byte	0x363
 4261 0873 01       		.byte	0x1
 4262 0874 7A000000 		.4byte	0x7a
 4263 0878 01       		.byte	0x1
 4264 0879 8A080000 		.4byte	0x88a
 4265 087d 0A       		.uleb128 0xa
 4266 087e 68000000 		.4byte	.LASF23
ARM GAS  C:\Users\CHUCK~1.ERH\AppData\Local\Temp\cc506n3q.s 			page 113


 4267 0882 01       		.byte	0x1
 4268 0883 6303     		.2byte	0x363
 4269 0885 6F000000 		.4byte	0x6f
 4270 0889 00       		.byte	0
 4271 088a 1F       		.uleb128 0x1f
 4272 088b C3030000 		.4byte	.LASF52
 4273 088f 01       		.byte	0x1
 4274 0890 A403     		.2byte	0x3a4
 4275 0892 01       		.byte	0x1
 4276 0893 7A000000 		.4byte	0x7a
 4277 0897 00000000 		.4byte	.LFB71
 4278 089b 2C000000 		.4byte	.LFE71
 4279 089f 9C040000 		.4byte	.LLST34
 4280 08a3 01       		.byte	0x1
 4281 08a4 29090000 		.4byte	0x929
 4282 08a8 14       		.uleb128 0x14
 4283 08a9 68000000 		.4byte	.LASF23
 4284 08ad 01       		.byte	0x1
 4285 08ae A403     		.2byte	0x3a4
 4286 08b0 6F000000 		.4byte	0x6f
 4287 08b4 BC040000 		.4byte	.LLST35
 4288 08b8 1C       		.uleb128 0x1c
 4289 08b9 D1060000 		.4byte	.LASF53
 4290 08bd 01       		.byte	0x1
 4291 08be A603     		.2byte	0x3a6
 4292 08c0 7A000000 		.4byte	0x7a
 4293 08c4 DD040000 		.4byte	.LLST36
 4294 08c8 1C       		.uleb128 0x1c
 4295 08c9 A6010000 		.4byte	.LASF54
 4296 08cd 01       		.byte	0x1
 4297 08ce A603     		.2byte	0x3a6
 4298 08d0 7A000000 		.4byte	0x7a
 4299 08d4 F1040000 		.4byte	.LLST37
 4300 08d8 25       		.uleb128 0x25
 4301 08d9 6B080000 		.4byte	0x86b
 4302 08dd 00000000 		.4byte	.LBB28
 4303 08e1 28000000 		.4byte	.Ldebug_ranges0+0x28
 4304 08e5 01       		.byte	0x1
 4305 08e6 AB03     		.2byte	0x3ab
 4306 08e8 02090000 		.4byte	0x902
 4307 08ec 26       		.uleb128 0x26
 4308 08ed 7D080000 		.4byte	0x87d
 4309 08f1 17       		.uleb128 0x17
 4310 08f2 12000000 		.4byte	.LVL72
 4311 08f6 CD060000 		.4byte	0x6cd
 4312 08fa 18       		.uleb128 0x18
 4313 08fb 01       		.byte	0x1
 4314 08fc 50       		.byte	0x50
 4315 08fd 02       		.byte	0x2
 4316 08fe 76       		.byte	0x76
 4317 08ff 00       		.sleb128 0
 4318 0900 00       		.byte	0
 4319 0901 00       		.byte	0
 4320 0902 27       		.uleb128 0x27
 4321 0903 6B080000 		.4byte	0x86b
 4322 0907 16000000 		.4byte	.LBB32
 4323 090b 1E000000 		.4byte	.LBE32
ARM GAS  C:\Users\CHUCK~1.ERH\AppData\Local\Temp\cc506n3q.s 			page 114


 4324 090f 01       		.byte	0x1
 4325 0910 AD03     		.2byte	0x3ad
 4326 0912 26       		.uleb128 0x26
 4327 0913 7D080000 		.4byte	0x87d
 4328 0917 17       		.uleb128 0x17
 4329 0918 1C000000 		.4byte	.LVL73
 4330 091c CD060000 		.4byte	0x6cd
 4331 0920 18       		.uleb128 0x18
 4332 0921 01       		.byte	0x1
 4333 0922 50       		.byte	0x50
 4334 0923 02       		.byte	0x2
 4335 0924 76       		.byte	0x76
 4336 0925 00       		.sleb128 0
 4337 0926 00       		.byte	0
 4338 0927 00       		.byte	0
 4339 0928 00       		.byte	0
 4340 0929 1B       		.uleb128 0x1b
 4341 092a 94080000 		.4byte	.LASF55
 4342 092e 01       		.byte	0x1
 4343 092f BF01     		.2byte	0x1bf
 4344 0931 01       		.byte	0x1
 4345 0932 00000000 		.4byte	.LFB10
 4346 0936 1E000000 		.4byte	.LFE10
 4347 093a 10050000 		.4byte	.LLST38
 4348 093e 01       		.byte	0x1
 4349 093f 97090000 		.4byte	0x997
 4350 0943 14       		.uleb128 0x14
 4351 0944 1B010000 		.4byte	.LASF24
 4352 0948 01       		.byte	0x1
 4353 0949 BF01     		.2byte	0x1bf
 4354 094b 7A000000 		.4byte	0x7a
 4355 094f 30050000 		.4byte	.LLST39
 4356 0953 14       		.uleb128 0x14
 4357 0954 2D070000 		.4byte	.LASF28
 4358 0958 01       		.byte	0x1
 4359 0959 BF01     		.2byte	0x1bf
 4360 095b 1F010000 		.4byte	0x11f
 4361 095f 51050000 		.4byte	.LLST40
 4362 0963 14       		.uleb128 0x14
 4363 0964 D7060000 		.4byte	.LASF37
 4364 0968 01       		.byte	0x1
 4365 0969 BF01     		.2byte	0x1bf
 4366 096b 7A000000 		.4byte	0x7a
 4367 096f 7D050000 		.4byte	.LLST41
 4368 0973 1C       		.uleb128 0x1c
 4369 0974 16070000 		.4byte	.LASF27
 4370 0978 01       		.byte	0x1
 4371 0979 C101     		.2byte	0x1c1
 4372 097b 61000000 		.4byte	0x61
 4373 097f 9E050000 		.4byte	.LLST42
 4374 0983 17       		.uleb128 0x17
 4375 0984 16000000 		.4byte	.LVL78
 4376 0988 7D050000 		.4byte	0x57d
 4377 098c 18       		.uleb128 0x18
 4378 098d 01       		.byte	0x1
 4379 098e 50       		.byte	0x50
 4380 098f 05       		.byte	0x5
ARM GAS  C:\Users\CHUCK~1.ERH\AppData\Local\Temp\cc506n3q.s 			page 115


 4381 0990 76       		.byte	0x76
 4382 0991 00       		.sleb128 0
 4383 0992 74       		.byte	0x74
 4384 0993 00       		.sleb128 0
 4385 0994 22       		.byte	0x22
 4386 0995 00       		.byte	0
 4387 0996 00       		.byte	0
 4388 0997 0E       		.uleb128 0xe
 4389 0998 C6020000 		.4byte	.LASF56
 4390 099c 01       		.byte	0x1
 4391 099d 7303     		.2byte	0x373
 4392 099f 01       		.byte	0x1
 4393 09a0 7A000000 		.4byte	0x7a
 4394 09a4 01       		.byte	0x1
 4395 09a5 B6090000 		.4byte	0x9b6
 4396 09a9 0A       		.uleb128 0xa
 4397 09aa 68000000 		.4byte	.LASF23
 4398 09ae 01       		.byte	0x1
 4399 09af 7303     		.2byte	0x373
 4400 09b1 6F000000 		.4byte	0x6f
 4401 09b5 00       		.byte	0
 4402 09b6 0B       		.uleb128 0xb
 4403 09b7 91000000 		.4byte	.LASF57
 4404 09bb 01       		.byte	0x1
 4405 09bc 6B03     		.2byte	0x36b
 4406 09be 01       		.byte	0x1
 4407 09bf 01       		.byte	0x1
 4408 09c0 DD090000 		.4byte	0x9dd
 4409 09c4 0A       		.uleb128 0xa
 4410 09c5 68000000 		.4byte	.LASF23
 4411 09c9 01       		.byte	0x1
 4412 09ca 6B03     		.2byte	0x36b
 4413 09cc 6F000000 		.4byte	0x6f
 4414 09d0 0C       		.uleb128 0xc
 4415 09d1 70747200 		.ascii	"ptr\000"
 4416 09d5 01       		.byte	0x1
 4417 09d6 6B03     		.2byte	0x36b
 4418 09d8 7A000000 		.4byte	0x7a
 4419 09dc 00       		.byte	0
 4420 09dd 21       		.uleb128 0x21
 4421 09de D9020000 		.4byte	0x2d9
 4422 09e2 00000000 		.4byte	.LFB112
 4423 09e6 66000000 		.4byte	.LFE112
 4424 09ea BD050000 		.4byte	.LLST43
 4425 09ee 01       		.byte	0x1
 4426 09ef DB0A0000 		.4byte	0xadb
 4427 09f3 22       		.uleb128 0x22
 4428 09f4 E7020000 		.4byte	0x2e7
 4429 09f8 DD050000 		.4byte	.LLST44
 4430 09fc 22       		.uleb128 0x22
 4431 09fd F3020000 		.4byte	0x2f3
 4432 0a01 FE050000 		.4byte	.LLST45
 4433 0a05 22       		.uleb128 0x22
 4434 0a06 FF020000 		.4byte	0x2ff
 4435 0a0a 1F060000 		.4byte	.LLST46
 4436 0a0e 22       		.uleb128 0x22
 4437 0a0f 0B030000 		.4byte	0x30b
ARM GAS  C:\Users\CHUCK~1.ERH\AppData\Local\Temp\cc506n3q.s 			page 116


 4438 0a13 4B060000 		.4byte	.LLST47
 4439 0a17 23       		.uleb128 0x23
 4440 0a18 23030000 		.4byte	0x323
 4441 0a1c 6C060000 		.4byte	.LLST48
 4442 0a20 23       		.uleb128 0x23
 4443 0a21 2F030000 		.4byte	0x32f
 4444 0a25 A0060000 		.4byte	.LLST49
 4445 0a29 23       		.uleb128 0x23
 4446 0a2a 3B030000 		.4byte	0x33b
 4447 0a2e C6060000 		.4byte	.LLST50
 4448 0a32 23       		.uleb128 0x23
 4449 0a33 47030000 		.4byte	0x347
 4450 0a37 EB060000 		.4byte	.LLST51
 4451 0a3b 24       		.uleb128 0x24
 4452 0a3c 17030000 		.4byte	0x317
 4453 0a40 00       		.byte	0
 4454 0a41 25       		.uleb128 0x25
 4455 0a42 97090000 		.4byte	0x997
 4456 0a46 04000000 		.4byte	.LBB38
 4457 0a4a 40000000 		.4byte	.Ldebug_ranges0+0x40
 4458 0a4e 01       		.byte	0x1
 4459 0a4f 0704     		.2byte	0x407
 4460 0a51 6F0A0000 		.4byte	0xa6f
 4461 0a55 22       		.uleb128 0x22
 4462 0a56 A9090000 		.4byte	0x9a9
 4463 0a5a 1F070000 		.4byte	.LLST52
 4464 0a5e 17       		.uleb128 0x17
 4465 0a5f 1A000000 		.4byte	.LVL86
 4466 0a63 CD060000 		.4byte	0x6cd
 4467 0a67 18       		.uleb128 0x18
 4468 0a68 01       		.byte	0x1
 4469 0a69 50       		.byte	0x50
 4470 0a6a 02       		.byte	0x2
 4471 0a6b 77       		.byte	0x77
 4472 0a6c 00       		.sleb128 0
 4473 0a6d 00       		.byte	0
 4474 0a6e 00       		.byte	0
 4475 0a6f 16       		.uleb128 0x16
 4476 0a70 B6090000 		.4byte	0x9b6
 4477 0a74 5C000000 		.4byte	.LBB46
 4478 0a78 64000000 		.4byte	.LBE46
 4479 0a7c 01       		.byte	0x1
 4480 0a7d 2804     		.2byte	0x428
 4481 0a7f A80A0000 		.4byte	0xaa8
 4482 0a83 22       		.uleb128 0x22
 4483 0a84 D0090000 		.4byte	0x9d0
 4484 0a88 3D070000 		.4byte	.LLST53
 4485 0a8c 26       		.uleb128 0x26
 4486 0a8d C4090000 		.4byte	0x9c4
 4487 0a91 17       		.uleb128 0x17
 4488 0a92 64000000 		.4byte	.LVL97
 4489 0a96 33040000 		.4byte	0x433
 4490 0a9a 18       		.uleb128 0x18
 4491 0a9b 01       		.byte	0x1
 4492 0a9c 51       		.byte	0x51
 4493 0a9d 02       		.byte	0x2
 4494 0a9e 74       		.byte	0x74
ARM GAS  C:\Users\CHUCK~1.ERH\AppData\Local\Temp\cc506n3q.s 			page 117


 4495 0a9f 00       		.sleb128 0
 4496 0aa0 18       		.uleb128 0x18
 4497 0aa1 01       		.byte	0x1
 4498 0aa2 50       		.byte	0x50
 4499 0aa3 02       		.byte	0x2
 4500 0aa4 77       		.byte	0x77
 4501 0aa5 00       		.sleb128 0
 4502 0aa6 00       		.byte	0
 4503 0aa7 00       		.byte	0
 4504 0aa8 1A       		.uleb128 0x1a
 4505 0aa9 4C000000 		.4byte	.LVL93
 4506 0aad 29090000 		.4byte	0x929
 4507 0ab1 D10A0000 		.4byte	0xad1
 4508 0ab5 18       		.uleb128 0x18
 4509 0ab6 01       		.byte	0x1
 4510 0ab7 52       		.byte	0x52
 4511 0ab8 02       		.byte	0x2
 4512 0ab9 75       		.byte	0x75
 4513 0aba 00       		.sleb128 0
 4514 0abb 18       		.uleb128 0x18
 4515 0abc 01       		.byte	0x1
 4516 0abd 51       		.byte	0x51
 4517 0abe 02       		.byte	0x2
 4518 0abf 76       		.byte	0x76
 4519 0ac0 00       		.sleb128 0
 4520 0ac1 18       		.uleb128 0x18
 4521 0ac2 01       		.byte	0x1
 4522 0ac3 50       		.byte	0x50
 4523 0ac4 0B       		.byte	0xb
 4524 0ac5 91       		.byte	0x91
 4525 0ac6 60       		.sleb128 -32
 4526 0ac7 06       		.byte	0x6
 4527 0ac8 45       		.byte	0x45
 4528 0ac9 24       		.byte	0x24
 4529 0aca 45       		.byte	0x45
 4530 0acb 25       		.byte	0x25
 4531 0acc 91       		.byte	0x91
 4532 0acd 64       		.sleb128 -28
 4533 0ace 06       		.byte	0x6
 4534 0acf 22       		.byte	0x22
 4535 0ad0 00       		.byte	0
 4536 0ad1 19       		.uleb128 0x19
 4537 0ad2 58000000 		.4byte	.LVL95
 4538 0ad6 29090000 		.4byte	0x929
 4539 0ada 00       		.byte	0
 4540 0adb 0B       		.uleb128 0xb
 4541 0adc 01020000 		.4byte	.LASF58
 4542 0ae0 01       		.byte	0x1
 4543 0ae1 8B02     		.2byte	0x28b
 4544 0ae3 01       		.byte	0x1
 4545 0ae4 01       		.byte	0x1
 4546 0ae5 020B0000 		.4byte	0xb02
 4547 0ae9 0A       		.uleb128 0xa
 4548 0aea 68000000 		.4byte	.LASF23
 4549 0aee 01       		.byte	0x1
 4550 0aef 8B02     		.2byte	0x28b
 4551 0af1 6F000000 		.4byte	0x6f
ARM GAS  C:\Users\CHUCK~1.ERH\AppData\Local\Temp\cc506n3q.s 			page 118


 4552 0af5 0C       		.uleb128 0xc
 4553 0af6 636D6400 		.ascii	"cmd\000"
 4554 0afa 01       		.byte	0x1
 4555 0afb 8B02     		.2byte	0x28b
 4556 0afd 6F000000 		.4byte	0x6f
 4557 0b01 00       		.byte	0
 4558 0b02 0E       		.uleb128 0xe
 4559 0b03 7A000000 		.4byte	.LASF59
 4560 0b07 01       		.byte	0x1
 4561 0b08 9302     		.2byte	0x293
 4562 0b0a 01       		.byte	0x1
 4563 0b0b 6F000000 		.4byte	0x6f
 4564 0b0f 01       		.byte	0x1
 4565 0b10 210B0000 		.4byte	0xb21
 4566 0b14 0A       		.uleb128 0xa
 4567 0b15 68000000 		.4byte	.LASF23
 4568 0b19 01       		.byte	0x1
 4569 0b1a 9302     		.2byte	0x293
 4570 0b1c 6F000000 		.4byte	0x6f
 4571 0b20 00       		.byte	0
 4572 0b21 1F       		.uleb128 0x1f
 4573 0b22 F0070000 		.4byte	.LASF60
 4574 0b26 01       		.byte	0x1
 4575 0b27 7B03     		.2byte	0x37b
 4576 0b29 01       		.byte	0x1
 4577 0b2a 85000000 		.4byte	0x85
 4578 0b2e 00000000 		.4byte	.LFB69
 4579 0b32 34000000 		.4byte	.LFE69
 4580 0b36 57070000 		.4byte	.LLST54
 4581 0b3a 01       		.byte	0x1
 4582 0b3b E70B0000 		.4byte	0xbe7
 4583 0b3f 14       		.uleb128 0x14
 4584 0b40 68000000 		.4byte	.LASF23
 4585 0b44 01       		.byte	0x1
 4586 0b45 7B03     		.2byte	0x37b
 4587 0b47 6F000000 		.4byte	0x6f
 4588 0b4b 77070000 		.4byte	.LLST55
 4589 0b4f 15       		.uleb128 0x15
 4590 0b50 636D6400 		.ascii	"cmd\000"
 4591 0b54 01       		.byte	0x1
 4592 0b55 7B03     		.2byte	0x37b
 4593 0b57 61000000 		.4byte	0x61
 4594 0b5b 98070000 		.4byte	.LLST56
 4595 0b5f 1C       		.uleb128 0x1c
 4596 0b60 08030000 		.4byte	.LASF61
 4597 0b64 01       		.byte	0x1
 4598 0b65 7D03     		.2byte	0x37d
 4599 0b67 85000000 		.4byte	0x85
 4600 0b6b B9070000 		.4byte	.LLST57
 4601 0b6f 16       		.uleb128 0x16
 4602 0b70 DB0A0000 		.4byte	0xadb
 4603 0b74 02000000 		.4byte	.LBB52
 4604 0b78 14000000 		.4byte	.LBE52
 4605 0b7c 01       		.byte	0x1
 4606 0b7d 8003     		.2byte	0x380
 4607 0b7f AD0B0000 		.4byte	0xbad
 4608 0b83 22       		.uleb128 0x22
ARM GAS  C:\Users\CHUCK~1.ERH\AppData\Local\Temp\cc506n3q.s 			page 119


 4609 0b84 F50A0000 		.4byte	0xaf5
 4610 0b88 98070000 		.4byte	.LLST56
 4611 0b8c 22       		.uleb128 0x22
 4612 0b8d E90A0000 		.4byte	0xae9
 4613 0b91 E3070000 		.4byte	.LLST59
 4614 0b95 17       		.uleb128 0x17
 4615 0b96 12000000 		.4byte	.LVL102
 4616 0b9a 5D030000 		.4byte	0x35d
 4617 0b9e 18       		.uleb128 0x18
 4618 0b9f 01       		.byte	0x1
 4619 0ba0 51       		.byte	0x51
 4620 0ba1 03       		.byte	0x3
 4621 0ba2 F3       		.byte	0xf3
 4622 0ba3 01       		.uleb128 0x1
 4623 0ba4 51       		.byte	0x51
 4624 0ba5 18       		.uleb128 0x18
 4625 0ba6 01       		.byte	0x1
 4626 0ba7 50       		.byte	0x50
 4627 0ba8 02       		.byte	0x2
 4628 0ba9 75       		.byte	0x75
 4629 0baa 00       		.sleb128 0
 4630 0bab 00       		.byte	0
 4631 0bac 00       		.byte	0
 4632 0bad 16       		.uleb128 0x16
 4633 0bae 020B0000 		.4byte	0xb02
 4634 0bb2 14000000 		.4byte	.LBB54
 4635 0bb6 1A000000 		.4byte	.LBE54
 4636 0bba 01       		.byte	0x1
 4637 0bbb 8103     		.2byte	0x381
 4638 0bbd D70B0000 		.4byte	0xbd7
 4639 0bc1 26       		.uleb128 0x26
 4640 0bc2 140B0000 		.4byte	0xb14
 4641 0bc6 17       		.uleb128 0x17
 4642 0bc7 1A000000 		.4byte	.LVL104
 4643 0bcb 7D050000 		.4byte	0x57d
 4644 0bcf 18       		.uleb128 0x18
 4645 0bd0 01       		.byte	0x1
 4646 0bd1 50       		.byte	0x50
 4647 0bd2 02       		.byte	0x2
 4648 0bd3 75       		.byte	0x75
 4649 0bd4 00       		.sleb128 0
 4650 0bd5 00       		.byte	0
 4651 0bd6 00       		.byte	0
 4652 0bd7 17       		.uleb128 0x17
 4653 0bd8 2A000000 		.4byte	.LVL106
 4654 0bdc 99220000 		.4byte	0x2299
 4655 0be0 18       		.uleb128 0x18
 4656 0be1 01       		.byte	0x1
 4657 0be2 50       		.byte	0x50
 4658 0be3 01       		.byte	0x1
 4659 0be4 31       		.byte	0x31
 4660 0be5 00       		.byte	0
 4661 0be6 00       		.byte	0
 4662 0be7 21       		.uleb128 0x21
 4663 0be8 A7010000 		.4byte	0x1a7
 4664 0bec 00000000 		.4byte	.LFB106
 4665 0bf0 1E000000 		.4byte	.LFE106
ARM GAS  C:\Users\CHUCK~1.ERH\AppData\Local\Temp\cc506n3q.s 			page 120


 4666 0bf4 F6070000 		.4byte	.LLST60
 4667 0bf8 01       		.byte	0x1
 4668 0bf9 2E0C0000 		.4byte	0xc2e
 4669 0bfd 28       		.uleb128 0x28
 4670 0bfe C5010000 		.4byte	0x1c5
 4671 0c02 02       		.byte	0x2
 4672 0c03 91       		.byte	0x91
 4673 0c04 74       		.sleb128 -12
 4674 0c05 23       		.uleb128 0x23
 4675 0c06 D1010000 		.4byte	0x1d1
 4676 0c0a 16080000 		.4byte	.LLST61
 4677 0c0e 23       		.uleb128 0x23
 4678 0c0f DD010000 		.4byte	0x1dd
 4679 0c13 29080000 		.4byte	.LLST62
 4680 0c17 24       		.uleb128 0x24
 4681 0c18 B9010000 		.4byte	0x1b9
 4682 0c1c 0F       		.byte	0xf
 4683 0c1d 17       		.uleb128 0x17
 4684 0c1e 10000000 		.4byte	.LVL111
 4685 0c22 7D050000 		.4byte	0x57d
 4686 0c26 18       		.uleb128 0x18
 4687 0c27 01       		.byte	0x1
 4688 0c28 50       		.byte	0x50
 4689 0c29 02       		.byte	0x2
 4690 0c2a 74       		.byte	0x74
 4691 0c2b 0F       		.sleb128 15
 4692 0c2c 00       		.byte	0
 4693 0c2d 00       		.byte	0
 4694 0c2e 0B       		.uleb128 0xb
 4695 0c2f 54020000 		.4byte	.LASF62
 4696 0c33 01       		.byte	0x1
 4697 0c34 EB01     		.2byte	0x1eb
 4698 0c36 01       		.byte	0x1
 4699 0c37 01       		.byte	0x1
 4700 0c38 480C0000 		.4byte	0xc48
 4701 0c3c 0C       		.uleb128 0xc
 4702 0c3d 697000   		.ascii	"ip\000"
 4703 0c40 01       		.byte	0x1
 4704 0c41 EB01     		.2byte	0x1eb
 4705 0c43 85000000 		.4byte	0x85
 4706 0c47 00       		.byte	0
 4707 0c48 0E       		.uleb128 0xe
 4708 0c49 C7000000 		.4byte	.LASF63
 4709 0c4d 01       		.byte	0x1
 4710 0c4e A302     		.2byte	0x2a3
 4711 0c50 01       		.byte	0x1
 4712 0c51 6F000000 		.4byte	0x6f
 4713 0c55 01       		.byte	0x1
 4714 0c56 670C0000 		.4byte	0xc67
 4715 0c5a 0A       		.uleb128 0xa
 4716 0c5b 68000000 		.4byte	.LASF23
 4717 0c5f 01       		.byte	0x1
 4718 0c60 A302     		.2byte	0x2a3
 4719 0c62 6F000000 		.4byte	0x6f
 4720 0c66 00       		.byte	0
 4721 0c67 0B       		.uleb128 0xb
 4722 0c68 9A050000 		.4byte	.LASF64
ARM GAS  C:\Users\CHUCK~1.ERH\AppData\Local\Temp\cc506n3q.s 			page 121


 4723 0c6c 01       		.byte	0x1
 4724 0c6d 9B02     		.2byte	0x29b
 4725 0c6f 01       		.byte	0x1
 4726 0c70 01       		.byte	0x1
 4727 0c71 8D0C0000 		.4byte	0xc8d
 4728 0c75 0A       		.uleb128 0xa
 4729 0c76 68000000 		.4byte	.LASF23
 4730 0c7a 01       		.byte	0x1
 4731 0c7b 9B02     		.2byte	0x29b
 4732 0c7d 6F000000 		.4byte	0x6f
 4733 0c81 0C       		.uleb128 0xc
 4734 0c82 697200   		.ascii	"ir\000"
 4735 0c85 01       		.byte	0x1
 4736 0c86 9B02     		.2byte	0x29b
 4737 0c88 6F000000 		.4byte	0x6f
 4738 0c8c 00       		.byte	0
 4739 0c8d 1B       		.uleb128 0x1b
 4740 0c8e 33000000 		.4byte	.LASF65
 4741 0c92 01       		.byte	0x1
 4742 0c93 8E05     		.2byte	0x58e
 4743 0c95 01       		.byte	0x1
 4744 0c96 00000000 		.4byte	.LFB88
 4745 0c9a 4C000000 		.4byte	.LFE88
 4746 0c9e 49080000 		.4byte	.LLST63
 4747 0ca2 01       		.byte	0x1
 4748 0ca3 C90D0000 		.4byte	0xdc9
 4749 0ca7 14       		.uleb128 0x14
 4750 0ca8 68000000 		.4byte	.LASF23
 4751 0cac 01       		.byte	0x1
 4752 0cad 8E05     		.2byte	0x58e
 4753 0caf 6F000000 		.4byte	0x6f
 4754 0cb3 69080000 		.4byte	.LLST64
 4755 0cb7 20       		.uleb128 0x20
 4756 0cb8 697200   		.ascii	"ir\000"
 4757 0cbb 01       		.byte	0x1
 4758 0cbc 9005     		.2byte	0x590
 4759 0cbe 6F000000 		.4byte	0x6f
 4760 0cc2 8A080000 		.4byte	.LLST65
 4761 0cc6 25       		.uleb128 0x25
 4762 0cc7 2E0C0000 		.4byte	0xc2e
 4763 0ccb 00000000 		.4byte	.LBB66
 4764 0ccf 68000000 		.4byte	.Ldebug_ranges0+0x68
 4765 0cd3 01       		.byte	0x1
 4766 0cd4 9305     		.2byte	0x593
 4767 0cd6 F30C0000 		.4byte	0xcf3
 4768 0cda 22       		.uleb128 0x22
 4769 0cdb 3C0C0000 		.4byte	0xc3c
 4770 0cdf A8080000 		.4byte	.LLST66
 4771 0ce3 17       		.uleb128 0x17
 4772 0ce4 0E000000 		.4byte	.LVL117
 4773 0ce8 A0040000 		.4byte	0x4a0
 4774 0cec 18       		.uleb128 0x18
 4775 0ced 01       		.byte	0x1
 4776 0cee 50       		.byte	0x50
 4777 0cef 01       		.byte	0x1
 4778 0cf0 35       		.byte	0x35
 4779 0cf1 00       		.byte	0
ARM GAS  C:\Users\CHUCK~1.ERH\AppData\Local\Temp\cc506n3q.s 			page 122


 4780 0cf2 00       		.byte	0
 4781 0cf3 16       		.uleb128 0x16
 4782 0cf4 480C0000 		.4byte	0xc48
 4783 0cf8 16000000 		.4byte	.LBB72
 4784 0cfc 1E000000 		.4byte	.LBE72
 4785 0d00 01       		.byte	0x1
 4786 0d01 9705     		.2byte	0x597
 4787 0d03 110D0000 		.4byte	0xd11
 4788 0d07 22       		.uleb128 0x22
 4789 0d08 5A0C0000 		.4byte	0xc5a
 4790 0d0c BF080000 		.4byte	.LLST67
 4791 0d10 00       		.byte	0
 4792 0d11 16       		.uleb128 0x16
 4793 0d12 480C0000 		.4byte	0xc48
 4794 0d16 1E000000 		.4byte	.LBB74
 4795 0d1a 24000000 		.4byte	.LBE74
 4796 0d1e 01       		.byte	0x1
 4797 0d1f 9B05     		.2byte	0x59b
 4798 0d21 3B0D0000 		.4byte	0xd3b
 4799 0d25 26       		.uleb128 0x26
 4800 0d26 5A0C0000 		.4byte	0xc5a
 4801 0d2a 17       		.uleb128 0x17
 4802 0d2b 24000000 		.4byte	.LVL120
 4803 0d2f 7D050000 		.4byte	0x57d
 4804 0d33 18       		.uleb128 0x18
 4805 0d34 01       		.byte	0x1
 4806 0d35 50       		.byte	0x50
 4807 0d36 02       		.byte	0x2
 4808 0d37 74       		.byte	0x74
 4809 0d38 00       		.sleb128 0
 4810 0d39 00       		.byte	0
 4811 0d3a 00       		.byte	0
 4812 0d3b 16       		.uleb128 0x16
 4813 0d3c 670C0000 		.4byte	0xc67
 4814 0d40 32000000 		.4byte	.LBB76
 4815 0d44 3A000000 		.4byte	.LBE76
 4816 0d48 01       		.byte	0x1
 4817 0d49 9F05     		.2byte	0x59f
 4818 0d4b 700D0000 		.4byte	0xd70
 4819 0d4f 24       		.uleb128 0x24
 4820 0d50 810C0000 		.4byte	0xc81
 4821 0d54 10       		.byte	0x10
 4822 0d55 26       		.uleb128 0x26
 4823 0d56 750C0000 		.4byte	0xc75
 4824 0d5a 17       		.uleb128 0x17
 4825 0d5b 3A000000 		.4byte	.LVL125
 4826 0d5f 5D030000 		.4byte	0x35d
 4827 0d63 18       		.uleb128 0x18
 4828 0d64 01       		.byte	0x1
 4829 0d65 51       		.byte	0x51
 4830 0d66 01       		.byte	0x1
 4831 0d67 40       		.byte	0x40
 4832 0d68 18       		.uleb128 0x18
 4833 0d69 01       		.byte	0x1
 4834 0d6a 50       		.byte	0x50
 4835 0d6b 02       		.byte	0x2
 4836 0d6c 74       		.byte	0x74
ARM GAS  C:\Users\CHUCK~1.ERH\AppData\Local\Temp\cc506n3q.s 			page 123


 4837 0d6d 00       		.sleb128 0
 4838 0d6e 00       		.byte	0
 4839 0d6f 00       		.byte	0
 4840 0d70 16       		.uleb128 0x16
 4841 0d71 2E0C0000 		.4byte	0xc2e
 4842 0d75 3A000000 		.4byte	.LBB78
 4843 0d79 42000000 		.4byte	.LBE78
 4844 0d7d 01       		.byte	0x1
 4845 0d7e A105     		.2byte	0x5a1
 4846 0d80 9F0D0000 		.4byte	0xd9f
 4847 0d84 24       		.uleb128 0x24
 4848 0d85 3C0C0000 		.4byte	0xc3c
 4849 0d89 00       		.byte	0
 4850 0d8a 17       		.uleb128 0x17
 4851 0d8b 42000000 		.4byte	.LVL126
 4852 0d8f A0040000 		.4byte	0x4a0
 4853 0d93 18       		.uleb128 0x18
 4854 0d94 01       		.byte	0x1
 4855 0d95 51       		.byte	0x51
 4856 0d96 01       		.byte	0x1
 4857 0d97 30       		.byte	0x30
 4858 0d98 18       		.uleb128 0x18
 4859 0d99 01       		.byte	0x1
 4860 0d9a 50       		.byte	0x50
 4861 0d9b 01       		.byte	0x1
 4862 0d9c 35       		.byte	0x35
 4863 0d9d 00       		.byte	0
 4864 0d9e 00       		.byte	0
 4865 0d9f 1A       		.uleb128 0x1a
 4866 0da0 16000000 		.4byte	.LVL118
 4867 0da4 210B0000 		.4byte	0xb21
 4868 0da8 B90D0000 		.4byte	0xdb9
 4869 0dac 18       		.uleb128 0x18
 4870 0dad 01       		.byte	0x1
 4871 0dae 51       		.byte	0x51
 4872 0daf 02       		.byte	0x2
 4873 0db0 08       		.byte	0x8
 4874 0db1 20       		.byte	0x20
 4875 0db2 18       		.uleb128 0x18
 4876 0db3 01       		.byte	0x1
 4877 0db4 50       		.byte	0x50
 4878 0db5 02       		.byte	0x2
 4879 0db6 74       		.byte	0x74
 4880 0db7 00       		.sleb128 0
 4881 0db8 00       		.byte	0
 4882 0db9 17       		.uleb128 0x17
 4883 0dba 30000000 		.4byte	.LVL122
 4884 0dbe 99220000 		.4byte	0x2299
 4885 0dc2 18       		.uleb128 0x18
 4886 0dc3 01       		.byte	0x1
 4887 0dc4 50       		.byte	0x50
 4888 0dc5 01       		.byte	0x1
 4889 0dc6 31       		.byte	0x31
 4890 0dc7 00       		.byte	0
 4891 0dc8 00       		.byte	0
 4892 0dc9 1D       		.uleb128 0x1d
 4893 0dca 01       		.byte	0x1
ARM GAS  C:\Users\CHUCK~1.ERH\AppData\Local\Temp\cc506n3q.s 			page 124


 4894 0dcb 87030000 		.4byte	.LASF67
 4895 0dcf 01       		.byte	0x1
 4896 0dd0 7B04     		.2byte	0x47b
 4897 0dd2 01       		.byte	0x1
 4898 0dd3 85000000 		.4byte	0x85
 4899 0dd7 00000000 		.4byte	.LFB76
 4900 0ddb 88000000 		.4byte	.LFE76
 4901 0ddf D2080000 		.4byte	.LLST68
 4902 0de3 01       		.byte	0x1
 4903 0de4 560E0000 		.4byte	0xe56
 4904 0de8 14       		.uleb128 0x14
 4905 0de9 5E060000 		.4byte	.LASF68
 4906 0ded 01       		.byte	0x1
 4907 0dee 7B04     		.2byte	0x47b
 4908 0df0 BD000000 		.4byte	0xbd
 4909 0df4 FE080000 		.4byte	.LLST69
 4910 0df8 1C       		.uleb128 0x1c
 4911 0df9 16070000 		.4byte	.LASF27
 4912 0dfd 01       		.byte	0x1
 4913 0dfe 8004     		.2byte	0x480
 4914 0e00 61000000 		.4byte	0x61
 4915 0e04 2A090000 		.4byte	.LLST70
 4916 0e08 29       		.uleb128 0x29
 4917 0e09 A0010000 		.4byte	.LASF69
 4918 0e0d 01       		.byte	0x1
 4919 0e0e 8104     		.2byte	0x481
 4920 0e10 560E0000 		.4byte	0xe56
 4921 0e14 02       		.byte	0x2
 4922 0e15 91       		.byte	0x91
 4923 0e16 60       		.sleb128 -32
 4924 0e17 1E       		.uleb128 0x1e
 4925 0e18 697000   		.ascii	"ip\000"
 4926 0e1b 01       		.byte	0x1
 4927 0e1c 8204     		.2byte	0x482
 4928 0e1e E9010000 		.4byte	0x1e9
 4929 0e22 02       		.byte	0x2
 4930 0e23 91       		.byte	0x91
 4931 0e24 5C       		.sleb128 -36
 4932 0e25 1C       		.uleb128 0x1c
 4933 0e26 34070000 		.4byte	.LASF70
 4934 0e2a 01       		.byte	0x1
 4935 0e2b 8304     		.2byte	0x483
 4936 0e2d 61000000 		.4byte	0x61
 4937 0e31 49090000 		.4byte	.LLST71
 4938 0e35 1C       		.uleb128 0x1c
 4939 0e36 C4010000 		.4byte	.LASF71
 4940 0e3a 01       		.byte	0x1
 4941 0e3b 8404     		.2byte	0x484
 4942 0e3d 61000000 		.4byte	0x61
 4943 0e41 68090000 		.4byte	.LLST72
 4944 0e45 17       		.uleb128 0x17
 4945 0e46 12000000 		.4byte	.LVL129
 4946 0e4a AD220000 		.4byte	0x22ad
 4947 0e4e 18       		.uleb128 0x18
 4948 0e4f 01       		.byte	0x1
 4949 0e50 50       		.byte	0x50
 4950 0e51 02       		.byte	0x2
ARM GAS  C:\Users\CHUCK~1.ERH\AppData\Local\Temp\cc506n3q.s 			page 125


 4951 0e52 77       		.byte	0x77
 4952 0e53 00       		.sleb128 0
 4953 0e54 00       		.byte	0
 4954 0e55 00       		.byte	0
 4955 0e56 10       		.uleb128 0x10
 4956 0e57 9E000000 		.4byte	0x9e
 4957 0e5b 660E0000 		.4byte	0xe66
 4958 0e5f 11       		.uleb128 0x11
 4959 0e60 B0000000 		.4byte	0xb0
 4960 0e64 04       		.byte	0x4
 4961 0e65 00       		.byte	0
 4962 0e66 1D       		.uleb128 0x1d
 4963 0e67 01       		.byte	0x1
 4964 0e68 82020000 		.4byte	.LASF72
 4965 0e6c 01       		.byte	0x1
 4966 0e6d B004     		.2byte	0x4b0
 4967 0e6f 01       		.byte	0x1
 4968 0e70 A5000000 		.4byte	0xa5
 4969 0e74 00000000 		.4byte	.LFB77
 4970 0e78 0E010000 		.4byte	.LFE77
 4971 0e7c B5090000 		.4byte	.LLST73
 4972 0e80 01       		.byte	0x1
 4973 0e81 D40E0000 		.4byte	0xed4
 4974 0e85 14       		.uleb128 0x14
 4975 0e86 4A020000 		.4byte	.LASF73
 4976 0e8a 01       		.byte	0x1
 4977 0e8b B004     		.2byte	0x4b0
 4978 0e8d BD000000 		.4byte	0xbd
 4979 0e91 D5090000 		.4byte	.LLST74
 4980 0e95 2A       		.uleb128 0x2a
 4981 0e96 6D616300 		.ascii	"mac\000"
 4982 0e9a 01       		.byte	0x1
 4983 0e9b B004     		.2byte	0x4b0
 4984 0e9d 1F010000 		.4byte	0x11f
 4985 0ea1 01       		.byte	0x1
 4986 0ea2 51       		.byte	0x51
 4987 0ea3 1C       		.uleb128 0x1c
 4988 0ea4 A0010000 		.4byte	.LASF69
 4989 0ea8 01       		.byte	0x1
 4990 0ea9 B804     		.2byte	0x4b8
 4991 0eab 61000000 		.4byte	0x61
 4992 0eaf F3090000 		.4byte	.LLST75
 4993 0eb3 1C       		.uleb128 0x1c
 4994 0eb4 16070000 		.4byte	.LASF27
 4995 0eb8 01       		.byte	0x1
 4996 0eb9 B904     		.2byte	0x4b9
 4997 0ebb 61000000 		.4byte	0x61
 4998 0ebf 120A0000 		.4byte	.LLST76
 4999 0ec3 1C       		.uleb128 0x1c
 5000 0ec4 8D080000 		.4byte	.LASF74
 5001 0ec8 01       		.byte	0x1
 5002 0ec9 BA04     		.2byte	0x4ba
 5003 0ecb A5000000 		.4byte	0xa5
 5004 0ecf DC0A0000 		.4byte	.LLST77
 5005 0ed3 00       		.byte	0
 5006 0ed4 0B       		.uleb128 0xb
 5007 0ed5 0E050000 		.4byte	.LASF75
ARM GAS  C:\Users\CHUCK~1.ERH\AppData\Local\Temp\cc506n3q.s 			page 126


 5008 0ed9 01       		.byte	0x1
 5009 0eda D901     		.2byte	0x1d9
 5010 0edc 01       		.byte	0x1
 5011 0edd 01       		.byte	0x1
 5012 0ede EF0E0000 		.4byte	0xeef
 5013 0ee2 0C       		.uleb128 0xc
 5014 0ee3 6D616300 		.ascii	"mac\000"
 5015 0ee7 01       		.byte	0x1
 5016 0ee8 D901     		.2byte	0x1d9
 5017 0eea 1F010000 		.4byte	0x11f
 5018 0eee 00       		.byte	0
 5019 0eef 13       		.uleb128 0x13
 5020 0ef0 01       		.byte	0x1
 5021 0ef1 DE030000 		.4byte	.LASF77
 5022 0ef5 01       		.byte	0x1
 5023 0ef6 DB04     		.2byte	0x4db
 5024 0ef8 01       		.byte	0x1
 5025 0ef9 00000000 		.4byte	.LFB78
 5026 0efd 62000000 		.4byte	.LFE78
 5027 0f01 FC0A0000 		.4byte	.LLST78
 5028 0f05 01       		.byte	0x1
 5029 0f06 A60F0000 		.4byte	0xfa6
 5030 0f0a 14       		.uleb128 0x14
 5031 0f0b 4A020000 		.4byte	.LASF73
 5032 0f0f 01       		.byte	0x1
 5033 0f10 DB04     		.2byte	0x4db
 5034 0f12 B7000000 		.4byte	0xb7
 5035 0f16 1C0B0000 		.4byte	.LLST79
 5036 0f1a 1E       		.uleb128 0x1e
 5037 0f1b 6D616300 		.ascii	"mac\000"
 5038 0f1f 01       		.byte	0x1
 5039 0f20 DD04     		.2byte	0x4dd
 5040 0f22 A60F0000 		.4byte	0xfa6
 5041 0f26 02       		.byte	0x2
 5042 0f27 91       		.byte	0x91
 5043 0f28 68       		.sleb128 -24
 5044 0f29 1C       		.uleb128 0x1c
 5045 0f2a A0010000 		.4byte	.LASF69
 5046 0f2e 01       		.byte	0x1
 5047 0f2f DE04     		.2byte	0x4de
 5048 0f31 61000000 		.4byte	0x61
 5049 0f35 480B0000 		.4byte	.LLST80
 5050 0f39 1C       		.uleb128 0x1c
 5051 0f3a 16070000 		.4byte	.LASF27
 5052 0f3e 01       		.byte	0x1
 5053 0f3f DF04     		.2byte	0x4df
 5054 0f41 61000000 		.4byte	0x61
 5055 0f45 5B0B0000 		.4byte	.LLST81
 5056 0f49 27       		.uleb128 0x27
 5057 0f4a D40E0000 		.4byte	0xed4
 5058 0f4e 06000000 		.4byte	.LBB84
 5059 0f52 1E000000 		.4byte	.LBE84
 5060 0f56 01       		.byte	0x1
 5061 0f57 E604     		.2byte	0x4e6
 5062 0f59 22       		.uleb128 0x22
 5063 0f5a E20E0000 		.4byte	0xee2
 5064 0f5e A90B0000 		.4byte	.LLST82
ARM GAS  C:\Users\CHUCK~1.ERH\AppData\Local\Temp\cc506n3q.s 			page 127


 5065 0f62 27       		.uleb128 0x27
 5066 0f63 74010000 		.4byte	0x174
 5067 0f67 06000000 		.4byte	.LBB85
 5068 0f6b 1E000000 		.4byte	.LBE85
 5069 0f6f 01       		.byte	0x1
 5070 0f70 D901     		.2byte	0x1d9
 5071 0f72 22       		.uleb128 0x22
 5072 0f73 8E010000 		.4byte	0x18e
 5073 0f77 A90B0000 		.4byte	.LLST82
 5074 0f7b 2B       		.uleb128 0x2b
 5075 0f7c 06000000 		.4byte	.LBB86
 5076 0f80 1E000000 		.4byte	.LBE86
 5077 0f84 23       		.uleb128 0x23
 5078 0f85 9A010000 		.4byte	0x19a
 5079 0f89 EE0B0000 		.4byte	.LLST84
 5080 0f8d 26       		.uleb128 0x26
 5081 0f8e 82010000 		.4byte	0x182
 5082 0f92 17       		.uleb128 0x17
 5083 0f93 10000000 		.4byte	.LVL175
 5084 0f97 7D050000 		.4byte	0x57d
 5085 0f9b 18       		.uleb128 0x18
 5086 0f9c 01       		.byte	0x1
 5087 0f9d 50       		.byte	0x50
 5088 0f9e 02       		.byte	0x2
 5089 0f9f 74       		.byte	0x74
 5090 0fa0 09       		.sleb128 9
 5091 0fa1 00       		.byte	0
 5092 0fa2 00       		.byte	0
 5093 0fa3 00       		.byte	0
 5094 0fa4 00       		.byte	0
 5095 0fa5 00       		.byte	0
 5096 0fa6 10       		.uleb128 0x10
 5097 0fa7 6F000000 		.4byte	0x6f
 5098 0fab B60F0000 		.4byte	0xfb6
 5099 0faf 11       		.uleb128 0x11
 5100 0fb0 B0000000 		.4byte	0xb0
 5101 0fb4 05       		.byte	0x5
 5102 0fb5 00       		.byte	0
 5103 0fb6 2C       		.uleb128 0x2c
 5104 0fb7 95030000 		.4byte	.LASF139
 5105 0fbb 01       		.byte	0x1
 5106 0fbc FD01     		.2byte	0x1fd
 5107 0fbe 01       		.byte	0x1
 5108 0fbf 85000000 		.4byte	0x85
 5109 0fc3 01       		.byte	0x1
 5110 0fc4 2D       		.uleb128 0x2d
 5111 0fc5 01       		.byte	0x1
 5112 0fc6 9A070000 		.4byte	.LASF78
 5113 0fca 01       		.byte	0x1
 5114 0fcb F504     		.2byte	0x4f5
 5115 0fcd 01       		.byte	0x1
 5116 0fce 00000000 		.4byte	.LFB79
 5117 0fd2 66000000 		.4byte	.LFE79
 5118 0fd6 0D0C0000 		.4byte	.LLST85
 5119 0fda 01       		.byte	0x1
 5120 0fdb 68100000 		.4byte	0x1068
 5121 0fdf 14       		.uleb128 0x14
ARM GAS  C:\Users\CHUCK~1.ERH\AppData\Local\Temp\cc506n3q.s 			page 128


 5122 0fe0 5E060000 		.4byte	.LASF68
 5123 0fe4 01       		.byte	0x1
 5124 0fe5 F504     		.2byte	0x4f5
 5125 0fe7 B7000000 		.4byte	0xb7
 5126 0feb 2D0C0000 		.4byte	.LLST86
 5127 0fef 1E       		.uleb128 0x1e
 5128 0ff0 697000   		.ascii	"ip\000"
 5129 0ff3 01       		.byte	0x1
 5130 0ff4 F704     		.2byte	0x4f7
 5131 0ff6 85000000 		.4byte	0x85
 5132 0ffa 02       		.byte	0x2
 5133 0ffb 91       		.byte	0x91
 5134 0ffc 64       		.sleb128 -28
 5135 0ffd 1C       		.uleb128 0x1c
 5136 0ffe 06050000 		.4byte	.LASF79
 5137 1002 01       		.byte	0x1
 5138 1003 F804     		.2byte	0x4f8
 5139 1005 1F010000 		.4byte	0x11f
 5140 1009 590C0000 		.4byte	.LLST87
 5141 100d 1C       		.uleb128 0x1c
 5142 100e 16070000 		.4byte	.LASF27
 5143 1012 01       		.byte	0x1
 5144 1013 F904     		.2byte	0x4f9
 5145 1015 61000000 		.4byte	0x61
 5146 1019 860C0000 		.4byte	.LLST88
 5147 101d 1C       		.uleb128 0x1c
 5148 101e A0010000 		.4byte	.LASF69
 5149 1022 01       		.byte	0x1
 5150 1023 FA04     		.2byte	0x4fa
 5151 1025 61000000 		.4byte	0x61
 5152 1029 C60C0000 		.4byte	.LLST89
 5153 102d 1C       		.uleb128 0x1c
 5154 102e 5B070000 		.4byte	.LASF80
 5155 1032 01       		.byte	0x1
 5156 1033 FB04     		.2byte	0x4fb
 5157 1035 61000000 		.4byte	0x61
 5158 1039 E50C0000 		.4byte	.LLST90
 5159 103d 1C       		.uleb128 0x1c
 5160 103e B4020000 		.4byte	.LASF81
 5161 1042 01       		.byte	0x1
 5162 1043 FB04     		.2byte	0x4fb
 5163 1045 61000000 		.4byte	0x61
 5164 1049 050D0000 		.4byte	.LLST91
 5165 104d 27       		.uleb128 0x27
 5166 104e B60F0000 		.4byte	0xfb6
 5167 1052 04000000 		.4byte	.LBB89
 5168 1056 08000000 		.4byte	.LBE89
 5169 105a 01       		.byte	0x1
 5170 105b FD04     		.2byte	0x4fd
 5171 105d 19       		.uleb128 0x19
 5172 105e 08000000 		.4byte	.LVL192
 5173 1062 E70B0000 		.4byte	0xbe7
 5174 1066 00       		.byte	0
 5175 1067 00       		.byte	0
 5176 1068 0B       		.uleb128 0xb
 5177 1069 1A000000 		.4byte	.LASF82
 5178 106d 01       		.byte	0x1
ARM GAS  C:\Users\CHUCK~1.ERH\AppData\Local\Temp\cc506n3q.s 			page 129


 5179 106e F701     		.2byte	0x1f7
 5180 1070 01       		.byte	0x1
 5181 1071 01       		.byte	0x1
 5182 1072 82100000 		.4byte	0x1082
 5183 1076 0C       		.uleb128 0xc
 5184 1077 697000   		.ascii	"ip\000"
 5185 107a 01       		.byte	0x1
 5186 107b F701     		.2byte	0x1f7
 5187 107d 85000000 		.4byte	0x85
 5188 1081 00       		.byte	0
 5189 1082 1D       		.uleb128 0x1d
 5190 1083 01       		.byte	0x1
 5191 1084 3C070000 		.4byte	.LASF83
 5192 1088 01       		.byte	0x1
 5193 1089 1805     		.2byte	0x518
 5194 108b 01       		.byte	0x1
 5195 108c 6F000000 		.4byte	0x6f
 5196 1090 00000000 		.4byte	.LFB80
 5197 1094 16000000 		.4byte	.LFE80
 5198 1098 3D0D0000 		.4byte	.LLST92
 5199 109c 01       		.byte	0x1
 5200 109d F0100000 		.4byte	0x10f0
 5201 10a1 15       		.uleb128 0x15
 5202 10a2 697000   		.ascii	"ip\000"
 5203 10a5 01       		.byte	0x1
 5204 10a6 1805     		.2byte	0x518
 5205 10a8 85000000 		.4byte	0x85
 5206 10ac 5D0D0000 		.4byte	.LLST93
 5207 10b0 20       		.uleb128 0x20
 5208 10b1 6F6B00   		.ascii	"ok\000"
 5209 10b4 01       		.byte	0x1
 5210 10b5 1A05     		.2byte	0x51a
 5211 10b7 6F000000 		.4byte	0x6f
 5212 10bb 890D0000 		.4byte	.LLST94
 5213 10bf 27       		.uleb128 0x27
 5214 10c0 68100000 		.4byte	0x1068
 5215 10c4 0C000000 		.4byte	.LBB93
 5216 10c8 14000000 		.4byte	.LBE93
 5217 10cc 01       		.byte	0x1
 5218 10cd 1D05     		.2byte	0x51d
 5219 10cf 22       		.uleb128 0x22
 5220 10d0 76100000 		.4byte	0x1076
 5221 10d4 A80D0000 		.4byte	.LLST95
 5222 10d8 17       		.uleb128 0x17
 5223 10d9 12000000 		.4byte	.LVL216
 5224 10dd A0040000 		.4byte	0x4a0
 5225 10e1 18       		.uleb128 0x18
 5226 10e2 01       		.byte	0x1
 5227 10e3 51       		.byte	0x51
 5228 10e4 03       		.byte	0x3
 5229 10e5 F3       		.byte	0xf3
 5230 10e6 01       		.uleb128 0x1
 5231 10e7 50       		.byte	0x50
 5232 10e8 18       		.uleb128 0x18
 5233 10e9 01       		.byte	0x1
 5234 10ea 50       		.byte	0x50
 5235 10eb 01       		.byte	0x1
ARM GAS  C:\Users\CHUCK~1.ERH\AppData\Local\Temp\cc506n3q.s 			page 130


 5236 10ec 3F       		.byte	0x3f
 5237 10ed 00       		.byte	0
 5238 10ee 00       		.byte	0
 5239 10ef 00       		.byte	0
 5240 10f0 1D       		.uleb128 0x1d
 5241 10f1 01       		.byte	0x1
 5242 10f2 F4040000 		.4byte	.LASF84
 5243 10f6 01       		.byte	0x1
 5244 10f7 2505     		.2byte	0x525
 5245 10f9 01       		.byte	0x1
 5246 10fa 85000000 		.4byte	0x85
 5247 10fe 00000000 		.4byte	.LFB81
 5248 1102 08000000 		.4byte	.LFE81
 5249 1106 C90D0000 		.4byte	.LLST96
 5250 110a 01       		.byte	0x1
 5251 110b 2A110000 		.4byte	0x112a
 5252 110f 27       		.uleb128 0x27
 5253 1110 B60F0000 		.4byte	0xfb6
 5254 1114 02000000 		.4byte	.LBB97
 5255 1118 06000000 		.4byte	.LBE97
 5256 111c 01       		.byte	0x1
 5257 111d 2705     		.2byte	0x527
 5258 111f 19       		.uleb128 0x19
 5259 1120 06000000 		.4byte	.LVL218
 5260 1124 E70B0000 		.4byte	0xbe7
 5261 1128 00       		.byte	0
 5262 1129 00       		.byte	0
 5263 112a 0B       		.uleb128 0xb
 5264 112b DE060000 		.4byte	.LASF85
 5265 112f 01       		.byte	0x1
 5266 1130 D301     		.2byte	0x1d3
 5267 1132 01       		.byte	0x1
 5268 1133 01       		.byte	0x1
 5269 1134 45110000 		.4byte	0x1145
 5270 1138 0C       		.uleb128 0xc
 5271 1139 6D616300 		.ascii	"mac\000"
 5272 113d 01       		.byte	0x1
 5273 113e D301     		.2byte	0x1d3
 5274 1140 1F010000 		.4byte	0x11f
 5275 1144 00       		.byte	0
 5276 1145 13       		.uleb128 0x13
 5277 1146 01       		.byte	0x1
 5278 1147 2A040000 		.4byte	.LASF86
 5279 114b 01       		.byte	0x1
 5280 114c 2B05     		.2byte	0x52b
 5281 114e 01       		.byte	0x1
 5282 114f 00000000 		.4byte	.LFB82
 5283 1153 1A000000 		.4byte	.LFE82
 5284 1157 E90D0000 		.4byte	.LLST97
 5285 115b 01       		.byte	0x1
 5286 115c CD110000 		.4byte	0x11cd
 5287 1160 15       		.uleb128 0x15
 5288 1161 6D616300 		.ascii	"mac\000"
 5289 1165 01       		.byte	0x1
 5290 1166 2B05     		.2byte	0x52b
 5291 1168 1F010000 		.4byte	0x11f
 5292 116c 090E0000 		.4byte	.LLST98
ARM GAS  C:\Users\CHUCK~1.ERH\AppData\Local\Temp\cc506n3q.s 			page 131


 5293 1170 27       		.uleb128 0x27
 5294 1171 2A110000 		.4byte	0x112a
 5295 1175 06000000 		.4byte	.LBB103
 5296 1179 18000000 		.4byte	.LBE103
 5297 117d 01       		.byte	0x1
 5298 117e 2D05     		.2byte	0x52d
 5299 1180 22       		.uleb128 0x22
 5300 1181 38110000 		.4byte	0x1138
 5301 1185 350E0000 		.4byte	.LLST99
 5302 1189 27       		.uleb128 0x27
 5303 118a 41010000 		.4byte	0x141
 5304 118e 06000000 		.4byte	.LBB104
 5305 1192 18000000 		.4byte	.LBE104
 5306 1196 01       		.byte	0x1
 5307 1197 D301     		.2byte	0x1d3
 5308 1199 22       		.uleb128 0x22
 5309 119a 5B010000 		.4byte	0x15b
 5310 119e 350E0000 		.4byte	.LLST99
 5311 11a2 2B       		.uleb128 0x2b
 5312 11a3 06000000 		.4byte	.LBB105
 5313 11a7 18000000 		.4byte	.LBE105
 5314 11ab 23       		.uleb128 0x23
 5315 11ac 67010000 		.4byte	0x167
 5316 11b0 610E0000 		.4byte	.LLST101
 5317 11b4 26       		.uleb128 0x26
 5318 11b5 4F010000 		.4byte	0x14f
 5319 11b9 17       		.uleb128 0x17
 5320 11ba 14000000 		.4byte	.LVL222
 5321 11be 5D030000 		.4byte	0x35d
 5322 11c2 18       		.uleb128 0x18
 5323 11c3 01       		.byte	0x1
 5324 11c4 50       		.byte	0x50
 5325 11c5 02       		.byte	0x2
 5326 11c6 74       		.byte	0x74
 5327 11c7 08       		.sleb128 8
 5328 11c8 00       		.byte	0
 5329 11c9 00       		.byte	0
 5330 11ca 00       		.byte	0
 5331 11cb 00       		.byte	0
 5332 11cc 00       		.byte	0
 5333 11cd 13       		.uleb128 0x13
 5334 11ce 01       		.byte	0x1
 5335 11cf 3C040000 		.4byte	.LASF87
 5336 11d3 01       		.byte	0x1
 5337 11d4 3105     		.2byte	0x531
 5338 11d6 01       		.byte	0x1
 5339 11d7 00000000 		.4byte	.LFB83
 5340 11db 1A000000 		.4byte	.LFE83
 5341 11df 800E0000 		.4byte	.LLST102
 5342 11e3 01       		.byte	0x1
 5343 11e4 55120000 		.4byte	0x1255
 5344 11e8 15       		.uleb128 0x15
 5345 11e9 6D616300 		.ascii	"mac\000"
 5346 11ed 01       		.byte	0x1
 5347 11ee 3105     		.2byte	0x531
 5348 11f0 1F010000 		.4byte	0x11f
 5349 11f4 A00E0000 		.4byte	.LLST103
ARM GAS  C:\Users\CHUCK~1.ERH\AppData\Local\Temp\cc506n3q.s 			page 132


 5350 11f8 27       		.uleb128 0x27
 5351 11f9 D40E0000 		.4byte	0xed4
 5352 11fd 06000000 		.4byte	.LBB110
 5353 1201 18000000 		.4byte	.LBE110
 5354 1205 01       		.byte	0x1
 5355 1206 3305     		.2byte	0x533
 5356 1208 22       		.uleb128 0x22
 5357 1209 E20E0000 		.4byte	0xee2
 5358 120d CC0E0000 		.4byte	.LLST104
 5359 1211 27       		.uleb128 0x27
 5360 1212 74010000 		.4byte	0x174
 5361 1216 06000000 		.4byte	.LBB111
 5362 121a 18000000 		.4byte	.LBE111
 5363 121e 01       		.byte	0x1
 5364 121f D901     		.2byte	0x1d9
 5365 1221 22       		.uleb128 0x22
 5366 1222 8E010000 		.4byte	0x18e
 5367 1226 CC0E0000 		.4byte	.LLST104
 5368 122a 2B       		.uleb128 0x2b
 5369 122b 06000000 		.4byte	.LBB112
 5370 122f 18000000 		.4byte	.LBE112
 5371 1233 23       		.uleb128 0x23
 5372 1234 9A010000 		.4byte	0x19a
 5373 1238 F80E0000 		.4byte	.LLST106
 5374 123c 26       		.uleb128 0x26
 5375 123d 82010000 		.4byte	0x182
 5376 1241 17       		.uleb128 0x17
 5377 1242 10000000 		.4byte	.LVL228
 5378 1246 7D050000 		.4byte	0x57d
 5379 124a 18       		.uleb128 0x18
 5380 124b 01       		.byte	0x1
 5381 124c 50       		.byte	0x50
 5382 124d 02       		.byte	0x2
 5383 124e 74       		.byte	0x74
 5384 124f 09       		.sleb128 9
 5385 1250 00       		.byte	0
 5386 1251 00       		.byte	0
 5387 1252 00       		.byte	0
 5388 1253 00       		.byte	0
 5389 1254 00       		.byte	0
 5390 1255 0B       		.uleb128 0xb
 5391 1256 01010000 		.4byte	.LASF88
 5392 125a 01       		.byte	0x1
 5393 125b BB02     		.2byte	0x2bb
 5394 125d 01       		.byte	0x1
 5395 125e 01       		.byte	0x1
 5396 125f 7C120000 		.4byte	0x127c
 5397 1263 0A       		.uleb128 0xa
 5398 1264 68000000 		.4byte	.LASF23
 5399 1268 01       		.byte	0x1
 5400 1269 BB02     		.2byte	0x2bb
 5401 126b 6F000000 		.4byte	0x6f
 5402 126f 0A       		.uleb128 0xa
 5403 1270 AF020000 		.4byte	.LASF89
 5404 1274 01       		.byte	0x1
 5405 1275 BB02     		.2byte	0x2bb
 5406 1277 7A000000 		.4byte	0x7a
ARM GAS  C:\Users\CHUCK~1.ERH\AppData\Local\Temp\cc506n3q.s 			page 133


 5407 127b 00       		.byte	0
 5408 127c 0B       		.uleb128 0xb
 5409 127d 00000000 		.4byte	.LASF90
 5410 1281 01       		.byte	0x1
 5411 1282 7B02     		.2byte	0x27b
 5412 1284 01       		.byte	0x1
 5413 1285 01       		.byte	0x1
 5414 1286 A3120000 		.4byte	0x12a3
 5415 128a 0A       		.uleb128 0xa
 5416 128b 68000000 		.4byte	.LASF23
 5417 128f 01       		.byte	0x1
 5418 1290 7B02     		.2byte	0x27b
 5419 1292 6F000000 		.4byte	0x6f
 5420 1296 0A       		.uleb128 0xa
 5421 1297 11070000 		.4byte	.LASF30
 5422 129b 01       		.byte	0x1
 5423 129c 7B02     		.2byte	0x27b
 5424 129e 6F000000 		.4byte	0x6f
 5425 12a2 00       		.byte	0
 5426 12a3 1D       		.uleb128 0x1d
 5427 12a4 01       		.byte	0x1
 5428 12a5 9E020000 		.4byte	.LASF91
 5429 12a9 01       		.byte	0x1
 5430 12aa 3B05     		.2byte	0x53b
 5431 12ac 01       		.byte	0x1
 5432 12ad 6F000000 		.4byte	0x6f
 5433 12b1 00000000 		.4byte	.LFB84
 5434 12b5 7C000000 		.4byte	.LFE84
 5435 12b9 170F0000 		.4byte	.LLST107
 5436 12bd 01       		.byte	0x1
 5437 12be A0130000 		.4byte	0x13a0
 5438 12c2 14       		.uleb128 0x14
 5439 12c3 20010000 		.4byte	.LASF18
 5440 12c7 01       		.byte	0x1
 5441 12c8 3B05     		.2byte	0x53b
 5442 12ca 6F000000 		.4byte	0x6f
 5443 12ce 370F0000 		.4byte	.LLST108
 5444 12d2 14       		.uleb128 0x14
 5445 12d3 AF020000 		.4byte	.LASF89
 5446 12d7 01       		.byte	0x1
 5447 12d8 3B05     		.2byte	0x53b
 5448 12da 7A000000 		.4byte	0x7a
 5449 12de 580F0000 		.4byte	.LLST109
 5450 12e2 14       		.uleb128 0x14
 5451 12e3 1C080000 		.4byte	.LASF41
 5452 12e7 01       		.byte	0x1
 5453 12e8 3B05     		.2byte	0x53b
 5454 12ea 6F000000 		.4byte	0x6f
 5455 12ee 790F0000 		.4byte	.LLST110
 5456 12f2 1C       		.uleb128 0x1c
 5457 12f3 68000000 		.4byte	.LASF23
 5458 12f7 01       		.byte	0x1
 5459 12f8 3D05     		.2byte	0x53d
 5460 12fa 6F000000 		.4byte	0x6f
 5461 12fe 9A0F0000 		.4byte	.LLST111
 5462 1302 1C       		.uleb128 0x1c
 5463 1303 16070000 		.4byte	.LASF27
ARM GAS  C:\Users\CHUCK~1.ERH\AppData\Local\Temp\cc506n3q.s 			page 134


 5464 1307 01       		.byte	0x1
 5465 1308 3E05     		.2byte	0x53e
 5466 130a 61000000 		.4byte	0x61
 5467 130e C50F0000 		.4byte	.LLST112
 5468 1312 25       		.uleb128 0x25
 5469 1313 55120000 		.4byte	0x1255
 5470 1317 40000000 		.4byte	.LBB117
 5471 131b 88000000 		.4byte	.Ldebug_ranges0+0x88
 5472 131f 01       		.byte	0x1
 5473 1320 5C05     		.2byte	0x55c
 5474 1322 4A130000 		.4byte	0x134a
 5475 1326 22       		.uleb128 0x22
 5476 1327 6F120000 		.4byte	0x126f
 5477 132b FA0F0000 		.4byte	.LLST113
 5478 132f 22       		.uleb128 0x22
 5479 1330 63120000 		.4byte	0x1263
 5480 1334 0D100000 		.4byte	.LLST114
 5481 1338 17       		.uleb128 0x17
 5482 1339 56000000 		.4byte	.LVL240
 5483 133d 33040000 		.4byte	0x433
 5484 1341 18       		.uleb128 0x18
 5485 1342 01       		.byte	0x1
 5486 1343 50       		.byte	0x50
 5487 1344 03       		.byte	0x3
 5488 1345 77       		.byte	0x77
 5489 1346 8408     		.sleb128 1028
 5490 1348 00       		.byte	0
 5491 1349 00       		.byte	0
 5492 134a 16       		.uleb128 0x16
 5493 134b 7C120000 		.4byte	0x127c
 5494 134f 56000000 		.4byte	.LBB123
 5495 1353 66000000 		.4byte	.LBE123
 5496 1357 01       		.byte	0x1
 5497 1358 5D05     		.2byte	0x55d
 5498 135a 8A130000 		.4byte	0x138a
 5499 135e 22       		.uleb128 0x22
 5500 135f 96120000 		.4byte	0x1296
 5501 1363 20100000 		.4byte	.LLST115
 5502 1367 22       		.uleb128 0x22
 5503 1368 8A120000 		.4byte	0x128a
 5504 136c 38100000 		.4byte	.LLST116
 5505 1370 17       		.uleb128 0x17
 5506 1371 66000000 		.4byte	.LVL241
 5507 1375 5D030000 		.4byte	0x35d
 5508 1379 18       		.uleb128 0x18
 5509 137a 01       		.byte	0x1
 5510 137b 51       		.byte	0x51
 5511 137c 05       		.byte	0x5
 5512 137d 76       		.byte	0x76
 5513 137e 00       		.sleb128 0
 5514 137f 75       		.byte	0x75
 5515 1380 00       		.sleb128 0
 5516 1381 21       		.byte	0x21
 5517 1382 18       		.uleb128 0x18
 5518 1383 01       		.byte	0x1
 5519 1384 50       		.byte	0x50
 5520 1385 02       		.byte	0x2
ARM GAS  C:\Users\CHUCK~1.ERH\AppData\Local\Temp\cc506n3q.s 			page 135


 5521 1386 77       		.byte	0x77
 5522 1387 00       		.sleb128 0
 5523 1388 00       		.byte	0
 5524 1389 00       		.byte	0
 5525 138a 17       		.uleb128 0x17
 5526 138b 6E000000 		.4byte	.LVL242
 5527 138f 210B0000 		.4byte	0xb21
 5528 1393 18       		.uleb128 0x18
 5529 1394 01       		.byte	0x1
 5530 1395 51       		.byte	0x51
 5531 1396 01       		.byte	0x1
 5532 1397 31       		.byte	0x31
 5533 1398 18       		.uleb128 0x18
 5534 1399 01       		.byte	0x1
 5535 139a 50       		.byte	0x50
 5536 139b 02       		.byte	0x2
 5537 139c 74       		.byte	0x74
 5538 139d 00       		.sleb128 0
 5539 139e 00       		.byte	0
 5540 139f 00       		.byte	0
 5541 13a0 21       		.uleb128 0x21
 5542 13a1 25010000 		.4byte	0x125
 5543 13a5 00000000 		.4byte	.LFB85
 5544 13a9 38000000 		.4byte	.LFE85
 5545 13ad 4B100000 		.4byte	.LLST117
 5546 13b1 01       		.byte	0x1
 5547 13b2 2D140000 		.4byte	0x142d
 5548 13b6 22       		.uleb128 0x22
 5549 13b7 34010000 		.4byte	0x134
 5550 13bb 6B100000 		.4byte	.LLST118
 5551 13bf 27       		.uleb128 0x27
 5552 13c0 25010000 		.4byte	0x125
 5553 13c4 08000000 		.4byte	.LBB129
 5554 13c8 2C000000 		.4byte	.LBE129
 5555 13cc 01       		.byte	0x1
 5556 13cd 6405     		.2byte	0x564
 5557 13cf 22       		.uleb128 0x22
 5558 13d0 34010000 		.4byte	0x134
 5559 13d4 8C100000 		.4byte	.LLST119
 5560 13d8 16       		.uleb128 0x16
 5561 13d9 670C0000 		.4byte	0xc67
 5562 13dd 1E000000 		.4byte	.LBB131
 5563 13e1 2C000000 		.4byte	.LBE131
 5564 13e5 01       		.byte	0x1
 5565 13e6 7105     		.2byte	0x571
 5566 13e8 16140000 		.4byte	0x1416
 5567 13ec 22       		.uleb128 0x22
 5568 13ed 810C0000 		.4byte	0xc81
 5569 13f1 AA100000 		.4byte	.LLST120
 5570 13f5 22       		.uleb128 0x22
 5571 13f6 750C0000 		.4byte	0xc75
 5572 13fa BF100000 		.4byte	.LLST121
 5573 13fe 17       		.uleb128 0x17
 5574 13ff 2C000000 		.4byte	.LVL249
 5575 1403 5D030000 		.4byte	0x35d
 5576 1407 18       		.uleb128 0x18
 5577 1408 01       		.byte	0x1
ARM GAS  C:\Users\CHUCK~1.ERH\AppData\Local\Temp\cc506n3q.s 			page 136


 5578 1409 51       		.byte	0x51
 5579 140a 02       		.byte	0x2
 5580 140b 09       		.byte	0x9
 5581 140c FF       		.byte	0xff
 5582 140d 18       		.uleb128 0x18
 5583 140e 01       		.byte	0x1
 5584 140f 50       		.byte	0x50
 5585 1410 03       		.byte	0x3
 5586 1411 74       		.byte	0x74
 5587 1412 8208     		.sleb128 1026
 5588 1414 00       		.byte	0
 5589 1415 00       		.byte	0
 5590 1416 17       		.uleb128 0x17
 5591 1417 1E000000 		.4byte	.LVL247
 5592 141b 210B0000 		.4byte	0xb21
 5593 141f 18       		.uleb128 0x18
 5594 1420 01       		.byte	0x1
 5595 1421 51       		.byte	0x51
 5596 1422 01       		.byte	0x1
 5597 1423 40       		.byte	0x40
 5598 1424 18       		.uleb128 0x18
 5599 1425 01       		.byte	0x1
 5600 1426 50       		.byte	0x50
 5601 1427 02       		.byte	0x2
 5602 1428 74       		.byte	0x74
 5603 1429 00       		.sleb128 0
 5604 142a 00       		.byte	0
 5605 142b 00       		.byte	0
 5606 142c 00       		.byte	0
 5607 142d 0B       		.uleb128 0xb
 5608 142e BC050000 		.4byte	.LASF92
 5609 1432 01       		.byte	0x1
 5610 1433 DF01     		.2byte	0x1df
 5611 1435 01       		.byte	0x1
 5612 1436 01       		.byte	0x1
 5613 1437 47140000 		.4byte	0x1447
 5614 143b 0C       		.uleb128 0xc
 5615 143c 697000   		.ascii	"ip\000"
 5616 143f 01       		.byte	0x1
 5617 1440 DF01     		.2byte	0x1df
 5618 1442 85000000 		.4byte	0x85
 5619 1446 00       		.byte	0
 5620 1447 13       		.uleb128 0x13
 5621 1448 01       		.byte	0x1
 5622 1449 D3030000 		.4byte	.LASF93
 5623 144d 01       		.byte	0x1
 5624 144e 3104     		.2byte	0x431
 5625 1450 01       		.byte	0x1
 5626 1451 00000000 		.4byte	.LFB74
 5627 1455 8C000000 		.4byte	.LFE74
 5628 1459 D2100000 		.4byte	.LLST122
 5629 145d 01       		.byte	0x1
 5630 145e 32170000 		.4byte	0x1732
 5631 1462 15       		.uleb128 0x15
 5632 1463 6D616300 		.ascii	"mac\000"
 5633 1467 01       		.byte	0x1
 5634 1468 3104     		.2byte	0x431
ARM GAS  C:\Users\CHUCK~1.ERH\AppData\Local\Temp\cc506n3q.s 			page 137


 5635 146a 1F010000 		.4byte	0x11f
 5636 146e F2100000 		.4byte	.LLST123
 5637 1472 15       		.uleb128 0x15
 5638 1473 697000   		.ascii	"ip\000"
 5639 1476 01       		.byte	0x1
 5640 1477 3104     		.2byte	0x431
 5641 1479 85000000 		.4byte	0x85
 5642 147d 1E110000 		.4byte	.LLST124
 5643 1481 14       		.uleb128 0x14
 5644 1482 30030000 		.4byte	.LASF94
 5645 1486 01       		.byte	0x1
 5646 1487 3104     		.2byte	0x431
 5647 1489 85000000 		.4byte	0x85
 5648 148d 4A110000 		.4byte	.LLST125
 5649 1491 14       		.uleb128 0x14
 5650 1492 48010000 		.4byte	.LASF95
 5651 1496 01       		.byte	0x1
 5652 1497 3104     		.2byte	0x431
 5653 1499 85000000 		.4byte	0x85
 5654 149d 76110000 		.4byte	.LLST126
 5655 14a1 1C       		.uleb128 0x1c
 5656 14a2 16070000 		.4byte	.LASF27
 5657 14a6 01       		.byte	0x1
 5658 14a7 3804     		.2byte	0x438
 5659 14a9 61000000 		.4byte	0x61
 5660 14ad A2110000 		.4byte	.LLST127
 5661 14b1 16       		.uleb128 0x16
 5662 14b2 FF010000 		.4byte	0x1ff
 5663 14b6 10000000 		.4byte	.LBB153
 5664 14ba 18000000 		.4byte	.LBE153
 5665 14be 01       		.byte	0x1
 5666 14bf 3D04     		.2byte	0x43d
 5667 14c1 EC140000 		.4byte	0x14ec
 5668 14c5 2B       		.uleb128 0x2b
 5669 14c6 10000000 		.4byte	.LBB154
 5670 14ca 18000000 		.4byte	.LBE154
 5671 14ce 2E       		.uleb128 0x2e
 5672 14cf 0D020000 		.4byte	0x20d
 5673 14d3 807F     		.sleb128 -128
 5674 14d5 17       		.uleb128 0x17
 5675 14d6 18000000 		.4byte	.LVL253
 5676 14da 5D030000 		.4byte	0x35d
 5677 14de 18       		.uleb128 0x18
 5678 14df 01       		.byte	0x1
 5679 14e0 51       		.byte	0x51
 5680 14e1 02       		.byte	0x2
 5681 14e2 09       		.byte	0x9
 5682 14e3 80       		.byte	0x80
 5683 14e4 18       		.uleb128 0x18
 5684 14e5 01       		.byte	0x1
 5685 14e6 50       		.byte	0x50
 5686 14e7 01       		.byte	0x1
 5687 14e8 30       		.byte	0x30
 5688 14e9 00       		.byte	0
 5689 14ea 00       		.byte	0
 5690 14eb 00       		.byte	0
 5691 14ec 16       		.uleb128 0x16
ARM GAS  C:\Users\CHUCK~1.ERH\AppData\Local\Temp\cc506n3q.s 			page 138


 5692 14ed 4F020000 		.4byte	0x24f
 5693 14f1 36000000 		.4byte	.LBB155
 5694 14f5 3E000000 		.4byte	.LBE155
 5695 14f9 01       		.byte	0x1
 5696 14fa 4604     		.2byte	0x446
 5697 14fc 26150000 		.4byte	0x1526
 5698 1500 2B       		.uleb128 0x2b
 5699 1501 36000000 		.4byte	.LBB156
 5700 1505 3E000000 		.4byte	.LBE156
 5701 1509 24       		.uleb128 0x24
 5702 150a 5D020000 		.4byte	0x25d
 5703 150e 55       		.byte	0x55
 5704 150f 17       		.uleb128 0x17
 5705 1510 3E000000 		.4byte	.LVL259
 5706 1514 5D030000 		.4byte	0x35d
 5707 1518 18       		.uleb128 0x18
 5708 1519 01       		.byte	0x1
 5709 151a 51       		.byte	0x51
 5710 151b 02       		.byte	0x2
 5711 151c 08       		.byte	0x8
 5712 151d 55       		.byte	0x55
 5713 151e 18       		.uleb128 0x18
 5714 151f 01       		.byte	0x1
 5715 1520 50       		.byte	0x50
 5716 1521 01       		.byte	0x1
 5717 1522 4B       		.byte	0x4b
 5718 1523 00       		.byte	0
 5719 1524 00       		.byte	0
 5720 1525 00       		.byte	0
 5721 1526 16       		.uleb128 0x16
 5722 1527 34020000 		.4byte	0x234
 5723 152b 3E000000 		.4byte	.LBB157
 5724 152f 46000000 		.4byte	.LBE157
 5725 1533 01       		.byte	0x1
 5726 1534 4704     		.2byte	0x447
 5727 1536 60150000 		.4byte	0x1560
 5728 153a 2B       		.uleb128 0x2b
 5729 153b 3E000000 		.4byte	.LBB158
 5730 153f 46000000 		.4byte	.LBE158
 5731 1543 24       		.uleb128 0x24
 5732 1544 42020000 		.4byte	0x242
 5733 1548 55       		.byte	0x55
 5734 1549 17       		.uleb128 0x17
 5735 154a 46000000 		.4byte	.LVL260
 5736 154e 5D030000 		.4byte	0x35d
 5737 1552 18       		.uleb128 0x18
 5738 1553 01       		.byte	0x1
 5739 1554 51       		.byte	0x51
 5740 1555 02       		.byte	0x2
 5741 1556 08       		.byte	0x8
 5742 1557 55       		.byte	0x55
 5743 1558 18       		.uleb128 0x18
 5744 1559 01       		.byte	0x1
 5745 155a 50       		.byte	0x50
 5746 155b 01       		.byte	0x1
 5747 155c 4A       		.byte	0x4a
 5748 155d 00       		.byte	0
ARM GAS  C:\Users\CHUCK~1.ERH\AppData\Local\Temp\cc506n3q.s 			page 139


 5749 155e 00       		.byte	0
 5750 155f 00       		.byte	0
 5751 1560 16       		.uleb128 0x16
 5752 1561 2D140000 		.4byte	0x142d
 5753 1565 46000000 		.4byte	.LBB159
 5754 1569 4E000000 		.4byte	.LBE159
 5755 156d 01       		.byte	0x1
 5756 156e 4904     		.2byte	0x449
 5757 1570 93150000 		.4byte	0x1593
 5758 1574 22       		.uleb128 0x22
 5759 1575 3B140000 		.4byte	0x143b
 5760 1579 E6110000 		.4byte	.LLST128
 5761 157d 17       		.uleb128 0x17
 5762 157e 4E000000 		.4byte	.LVL261
 5763 1582 A0040000 		.4byte	0x4a0
 5764 1586 18       		.uleb128 0x18
 5765 1587 01       		.byte	0x1
 5766 1588 51       		.byte	0x51
 5767 1589 02       		.byte	0x2
 5768 158a 77       		.byte	0x77
 5769 158b 00       		.sleb128 0
 5770 158c 18       		.uleb128 0x18
 5771 158d 01       		.byte	0x1
 5772 158e 50       		.byte	0x50
 5773 158f 01       		.byte	0x1
 5774 1590 31       		.byte	0x31
 5775 1591 00       		.byte	0
 5776 1592 00       		.byte	0
 5777 1593 16       		.uleb128 0x16
 5778 1594 2E0C0000 		.4byte	0xc2e
 5779 1598 4E000000 		.4byte	.LBB161
 5780 159c 56000000 		.4byte	.LBE161
 5781 15a0 01       		.byte	0x1
 5782 15a1 4A04     		.2byte	0x44a
 5783 15a3 C6150000 		.4byte	0x15c6
 5784 15a7 22       		.uleb128 0x22
 5785 15a8 3C0C0000 		.4byte	0xc3c
 5786 15ac 07120000 		.4byte	.LLST129
 5787 15b0 17       		.uleb128 0x17
 5788 15b1 56000000 		.4byte	.LVL262
 5789 15b5 A0040000 		.4byte	0x4a0
 5790 15b9 18       		.uleb128 0x18
 5791 15ba 01       		.byte	0x1
 5792 15bb 51       		.byte	0x51
 5793 15bc 02       		.byte	0x2
 5794 15bd 74       		.byte	0x74
 5795 15be 00       		.sleb128 0
 5796 15bf 18       		.uleb128 0x18
 5797 15c0 01       		.byte	0x1
 5798 15c1 50       		.byte	0x50
 5799 15c2 01       		.byte	0x1
 5800 15c3 35       		.byte	0x35
 5801 15c4 00       		.byte	0
 5802 15c5 00       		.byte	0
 5803 15c6 16       		.uleb128 0x16
 5804 15c7 2A110000 		.4byte	0x112a
 5805 15cb 5C000000 		.4byte	.LBB163
ARM GAS  C:\Users\CHUCK~1.ERH\AppData\Local\Temp\cc506n3q.s 			page 140


 5806 15cf 6E000000 		.4byte	.LBE163
 5807 15d3 01       		.byte	0x1
 5808 15d4 4E04     		.2byte	0x44e
 5809 15d6 26160000 		.4byte	0x1626
 5810 15da 22       		.uleb128 0x22
 5811 15db 38110000 		.4byte	0x1138
 5812 15df 28120000 		.4byte	.LLST130
 5813 15e3 27       		.uleb128 0x27
 5814 15e4 41010000 		.4byte	0x141
 5815 15e8 5C000000 		.4byte	.LBB164
 5816 15ec 6E000000 		.4byte	.LBE164
 5817 15f0 01       		.byte	0x1
 5818 15f1 D301     		.2byte	0x1d3
 5819 15f3 22       		.uleb128 0x22
 5820 15f4 5B010000 		.4byte	0x15b
 5821 15f8 28120000 		.4byte	.LLST130
 5822 15fc 2B       		.uleb128 0x2b
 5823 15fd 5C000000 		.4byte	.LBB165
 5824 1601 6E000000 		.4byte	.LBE165
 5825 1605 23       		.uleb128 0x23
 5826 1606 67010000 		.4byte	0x167
 5827 160a 49120000 		.4byte	.LLST132
 5828 160e 26       		.uleb128 0x26
 5829 160f 4F010000 		.4byte	0x14f
 5830 1613 17       		.uleb128 0x17
 5831 1614 6A000000 		.4byte	.LVL265
 5832 1618 5D030000 		.4byte	0x35d
 5833 161c 18       		.uleb128 0x18
 5834 161d 01       		.byte	0x1
 5835 161e 50       		.byte	0x50
 5836 161f 02       		.byte	0x2
 5837 1620 74       		.byte	0x74
 5838 1621 08       		.sleb128 8
 5839 1622 00       		.byte	0
 5840 1623 00       		.byte	0
 5841 1624 00       		.byte	0
 5842 1625 00       		.byte	0
 5843 1626 16       		.uleb128 0x16
 5844 1627 68100000 		.4byte	0x1068
 5845 162b 6E000000 		.4byte	.LBB166
 5846 162f 76000000 		.4byte	.LBE166
 5847 1633 01       		.byte	0x1
 5848 1634 5004     		.2byte	0x450
 5849 1636 59160000 		.4byte	0x1659
 5850 163a 22       		.uleb128 0x22
 5851 163b 76100000 		.4byte	0x1076
 5852 163f 68120000 		.4byte	.LLST133
 5853 1643 17       		.uleb128 0x17
 5854 1644 76000000 		.4byte	.LVL267
 5855 1648 A0040000 		.4byte	0x4a0
 5856 164c 18       		.uleb128 0x18
 5857 164d 01       		.byte	0x1
 5858 164e 51       		.byte	0x51
 5859 164f 02       		.byte	0x2
 5860 1650 75       		.byte	0x75
 5861 1651 00       		.sleb128 0
 5862 1652 18       		.uleb128 0x18
ARM GAS  C:\Users\CHUCK~1.ERH\AppData\Local\Temp\cc506n3q.s 			page 141


 5863 1653 01       		.byte	0x1
 5864 1654 50       		.byte	0x50
 5865 1655 01       		.byte	0x1
 5866 1656 3F       		.byte	0x3f
 5867 1657 00       		.byte	0
 5868 1658 00       		.byte	0
 5869 1659 16       		.uleb128 0x16
 5870 165a 1A020000 		.4byte	0x21a
 5871 165e 76000000 		.4byte	.LBB168
 5872 1662 7E000000 		.4byte	.LBE168
 5873 1666 01       		.byte	0x1
 5874 1667 5204     		.2byte	0x452
 5875 1669 93160000 		.4byte	0x1693
 5876 166d 2B       		.uleb128 0x2b
 5877 166e 76000000 		.4byte	.LBB169
 5878 1672 7E000000 		.4byte	.LBE169
 5879 1676 2E       		.uleb128 0x2e
 5880 1677 28020000 		.4byte	0x228
 5881 167b 7F       		.sleb128 -1
 5882 167c 17       		.uleb128 0x17
 5883 167d 7E000000 		.4byte	.LVL268
 5884 1681 5D030000 		.4byte	0x35d
 5885 1685 18       		.uleb128 0x18
 5886 1686 01       		.byte	0x1
 5887 1687 51       		.byte	0x51
 5888 1688 02       		.byte	0x2
 5889 1689 09       		.byte	0x9
 5890 168a FF       		.byte	0xff
 5891 168b 18       		.uleb128 0x18
 5892 168c 01       		.byte	0x1
 5893 168d 50       		.byte	0x50
 5894 168e 01       		.byte	0x1
 5895 168f 45       		.byte	0x45
 5896 1690 00       		.byte	0
 5897 1691 00       		.byte	0
 5898 1692 00       		.byte	0
 5899 1693 16       		.uleb128 0x16
 5900 1694 2E0C0000 		.4byte	0xc2e
 5901 1698 7E000000 		.4byte	.LBB170
 5902 169c 86000000 		.4byte	.LBE170
 5903 16a0 01       		.byte	0x1
 5904 16a1 5404     		.2byte	0x454
 5905 16a3 C2160000 		.4byte	0x16c2
 5906 16a7 24       		.uleb128 0x24
 5907 16a8 3C0C0000 		.4byte	0xc3c
 5908 16ac 00       		.byte	0
 5909 16ad 17       		.uleb128 0x17
 5910 16ae 86000000 		.4byte	.LVL269
 5911 16b2 A0040000 		.4byte	0x4a0
 5912 16b6 18       		.uleb128 0x18
 5913 16b7 01       		.byte	0x1
 5914 16b8 51       		.byte	0x51
 5915 16b9 01       		.byte	0x1
 5916 16ba 30       		.byte	0x30
 5917 16bb 18       		.uleb128 0x18
 5918 16bc 01       		.byte	0x1
 5919 16bd 50       		.byte	0x50
ARM GAS  C:\Users\CHUCK~1.ERH\AppData\Local\Temp\cc506n3q.s 			page 142


 5920 16be 01       		.byte	0x1
 5921 16bf 35       		.byte	0x35
 5922 16c0 00       		.byte	0
 5923 16c1 00       		.byte	0
 5924 16c2 1A       		.uleb128 0x1a
 5925 16c3 10000000 		.4byte	.LVL252
 5926 16c7 99220000 		.4byte	0x2299
 5927 16cb D6160000 		.4byte	0x16d6
 5928 16cf 18       		.uleb128 0x18
 5929 16d0 01       		.byte	0x1
 5930 16d1 50       		.byte	0x50
 5931 16d2 02       		.byte	0x2
 5932 16d3 08       		.byte	0x8
 5933 16d4 FA       		.byte	0xfa
 5934 16d5 00       		.byte	0
 5935 16d6 1A       		.uleb128 0x1a
 5936 16d7 1E000000 		.4byte	.LVL254
 5937 16db 99220000 		.4byte	0x2299
 5938 16df E9160000 		.4byte	0x16e9
 5939 16e3 18       		.uleb128 0x18
 5940 16e4 01       		.byte	0x1
 5941 16e5 50       		.byte	0x50
 5942 16e6 01       		.byte	0x1
 5943 16e7 3A       		.byte	0x3a
 5944 16e8 00       		.byte	0
 5945 16e9 1A       		.uleb128 0x1a
 5946 16ea 24000000 		.4byte	.LVL255
 5947 16ee 25010000 		.4byte	0x125
 5948 16f2 FC160000 		.4byte	0x16fc
 5949 16f6 18       		.uleb128 0x18
 5950 16f7 01       		.byte	0x1
 5951 16f8 50       		.byte	0x50
 5952 16f9 01       		.byte	0x1
 5953 16fa 30       		.byte	0x30
 5954 16fb 00       		.byte	0
 5955 16fc 1A       		.uleb128 0x1a
 5956 16fd 2A000000 		.4byte	.LVL256
 5957 1701 25010000 		.4byte	0x125
 5958 1705 0F170000 		.4byte	0x170f
 5959 1709 18       		.uleb128 0x18
 5960 170a 01       		.byte	0x1
 5961 170b 50       		.byte	0x50
 5962 170c 01       		.byte	0x1
 5963 170d 31       		.byte	0x31
 5964 170e 00       		.byte	0
 5965 170f 1A       		.uleb128 0x1a
 5966 1710 30000000 		.4byte	.LVL257
 5967 1714 25010000 		.4byte	0x125
 5968 1718 22170000 		.4byte	0x1722
 5969 171c 18       		.uleb128 0x18
 5970 171d 01       		.byte	0x1
 5971 171e 50       		.byte	0x50
 5972 171f 01       		.byte	0x1
 5973 1720 32       		.byte	0x32
 5974 1721 00       		.byte	0
 5975 1722 17       		.uleb128 0x17
 5976 1723 36000000 		.4byte	.LVL258
ARM GAS  C:\Users\CHUCK~1.ERH\AppData\Local\Temp\cc506n3q.s 			page 143


 5977 1727 25010000 		.4byte	0x125
 5978 172b 18       		.uleb128 0x18
 5979 172c 01       		.byte	0x1
 5980 172d 50       		.byte	0x50
 5981 172e 01       		.byte	0x1
 5982 172f 33       		.byte	0x33
 5983 1730 00       		.byte	0
 5984 1731 00       		.byte	0
 5985 1732 13       		.uleb128 0x13
 5986 1733 01       		.byte	0x1
 5987 1734 BB000000 		.4byte	.LASF96
 5988 1738 01       		.byte	0x1
 5989 1739 5804     		.2byte	0x458
 5990 173b 01       		.byte	0x1
 5991 173c 00000000 		.4byte	.LFB75
 5992 1740 7C000000 		.4byte	.LFE75
 5993 1744 89120000 		.4byte	.LLST134
 5994 1748 01       		.byte	0x1
 5995 1749 17180000 		.4byte	0x1817
 5996 174d 20       		.uleb128 0x20
 5997 174e 697000   		.ascii	"ip\000"
 5998 1751 01       		.byte	0x1
 5999 1752 5A04     		.2byte	0x45a
 6000 1754 85000000 		.4byte	0x85
 6001 1758 A9120000 		.4byte	.LLST135
 6002 175c 1C       		.uleb128 0x1c
 6003 175d 48010000 		.4byte	.LASF95
 6004 1761 01       		.byte	0x1
 6005 1762 5B04     		.2byte	0x45b
 6006 1764 85000000 		.4byte	0x85
 6007 1768 C7120000 		.4byte	.LLST136
 6008 176c 20       		.uleb128 0x20
 6009 176d 73756200 		.ascii	"sub\000"
 6010 1771 01       		.byte	0x1
 6011 1772 5C04     		.2byte	0x45c
 6012 1774 85000000 		.4byte	0x85
 6013 1778 E5120000 		.4byte	.LLST137
 6014 177c 19       		.uleb128 0x19
 6015 177d 0E000000 		.4byte	.LVL274
 6016 1781 C5220000 		.4byte	0x22c5
 6017 1785 1A       		.uleb128 0x1a
 6018 1786 14000000 		.4byte	.LVL275
 6019 178a 99220000 		.4byte	0x2299
 6020 178e 98170000 		.4byte	0x1798
 6021 1792 18       		.uleb128 0x18
 6022 1793 01       		.byte	0x1
 6023 1794 50       		.byte	0x50
 6024 1795 01       		.byte	0x1
 6025 1796 3A       		.byte	0x3a
 6026 1797 00       		.byte	0
 6027 1798 1A       		.uleb128 0x1a
 6028 1799 20000000 		.4byte	.LVL276
 6029 179d 660E0000 		.4byte	0xe66
 6030 17a1 B5170000 		.4byte	0x17b5
 6031 17a5 18       		.uleb128 0x18
 6032 17a6 01       		.byte	0x1
 6033 17a7 51       		.byte	0x51
ARM GAS  C:\Users\CHUCK~1.ERH\AppData\Local\Temp\cc506n3q.s 			page 144


 6034 17a8 02       		.byte	0x2
 6035 17a9 74       		.byte	0x74
 6036 17aa 1C       		.sleb128 28
 6037 17ab 18       		.uleb128 0x18
 6038 17ac 01       		.byte	0x1
 6039 17ad 50       		.byte	0x50
 6040 17ae 05       		.byte	0x5
 6041 17af 03       		.byte	0x3
 6042 17b0 00000000 		.4byte	.LC8
 6043 17b4 00       		.byte	0
 6044 17b5 1A       		.uleb128 0x1a
 6045 17b6 42000000 		.4byte	.LVL277
 6046 17ba C90D0000 		.4byte	0xdc9
 6047 17be CC170000 		.4byte	0x17cc
 6048 17c2 18       		.uleb128 0x18
 6049 17c3 01       		.byte	0x1
 6050 17c4 50       		.byte	0x50
 6051 17c5 05       		.byte	0x5
 6052 17c6 03       		.byte	0x3
 6053 17c7 12000000 		.4byte	.LC11
 6054 17cb 00       		.byte	0
 6055 17cc 1A       		.uleb128 0x1a
 6056 17cd 4A000000 		.4byte	.LVL280
 6057 17d1 C90D0000 		.4byte	0xdc9
 6058 17d5 E3170000 		.4byte	0x17e3
 6059 17d9 18       		.uleb128 0x18
 6060 17da 01       		.byte	0x1
 6061 17db 50       		.byte	0x50
 6062 17dc 05       		.byte	0x5
 6063 17dd 03       		.byte	0x3
 6064 17de 20000000 		.4byte	.LC13
 6065 17e2 00       		.byte	0
 6066 17e3 1A       		.uleb128 0x1a
 6067 17e4 52000000 		.4byte	.LVL283
 6068 17e8 C90D0000 		.4byte	0xdc9
 6069 17ec FA170000 		.4byte	0x17fa
 6070 17f0 18       		.uleb128 0x18
 6071 17f1 01       		.byte	0x1
 6072 17f2 50       		.byte	0x50
 6073 17f3 05       		.byte	0x5
 6074 17f4 03       		.byte	0x3
 6075 17f5 2E000000 		.4byte	.LC15
 6076 17f9 00       		.byte	0
 6077 17fa 17       		.uleb128 0x17
 6078 17fb 60000000 		.4byte	.LVL286
 6079 17ff 47140000 		.4byte	0x1447
 6080 1803 18       		.uleb128 0x18
 6081 1804 01       		.byte	0x1
 6082 1805 52       		.byte	0x52
 6083 1806 02       		.byte	0x2
 6084 1807 75       		.byte	0x75
 6085 1808 00       		.sleb128 0
 6086 1809 18       		.uleb128 0x18
 6087 180a 01       		.byte	0x1
 6088 180b 51       		.byte	0x51
 6089 180c 02       		.byte	0x2
 6090 180d 76       		.byte	0x76
ARM GAS  C:\Users\CHUCK~1.ERH\AppData\Local\Temp\cc506n3q.s 			page 145


 6091 180e 00       		.sleb128 0
 6092 180f 18       		.uleb128 0x18
 6093 1810 01       		.byte	0x1
 6094 1811 50       		.byte	0x50
 6095 1812 02       		.byte	0x2
 6096 1813 74       		.byte	0x74
 6097 1814 1C       		.sleb128 28
 6098 1815 00       		.byte	0
 6099 1816 00       		.byte	0
 6100 1817 1D       		.uleb128 0x1d
 6101 1818 01       		.byte	0x1
 6102 1819 E6050000 		.4byte	.LASF97
 6103 181d 01       		.byte	0x1
 6104 181e 7605     		.2byte	0x576
 6105 1820 01       		.byte	0x1
 6106 1821 6F000000 		.4byte	0x6f
 6107 1825 00000000 		.4byte	.LFB86
 6108 1829 1E000000 		.4byte	.LFE86
 6109 182d 03130000 		.4byte	.LLST138
 6110 1831 01       		.byte	0x1
 6111 1832 8F180000 		.4byte	0x188f
 6112 1836 14       		.uleb128 0x14
 6113 1837 68000000 		.4byte	.LASF23
 6114 183b 01       		.byte	0x1
 6115 183c 7605     		.2byte	0x576
 6116 183e 6F000000 		.4byte	0x6f
 6117 1842 23130000 		.4byte	.LLST139
 6118 1846 1C       		.uleb128 0x1c
 6119 1847 C2070000 		.4byte	.LASF98
 6120 184b 01       		.byte	0x1
 6121 184c 7805     		.2byte	0x578
 6122 184e 6F000000 		.4byte	0x6f
 6123 1852 44130000 		.4byte	.LLST140
 6124 1856 1A       		.uleb128 0x1a
 6125 1857 08000000 		.4byte	.LVL290
 6126 185b 95060000 		.4byte	0x695
 6127 185f 6A180000 		.4byte	0x186a
 6128 1863 18       		.uleb128 0x18
 6129 1864 01       		.byte	0x1
 6130 1865 50       		.byte	0x50
 6131 1866 02       		.byte	0x2
 6132 1867 74       		.byte	0x74
 6133 1868 00       		.sleb128 0
 6134 1869 00       		.byte	0
 6135 186a 1A       		.uleb128 0x1a
 6136 186b 12000000 		.4byte	.LVL292
 6137 186f 25010000 		.4byte	0x125
 6138 1873 7E180000 		.4byte	0x187e
 6139 1877 18       		.uleb128 0x18
 6140 1878 01       		.byte	0x1
 6141 1879 50       		.byte	0x50
 6142 187a 02       		.byte	0x2
 6143 187b 74       		.byte	0x74
 6144 187c 00       		.sleb128 0
 6145 187d 00       		.byte	0
 6146 187e 17       		.uleb128 0x17
 6147 187f 18000000 		.4byte	.LVL293
ARM GAS  C:\Users\CHUCK~1.ERH\AppData\Local\Temp\cc506n3q.s 			page 146


 6148 1883 95060000 		.4byte	0x695
 6149 1887 18       		.uleb128 0x18
 6150 1888 01       		.byte	0x1
 6151 1889 50       		.byte	0x50
 6152 188a 02       		.byte	0x2
 6153 188b 74       		.byte	0x74
 6154 188c 00       		.sleb128 0
 6155 188d 00       		.byte	0
 6156 188e 00       		.byte	0
 6157 188f 1D       		.uleb128 0x1d
 6158 1890 01       		.byte	0x1
 6159 1891 78050000 		.4byte	.LASF99
 6160 1895 01       		.byte	0x1
 6161 1896 8405     		.2byte	0x584
 6162 1898 01       		.byte	0x1
 6163 1899 6F000000 		.4byte	0x6f
 6164 189d 00000000 		.4byte	.LFB87
 6165 18a1 0E000000 		.4byte	.LFE87
 6166 18a5 57130000 		.4byte	.LLST141
 6167 18a9 01       		.byte	0x1
 6168 18aa C8180000 		.4byte	0x18c8
 6169 18ae 14       		.uleb128 0x14
 6170 18af 68000000 		.4byte	.LASF23
 6171 18b3 01       		.byte	0x1
 6172 18b4 8405     		.2byte	0x584
 6173 18b6 6F000000 		.4byte	0x6f
 6174 18ba 77130000 		.4byte	.LLST142
 6175 18be 19       		.uleb128 0x19
 6176 18bf 06000000 		.4byte	.LVL295
 6177 18c3 95060000 		.4byte	0x695
 6178 18c7 00       		.byte	0
 6179 18c8 1D       		.uleb128 0x1d
 6180 18c9 01       		.byte	0x1
 6181 18ca 99040000 		.4byte	.LASF100
 6182 18ce 01       		.byte	0x1
 6183 18cf C005     		.2byte	0x5c0
 6184 18d1 01       		.byte	0x1
 6185 18d2 7A000000 		.4byte	0x7a
 6186 18d6 00000000 		.4byte	.LFB90
 6187 18da 08000000 		.4byte	.LFE90
 6188 18de 98130000 		.4byte	.LLST143
 6189 18e2 01       		.byte	0x1
 6190 18e3 01190000 		.4byte	0x1901
 6191 18e7 14       		.uleb128 0x14
 6192 18e8 68000000 		.4byte	.LASF23
 6193 18ec 01       		.byte	0x1
 6194 18ed C005     		.2byte	0x5c0
 6195 18ef 6F000000 		.4byte	0x6f
 6196 18f3 B8130000 		.4byte	.LLST144
 6197 18f7 19       		.uleb128 0x19
 6198 18f8 06000000 		.4byte	.LVL297
 6199 18fc 8A080000 		.4byte	0x88a
 6200 1900 00       		.byte	0
 6201 1901 1D       		.uleb128 0x1d
 6202 1902 01       		.byte	0x1
 6203 1903 76070000 		.4byte	.LASF101
 6204 1907 01       		.byte	0x1
ARM GAS  C:\Users\CHUCK~1.ERH\AppData\Local\Temp\cc506n3q.s 			page 147


 6205 1908 CA05     		.2byte	0x5ca
 6206 190a 01       		.byte	0x1
 6207 190b 6F000000 		.4byte	0x6f
 6208 190f 00000000 		.4byte	.LFB91
 6209 1913 0E000000 		.4byte	.LFE91
 6210 1917 D9130000 		.4byte	.LLST145
 6211 191b 01       		.byte	0x1
 6212 191c 45190000 		.4byte	0x1945
 6213 1920 14       		.uleb128 0x14
 6214 1921 AF020000 		.4byte	.LASF89
 6215 1925 01       		.byte	0x1
 6216 1926 CA05     		.2byte	0x5ca
 6217 1928 7A000000 		.4byte	0x7a
 6218 192c F9130000 		.4byte	.LLST146
 6219 1930 17       		.uleb128 0x17
 6220 1931 0C000000 		.4byte	.LVL300
 6221 1935 A3120000 		.4byte	0x12a3
 6222 1939 18       		.uleb128 0x18
 6223 193a 01       		.byte	0x1
 6224 193b 52       		.byte	0x52
 6225 193c 01       		.byte	0x1
 6226 193d 30       		.byte	0x30
 6227 193e 18       		.uleb128 0x18
 6228 193f 01       		.byte	0x1
 6229 1940 50       		.byte	0x50
 6230 1941 01       		.byte	0x1
 6231 1942 31       		.byte	0x31
 6232 1943 00       		.byte	0
 6233 1944 00       		.byte	0
 6234 1945 13       		.uleb128 0x13
 6235 1946 01       		.byte	0x1
 6236 1947 EE030000 		.4byte	.LASF102
 6237 194b 01       		.byte	0x1
 6238 194c D005     		.2byte	0x5d0
 6239 194e 01       		.byte	0x1
 6240 194f 00000000 		.4byte	.LFB92
 6241 1953 0E000000 		.4byte	.LFE92
 6242 1957 1A140000 		.4byte	.LLST147
 6243 195b 01       		.byte	0x1
 6244 195c 80190000 		.4byte	0x1980
 6245 1960 14       		.uleb128 0x14
 6246 1961 68000000 		.4byte	.LASF23
 6247 1965 01       		.byte	0x1
 6248 1966 D005     		.2byte	0x5d0
 6249 1968 6F000000 		.4byte	0x6f
 6250 196c 3A140000 		.4byte	.LLST148
 6251 1970 17       		.uleb128 0x17
 6252 1971 0C000000 		.4byte	.LVL302
 6253 1975 210B0000 		.4byte	0xb21
 6254 1979 18       		.uleb128 0x18
 6255 197a 01       		.byte	0x1
 6256 197b 51       		.byte	0x51
 6257 197c 01       		.byte	0x1
 6258 197d 32       		.byte	0x32
 6259 197e 00       		.byte	0
 6260 197f 00       		.byte	0
 6261 1980 13       		.uleb128 0x13
ARM GAS  C:\Users\CHUCK~1.ERH\AppData\Local\Temp\cc506n3q.s 			page 148


 6262 1981 01       		.byte	0x1
 6263 1982 A9070000 		.4byte	.LASF103
 6264 1986 01       		.byte	0x1
 6265 1987 DD05     		.2byte	0x5dd
 6266 1989 01       		.byte	0x1
 6267 198a 00000000 		.4byte	.LFB93
 6268 198e 1C000000 		.4byte	.LFE93
 6269 1992 5B140000 		.4byte	.LLST149
 6270 1996 01       		.byte	0x1
 6271 1997 E3190000 		.4byte	0x19e3
 6272 199b 14       		.uleb128 0x14
 6273 199c 68000000 		.4byte	.LASF23
 6274 19a0 01       		.byte	0x1
 6275 19a1 DD05     		.2byte	0x5dd
 6276 19a3 6F000000 		.4byte	0x6f
 6277 19a7 7B140000 		.4byte	.LLST150
 6278 19ab 1A       		.uleb128 0x1a
 6279 19ac 08000000 		.4byte	.LVL304
 6280 19b0 45190000 		.4byte	0x1945
 6281 19b4 BF190000 		.4byte	0x19bf
 6282 19b8 18       		.uleb128 0x18
 6283 19b9 01       		.byte	0x1
 6284 19ba 50       		.byte	0x50
 6285 19bb 02       		.byte	0x2
 6286 19bc 74       		.byte	0x74
 6287 19bd 00       		.sleb128 0
 6288 19be 00       		.byte	0
 6289 19bf 1A       		.uleb128 0x1a
 6290 19c0 0E000000 		.4byte	.LVL305
 6291 19c4 8F180000 		.4byte	0x188f
 6292 19c8 D3190000 		.4byte	0x19d3
 6293 19cc 18       		.uleb128 0x18
 6294 19cd 01       		.byte	0x1
 6295 19ce 50       		.byte	0x50
 6296 19cf 02       		.byte	0x2
 6297 19d0 74       		.byte	0x74
 6298 19d1 00       		.sleb128 0
 6299 19d2 00       		.byte	0
 6300 19d3 17       		.uleb128 0x17
 6301 19d4 18000000 		.4byte	.LVL306
 6302 19d8 99220000 		.4byte	0x2299
 6303 19dc 18       		.uleb128 0x18
 6304 19dd 01       		.byte	0x1
 6305 19de 50       		.byte	0x50
 6306 19df 01       		.byte	0x1
 6307 19e0 31       		.byte	0x31
 6308 19e1 00       		.byte	0
 6309 19e2 00       		.byte	0
 6310 19e3 0B       		.uleb128 0xb
 6311 19e4 84070000 		.4byte	.LASF104
 6312 19e8 01       		.byte	0x1
 6313 19e9 DB02     		.2byte	0x2db
 6314 19eb 01       		.byte	0x1
 6315 19ec 01       		.byte	0x1
 6316 19ed 091A0000 		.4byte	0x1a09
 6317 19f1 0A       		.uleb128 0xa
 6318 19f2 68000000 		.4byte	.LASF23
ARM GAS  C:\Users\CHUCK~1.ERH\AppData\Local\Temp\cc506n3q.s 			page 149


 6319 19f6 01       		.byte	0x1
 6320 19f7 DB02     		.2byte	0x2db
 6321 19f9 6F000000 		.4byte	0x6f
 6322 19fd 0C       		.uleb128 0xc
 6323 19fe 697000   		.ascii	"ip\000"
 6324 1a01 01       		.byte	0x1
 6325 1a02 DB02     		.2byte	0x2db
 6326 1a04 85000000 		.4byte	0x85
 6327 1a08 00       		.byte	0
 6328 1a09 0B       		.uleb128 0xb
 6329 1a0a C9070000 		.4byte	.LASF105
 6330 1a0e 01       		.byte	0x1
 6331 1a0f EB02     		.2byte	0x2eb
 6332 1a11 01       		.byte	0x1
 6333 1a12 01       		.byte	0x1
 6334 1a13 301A0000 		.4byte	0x1a30
 6335 1a17 0A       		.uleb128 0xa
 6336 1a18 68000000 		.4byte	.LASF23
 6337 1a1c 01       		.byte	0x1
 6338 1a1d EB02     		.2byte	0x2eb
 6339 1a1f 6F000000 		.4byte	0x6f
 6340 1a23 0A       		.uleb128 0xa
 6341 1a24 AF020000 		.4byte	.LASF89
 6342 1a28 01       		.byte	0x1
 6343 1a29 EB02     		.2byte	0x2eb
 6344 1a2b 7A000000 		.4byte	0x7a
 6345 1a2f 00       		.byte	0
 6346 1a30 13       		.uleb128 0x13
 6347 1a31 01       		.byte	0x1
 6348 1a32 10030000 		.4byte	.LASF106
 6349 1a36 01       		.byte	0x1
 6350 1a37 E705     		.2byte	0x5e7
 6351 1a39 01       		.byte	0x1
 6352 1a3a 00000000 		.4byte	.LFB94
 6353 1a3e 7C000000 		.4byte	.LFE94
 6354 1a42 9C140000 		.4byte	.LLST151
 6355 1a46 01       		.byte	0x1
 6356 1a47 D91B0000 		.4byte	0x1bd9
 6357 1a4b 14       		.uleb128 0x14
 6358 1a4c 68000000 		.4byte	.LASF23
 6359 1a50 01       		.byte	0x1
 6360 1a51 E705     		.2byte	0x5e7
 6361 1a53 6F000000 		.4byte	0x6f
 6362 1a57 BC140000 		.4byte	.LLST152
 6363 1a5b 15       		.uleb128 0x15
 6364 1a5c 697000   		.ascii	"ip\000"
 6365 1a5f 01       		.byte	0x1
 6366 1a60 E705     		.2byte	0x5e7
 6367 1a62 85000000 		.4byte	0x85
 6368 1a66 DD140000 		.4byte	.LLST153
 6369 1a6a 14       		.uleb128 0x14
 6370 1a6b AF020000 		.4byte	.LASF89
 6371 1a6f 01       		.byte	0x1
 6372 1a70 E705     		.2byte	0x5e7
 6373 1a72 7A000000 		.4byte	0x7a
 6374 1a76 FE140000 		.4byte	.LLST154
 6375 1a7a 1C       		.uleb128 0x1c
ARM GAS  C:\Users\CHUCK~1.ERH\AppData\Local\Temp\cc506n3q.s 			page 150


 6376 1a7b 08030000 		.4byte	.LASF61
 6377 1a7f 01       		.byte	0x1
 6378 1a80 E905     		.2byte	0x5e9
 6379 1a82 85000000 		.4byte	0x85
 6380 1a86 1F150000 		.4byte	.LLST155
 6381 1a8a 0F       		.uleb128 0xf
 6382 1a8b 697200   		.ascii	"ir\000"
 6383 1a8e 01       		.byte	0x1
 6384 1a8f EA05     		.2byte	0x5ea
 6385 1a91 6F000000 		.4byte	0x6f
 6386 1a95 16       		.uleb128 0x16
 6387 1a96 E3190000 		.4byte	0x19e3
 6388 1a9a 0C000000 		.4byte	.LBB182
 6389 1a9e 18000000 		.4byte	.LBE182
 6390 1aa2 01       		.byte	0x1
 6391 1aa3 ED05     		.2byte	0x5ed
 6392 1aa5 D41A0000 		.4byte	0x1ad4
 6393 1aa9 22       		.uleb128 0x22
 6394 1aaa FD190000 		.4byte	0x19fd
 6395 1aae 55150000 		.4byte	.LLST156
 6396 1ab2 22       		.uleb128 0x22
 6397 1ab3 F1190000 		.4byte	0x19f1
 6398 1ab7 76150000 		.4byte	.LLST157
 6399 1abb 17       		.uleb128 0x17
 6400 1abc 18000000 		.4byte	.LVL311
 6401 1ac0 A0040000 		.4byte	0x4a0
 6402 1ac4 18       		.uleb128 0x18
 6403 1ac5 01       		.byte	0x1
 6404 1ac6 51       		.byte	0x51
 6405 1ac7 03       		.byte	0x3
 6406 1ac8 F3       		.byte	0xf3
 6407 1ac9 01       		.uleb128 0x1
 6408 1aca 51       		.byte	0x51
 6409 1acb 18       		.uleb128 0x18
 6410 1acc 01       		.byte	0x1
 6411 1acd 50       		.byte	0x50
 6412 1ace 03       		.byte	0x3
 6413 1acf 75       		.byte	0x75
 6414 1ad0 8C08     		.sleb128 1036
 6415 1ad2 00       		.byte	0
 6416 1ad3 00       		.byte	0
 6417 1ad4 16       		.uleb128 0x16
 6418 1ad5 091A0000 		.4byte	0x1a09
 6419 1ad9 18000000 		.4byte	.LBB184
 6420 1add 26000000 		.4byte	.LBE184
 6421 1ae1 01       		.byte	0x1
 6422 1ae2 EE05     		.2byte	0x5ee
 6423 1ae4 121B0000 		.4byte	0x1b12
 6424 1ae8 22       		.uleb128 0x22
 6425 1ae9 231A0000 		.4byte	0x1a23
 6426 1aed 94150000 		.4byte	.LLST158
 6427 1af1 22       		.uleb128 0x22
 6428 1af2 171A0000 		.4byte	0x1a17
 6429 1af6 A7150000 		.4byte	.LLST159
 6430 1afa 17       		.uleb128 0x17
 6431 1afb 26000000 		.4byte	.LVL312
 6432 1aff 33040000 		.4byte	0x433
ARM GAS  C:\Users\CHUCK~1.ERH\AppData\Local\Temp\cc506n3q.s 			page 151


 6433 1b03 18       		.uleb128 0x18
 6434 1b04 01       		.byte	0x1
 6435 1b05 51       		.byte	0x51
 6436 1b06 02       		.byte	0x2
 6437 1b07 77       		.byte	0x77
 6438 1b08 00       		.sleb128 0
 6439 1b09 18       		.uleb128 0x18
 6440 1b0a 01       		.byte	0x1
 6441 1b0b 50       		.byte	0x50
 6442 1b0c 03       		.byte	0x3
 6443 1b0d 75       		.byte	0x75
 6444 1b0e 9008     		.sleb128 1040
 6445 1b10 00       		.byte	0
 6446 1b11 00       		.byte	0
 6447 1b12 16       		.uleb128 0x16
 6448 1b13 2E0C0000 		.4byte	0xc2e
 6449 1b17 26000000 		.4byte	.LBB186
 6450 1b1b 30000000 		.4byte	.LBE186
 6451 1b1f 01       		.byte	0x1
 6452 1b20 F005     		.2byte	0x5f0
 6453 1b22 3F1B0000 		.4byte	0x1b3f
 6454 1b26 22       		.uleb128 0x22
 6455 1b27 3C0C0000 		.4byte	0xc3c
 6456 1b2b BA150000 		.4byte	.LLST160
 6457 1b2f 17       		.uleb128 0x17
 6458 1b30 30000000 		.4byte	.LVL314
 6459 1b34 A0040000 		.4byte	0x4a0
 6460 1b38 18       		.uleb128 0x18
 6461 1b39 01       		.byte	0x1
 6462 1b3a 50       		.byte	0x50
 6463 1b3b 01       		.byte	0x1
 6464 1b3c 35       		.byte	0x35
 6465 1b3d 00       		.byte	0
 6466 1b3e 00       		.byte	0
 6467 1b3f 25       		.uleb128 0x25
 6468 1b40 480C0000 		.4byte	0xc48
 6469 1b44 4E000000 		.4byte	.LBB188
 6470 1b48 A8000000 		.4byte	.Ldebug_ranges0+0xa8
 6471 1b4c 01       		.byte	0x1
 6472 1b4d F605     		.2byte	0x5f6
 6473 1b4f 6A1B0000 		.4byte	0x1b6a
 6474 1b53 26       		.uleb128 0x26
 6475 1b54 5A0C0000 		.4byte	0xc5a
 6476 1b58 17       		.uleb128 0x17
 6477 1b59 5A000000 		.4byte	.LVL319
 6478 1b5d 7D050000 		.4byte	0x57d
 6479 1b61 18       		.uleb128 0x18
 6480 1b62 01       		.byte	0x1
 6481 1b63 50       		.byte	0x50
 6482 1b64 03       		.byte	0x3
 6483 1b65 75       		.byte	0x75
 6484 1b66 8208     		.sleb128 1026
 6485 1b68 00       		.byte	0
 6486 1b69 00       		.byte	0
 6487 1b6a 16       		.uleb128 0x16
 6488 1b6b 2E0C0000 		.4byte	0xc2e
 6489 1b6f 62000000 		.4byte	.LBB192
ARM GAS  C:\Users\CHUCK~1.ERH\AppData\Local\Temp\cc506n3q.s 			page 152


 6490 1b73 6A000000 		.4byte	.LBE192
 6491 1b77 01       		.byte	0x1
 6492 1b78 FD05     		.2byte	0x5fd
 6493 1b7a 9C1B0000 		.4byte	0x1b9c
 6494 1b7e 22       		.uleb128 0x22
 6495 1b7f 3C0C0000 		.4byte	0xc3c
 6496 1b83 D1150000 		.4byte	.LLST161
 6497 1b87 17       		.uleb128 0x17
 6498 1b88 6A000000 		.4byte	.LVL322
 6499 1b8c A0040000 		.4byte	0x4a0
 6500 1b90 18       		.uleb128 0x18
 6501 1b91 01       		.byte	0x1
 6502 1b92 51       		.byte	0x51
 6503 1b93 01       		.byte	0x1
 6504 1b94 30       		.byte	0x30
 6505 1b95 18       		.uleb128 0x18
 6506 1b96 01       		.byte	0x1
 6507 1b97 50       		.byte	0x50
 6508 1b98 01       		.byte	0x1
 6509 1b99 35       		.byte	0x35
 6510 1b9a 00       		.byte	0
 6511 1b9b 00       		.byte	0
 6512 1b9c 1A       		.uleb128 0x1a
 6513 1b9d 38000000 		.4byte	.LVL315
 6514 1ba1 210B0000 		.4byte	0xb21
 6515 1ba5 B51B0000 		.4byte	0x1bb5
 6516 1ba9 18       		.uleb128 0x18
 6517 1baa 01       		.byte	0x1
 6518 1bab 51       		.byte	0x51
 6519 1bac 01       		.byte	0x1
 6520 1bad 34       		.byte	0x34
 6521 1bae 18       		.uleb128 0x18
 6522 1baf 01       		.byte	0x1
 6523 1bb0 50       		.byte	0x50
 6524 1bb1 02       		.byte	0x2
 6525 1bb2 76       		.byte	0x76
 6526 1bb3 00       		.sleb128 0
 6527 1bb4 00       		.byte	0
 6528 1bb5 1A       		.uleb128 0x1a
 6529 1bb6 3E000000 		.4byte	.LVL316
 6530 1bba 8F180000 		.4byte	0x188f
 6531 1bbe C91B0000 		.4byte	0x1bc9
 6532 1bc2 18       		.uleb128 0x18
 6533 1bc3 01       		.byte	0x1
 6534 1bc4 50       		.byte	0x50
 6535 1bc5 02       		.byte	0x2
 6536 1bc6 76       		.byte	0x76
 6537 1bc7 00       		.sleb128 0
 6538 1bc8 00       		.byte	0
 6539 1bc9 17       		.uleb128 0x17
 6540 1bca 4E000000 		.4byte	.LVL317
 6541 1bce 99220000 		.4byte	0x2299
 6542 1bd2 18       		.uleb128 0x18
 6543 1bd3 01       		.byte	0x1
 6544 1bd4 50       		.byte	0x50
 6545 1bd5 01       		.byte	0x1
 6546 1bd6 31       		.byte	0x31
ARM GAS  C:\Users\CHUCK~1.ERH\AppData\Local\Temp\cc506n3q.s 			page 153


 6547 1bd7 00       		.byte	0
 6548 1bd8 00       		.byte	0
 6549 1bd9 1D       		.uleb128 0x1d
 6550 1bda 01       		.byte	0x1
 6551 1bdb CE040000 		.4byte	.LASF107
 6552 1bdf 01       		.byte	0x1
 6553 1be0 0206     		.2byte	0x602
 6554 1be2 01       		.byte	0x1
 6555 1be3 6F000000 		.4byte	0x6f
 6556 1be7 00000000 		.4byte	.LFB95
 6557 1beb 08000000 		.4byte	.LFE95
 6558 1bef E5150000 		.4byte	.LLST162
 6559 1bf3 01       		.byte	0x1
 6560 1bf4 121C0000 		.4byte	0x1c12
 6561 1bf8 14       		.uleb128 0x14
 6562 1bf9 68000000 		.4byte	.LASF23
 6563 1bfd 01       		.byte	0x1
 6564 1bfe 0206     		.2byte	0x602
 6565 1c00 6F000000 		.4byte	0x6f
 6566 1c04 05160000 		.4byte	.LLST163
 6567 1c08 19       		.uleb128 0x19
 6568 1c09 06000000 		.4byte	.LVL324
 6569 1c0d 8F180000 		.4byte	0x188f
 6570 1c11 00       		.byte	0
 6571 1c12 13       		.uleb128 0x13
 6572 1c13 01       		.byte	0x1
 6573 1c14 81010000 		.4byte	.LASF108
 6574 1c18 01       		.byte	0x1
 6575 1c19 0606     		.2byte	0x606
 6576 1c1b 01       		.byte	0x1
 6577 1c1c 00000000 		.4byte	.LFB96
 6578 1c20 0A000000 		.4byte	.LFE96
 6579 1c24 26160000 		.4byte	.LLST164
 6580 1c28 01       		.byte	0x1
 6581 1c29 4D1C0000 		.4byte	0x1c4d
 6582 1c2d 14       		.uleb128 0x14
 6583 1c2e 68000000 		.4byte	.LASF23
 6584 1c32 01       		.byte	0x1
 6585 1c33 0606     		.2byte	0x606
 6586 1c35 6F000000 		.4byte	0x6f
 6587 1c39 46160000 		.4byte	.LLST165
 6588 1c3d 17       		.uleb128 0x17
 6589 1c3e 08000000 		.4byte	.LVL326
 6590 1c42 210B0000 		.4byte	0xb21
 6591 1c46 18       		.uleb128 0x18
 6592 1c47 01       		.byte	0x1
 6593 1c48 51       		.byte	0x51
 6594 1c49 01       		.byte	0x1
 6595 1c4a 38       		.byte	0x38
 6596 1c4b 00       		.byte	0
 6597 1c4c 00       		.byte	0
 6598 1c4d 0E       		.uleb128 0xe
 6599 1c4e 6F040000 		.4byte	.LASF109
 6600 1c52 01       		.byte	0x1
 6601 1c53 8E03     		.2byte	0x38e
 6602 1c55 01       		.byte	0x1
 6603 1c56 7A000000 		.4byte	0x7a
ARM GAS  C:\Users\CHUCK~1.ERH\AppData\Local\Temp\cc506n3q.s 			page 154


 6604 1c5a 01       		.byte	0x1
 6605 1c5b 841C0000 		.4byte	0x1c84
 6606 1c5f 0A       		.uleb128 0xa
 6607 1c60 68000000 		.4byte	.LASF23
 6608 1c64 01       		.byte	0x1
 6609 1c65 8E03     		.2byte	0x38e
 6610 1c67 6F000000 		.4byte	0x6f
 6611 1c6b 0D       		.uleb128 0xd
 6612 1c6c D1060000 		.4byte	.LASF53
 6613 1c70 01       		.byte	0x1
 6614 1c71 9003     		.2byte	0x390
 6615 1c73 7A000000 		.4byte	0x7a
 6616 1c77 0D       		.uleb128 0xd
 6617 1c78 A6010000 		.4byte	.LASF54
 6618 1c7c 01       		.byte	0x1
 6619 1c7d 9003     		.2byte	0x390
 6620 1c7f 7A000000 		.4byte	0x7a
 6621 1c83 00       		.byte	0
 6622 1c84 0E       		.uleb128 0xe
 6623 1c85 52000000 		.4byte	.LASF110
 6624 1c89 01       		.byte	0x1
 6625 1c8a 3B03     		.2byte	0x33b
 6626 1c8c 01       		.byte	0x1
 6627 1c8d 7A000000 		.4byte	0x7a
 6628 1c91 01       		.byte	0x1
 6629 1c92 A31C0000 		.4byte	0x1ca3
 6630 1c96 0A       		.uleb128 0xa
 6631 1c97 68000000 		.4byte	.LASF23
 6632 1c9b 01       		.byte	0x1
 6633 1c9c 3B03     		.2byte	0x33b
 6634 1c9e 6F000000 		.4byte	0x6f
 6635 1ca2 00       		.byte	0
 6636 1ca3 1D       		.uleb128 0x1d
 6637 1ca4 01       		.byte	0x1
 6638 1ca5 AD010000 		.4byte	.LASF111
 6639 1ca9 01       		.byte	0x1
 6640 1caa 0C06     		.2byte	0x60c
 6641 1cac 01       		.byte	0x1
 6642 1cad 7A000000 		.4byte	0x7a
 6643 1cb1 00000000 		.4byte	.LFB97
 6644 1cb5 7C000000 		.4byte	.LFE97
 6645 1cb9 67160000 		.4byte	.LLST166
 6646 1cbd 01       		.byte	0x1
 6647 1cbe FE1D0000 		.4byte	0x1dfe
 6648 1cc2 14       		.uleb128 0x14
 6649 1cc3 68000000 		.4byte	.LASF23
 6650 1cc7 01       		.byte	0x1
 6651 1cc8 0C06     		.2byte	0x60c
 6652 1cca 6F000000 		.4byte	0x6f
 6653 1cce 87160000 		.4byte	.LLST167
 6654 1cd2 14       		.uleb128 0x14
 6655 1cd3 2D070000 		.4byte	.LASF28
 6656 1cd7 01       		.byte	0x1
 6657 1cd8 0C06     		.2byte	0x60c
 6658 1cda 1F010000 		.4byte	0x11f
 6659 1cde A8160000 		.4byte	.LLST168
 6660 1ce2 15       		.uleb128 0x15
ARM GAS  C:\Users\CHUCK~1.ERH\AppData\Local\Temp\cc506n3q.s 			page 155


 6661 1ce3 6C656E00 		.ascii	"len\000"
 6662 1ce7 01       		.byte	0x1
 6663 1ce8 0C06     		.2byte	0x60c
 6664 1cea 7A000000 		.4byte	0x7a
 6665 1cee C7160000 		.4byte	.LLST169
 6666 1cf2 1C       		.uleb128 0x1c
 6667 1cf3 44000000 		.4byte	.LASF112
 6668 1cf7 01       		.byte	0x1
 6669 1cf8 0E06     		.2byte	0x60e
 6670 1cfa 7A000000 		.4byte	0x7a
 6671 1cfe E8160000 		.4byte	.LLST170
 6672 1d02 1C       		.uleb128 0x1c
 6673 1d03 4F030000 		.4byte	.LASF113
 6674 1d07 01       		.byte	0x1
 6675 1d08 0F06     		.2byte	0x60f
 6676 1d0a 7A000000 		.4byte	0x7a
 6677 1d0e 48170000 		.4byte	.LLST171
 6678 1d12 1C       		.uleb128 0x1c
 6679 1d13 C2070000 		.4byte	.LASF98
 6680 1d17 01       		.byte	0x1
 6681 1d18 1006     		.2byte	0x610
 6682 1d1a 6F000000 		.4byte	0x6f
 6683 1d1e 66170000 		.4byte	.LLST172
 6684 1d22 25       		.uleb128 0x25
 6685 1d23 4D1C0000 		.4byte	0x1c4d
 6686 1d27 2C000000 		.4byte	.LBB200
 6687 1d2b C0000000 		.4byte	.Ldebug_ranges0+0xc0
 6688 1d2f 01       		.byte	0x1
 6689 1d30 1F06     		.2byte	0x61f
 6690 1d32 A41D0000 		.4byte	0x1da4
 6691 1d36 26       		.uleb128 0x26
 6692 1d37 5F1C0000 		.4byte	0x1c5f
 6693 1d3b 2F       		.uleb128 0x2f
 6694 1d3c E0000000 		.4byte	.Ldebug_ranges0+0xe0
 6695 1d40 30       		.uleb128 0x30
 6696 1d41 6B1C0000 		.4byte	0x1c6b
 6697 1d45 23       		.uleb128 0x23
 6698 1d46 771C0000 		.4byte	0x1c77
 6699 1d4a 84170000 		.4byte	.LLST173
 6700 1d4e 25       		.uleb128 0x25
 6701 1d4f 841C0000 		.4byte	0x1c84
 6702 1d53 2C000000 		.4byte	.LBB202
 6703 1d57 00010000 		.4byte	.Ldebug_ranges0+0x100
 6704 1d5b 01       		.byte	0x1
 6705 1d5c 9503     		.2byte	0x395
 6706 1d5e 7A1D0000 		.4byte	0x1d7a
 6707 1d62 26       		.uleb128 0x26
 6708 1d63 961C0000 		.4byte	0x1c96
 6709 1d67 17       		.uleb128 0x17
 6710 1d68 4C000000 		.4byte	.LVL333
 6711 1d6c CD060000 		.4byte	0x6cd
 6712 1d70 18       		.uleb128 0x18
 6713 1d71 01       		.byte	0x1
 6714 1d72 50       		.byte	0x50
 6715 1d73 04       		.byte	0x4
 6716 1d74 91       		.byte	0x91
 6717 1d75 60       		.sleb128 -32
ARM GAS  C:\Users\CHUCK~1.ERH\AppData\Local\Temp\cc506n3q.s 			page 156


 6718 1d76 94       		.byte	0x94
 6719 1d77 02       		.byte	0x2
 6720 1d78 00       		.byte	0
 6721 1d79 00       		.byte	0
 6722 1d7a 27       		.uleb128 0x27
 6723 1d7b 841C0000 		.4byte	0x1c84
 6724 1d7f 50000000 		.4byte	.LBB208
 6725 1d83 58000000 		.4byte	.LBE208
 6726 1d87 01       		.byte	0x1
 6727 1d88 9703     		.2byte	0x397
 6728 1d8a 26       		.uleb128 0x26
 6729 1d8b 961C0000 		.4byte	0x1c96
 6730 1d8f 17       		.uleb128 0x17
 6731 1d90 56000000 		.4byte	.LVL334
 6732 1d94 CD060000 		.4byte	0x6cd
 6733 1d98 18       		.uleb128 0x18
 6734 1d99 01       		.byte	0x1
 6735 1d9a 50       		.byte	0x50
 6736 1d9b 04       		.byte	0x4
 6737 1d9c 91       		.byte	0x91
 6738 1d9d 60       		.sleb128 -32
 6739 1d9e 94       		.byte	0x94
 6740 1d9f 02       		.byte	0x2
 6741 1da0 00       		.byte	0
 6742 1da1 00       		.byte	0
 6743 1da2 00       		.byte	0
 6744 1da3 00       		.byte	0
 6745 1da4 1A       		.uleb128 0x1a
 6746 1da5 0C000000 		.4byte	.LVL329
 6747 1da9 95060000 		.4byte	0x695
 6748 1dad B81D0000 		.4byte	0x1db8
 6749 1db1 18       		.uleb128 0x18
 6750 1db2 01       		.byte	0x1
 6751 1db3 50       		.byte	0x50
 6752 1db4 02       		.byte	0x2
 6753 1db5 74       		.byte	0x74
 6754 1db6 00       		.sleb128 0
 6755 1db7 00       		.byte	0
 6756 1db8 1A       		.uleb128 0x1a
 6757 1db9 62000000 		.4byte	.LVL336
 6758 1dbd 95060000 		.4byte	0x695
 6759 1dc1 CC1D0000 		.4byte	0x1dcc
 6760 1dc5 18       		.uleb128 0x18
 6761 1dc6 01       		.byte	0x1
 6762 1dc7 50       		.byte	0x50
 6763 1dc8 02       		.byte	0x2
 6764 1dc9 74       		.byte	0x74
 6765 1dca 00       		.sleb128 0
 6766 1dcb 00       		.byte	0
 6767 1dcc 1A       		.uleb128 0x1a
 6768 1dcd 6E000000 		.4byte	.LVL339
 6769 1dd1 76070000 		.4byte	0x776
 6770 1dd5 ED1D0000 		.4byte	0x1ded
 6771 1dd9 18       		.uleb128 0x18
 6772 1dda 01       		.byte	0x1
 6773 1ddb 52       		.byte	0x52
 6774 1ddc 02       		.byte	0x2
ARM GAS  C:\Users\CHUCK~1.ERH\AppData\Local\Temp\cc506n3q.s 			page 157


 6775 1ddd 75       		.byte	0x75
 6776 1dde 00       		.sleb128 0
 6777 1ddf 18       		.uleb128 0x18
 6778 1de0 01       		.byte	0x1
 6779 1de1 51       		.byte	0x51
 6780 1de2 03       		.byte	0x3
 6781 1de3 91       		.byte	0x91
 6782 1de4 64       		.sleb128 -28
 6783 1de5 06       		.byte	0x6
 6784 1de6 18       		.uleb128 0x18
 6785 1de7 01       		.byte	0x1
 6786 1de8 50       		.byte	0x50
 6787 1de9 02       		.byte	0x2
 6788 1dea 74       		.byte	0x74
 6789 1deb 00       		.sleb128 0
 6790 1dec 00       		.byte	0
 6791 1ded 17       		.uleb128 0x17
 6792 1dee 74000000 		.4byte	.LVL340
 6793 1df2 8D0C0000 		.4byte	0xc8d
 6794 1df6 18       		.uleb128 0x18
 6795 1df7 01       		.byte	0x1
 6796 1df8 50       		.byte	0x50
 6797 1df9 02       		.byte	0x2
 6798 1dfa 74       		.byte	0x74
 6799 1dfb 00       		.sleb128 0
 6800 1dfc 00       		.byte	0
 6801 1dfd 00       		.byte	0
 6802 1dfe 1D       		.uleb128 0x1d
 6803 1dff 01       		.byte	0x1
 6804 1e00 D9000000 		.4byte	.LASF114
 6805 1e04 01       		.byte	0x1
 6806 1e05 3406     		.2byte	0x634
 6807 1e07 01       		.byte	0x1
 6808 1e08 7A000000 		.4byte	0x7a
 6809 1e0c 00000000 		.4byte	.LFB98
 6810 1e10 32000000 		.4byte	.LFE98
 6811 1e14 97170000 		.4byte	.LLST174
 6812 1e18 01       		.byte	0x1
 6813 1e19 AD1E0000 		.4byte	0x1ead
 6814 1e1d 14       		.uleb128 0x14
 6815 1e1e 68000000 		.4byte	.LASF23
 6816 1e22 01       		.byte	0x1
 6817 1e23 3406     		.2byte	0x634
 6818 1e25 6F000000 		.4byte	0x6f
 6819 1e29 B7170000 		.4byte	.LLST175
 6820 1e2d 14       		.uleb128 0x14
 6821 1e2e 2D070000 		.4byte	.LASF28
 6822 1e32 01       		.byte	0x1
 6823 1e33 3406     		.2byte	0x634
 6824 1e35 1F010000 		.4byte	0x11f
 6825 1e39 D8170000 		.4byte	.LLST176
 6826 1e3d 14       		.uleb128 0x14
 6827 1e3e D7060000 		.4byte	.LASF37
 6828 1e42 01       		.byte	0x1
 6829 1e43 3406     		.2byte	0x634
 6830 1e45 7A000000 		.4byte	0x7a
 6831 1e49 04180000 		.4byte	.LLST177
ARM GAS  C:\Users\CHUCK~1.ERH\AppData\Local\Temp\cc506n3q.s 			page 158


 6832 1e4d 1C       		.uleb128 0x1c
 6833 1e4e 52040000 		.4byte	.LASF115
 6834 1e52 01       		.byte	0x1
 6835 1e53 3606     		.2byte	0x636
 6836 1e55 7A000000 		.4byte	0x7a
 6837 1e59 25180000 		.4byte	.LLST178
 6838 1e5d 1A       		.uleb128 0x1a
 6839 1e5e 0C000000 		.4byte	.LVL343
 6840 1e62 8A080000 		.4byte	0x88a
 6841 1e66 711E0000 		.4byte	0x1e71
 6842 1e6a 18       		.uleb128 0x18
 6843 1e6b 01       		.byte	0x1
 6844 1e6c 50       		.byte	0x50
 6845 1e6d 02       		.byte	0x2
 6846 1e6e 75       		.byte	0x75
 6847 1e6f 00       		.sleb128 0
 6848 1e70 00       		.byte	0
 6849 1e71 1A       		.uleb128 0x1a
 6850 1e72 26000000 		.4byte	.LVL345
 6851 1e76 DD090000 		.4byte	0x9dd
 6852 1e7a 961E0000 		.4byte	0x1e96
 6853 1e7e 18       		.uleb128 0x18
 6854 1e7f 01       		.byte	0x1
 6855 1e80 53       		.byte	0x53
 6856 1e81 02       		.byte	0x2
 6857 1e82 76       		.byte	0x76
 6858 1e83 00       		.sleb128 0
 6859 1e84 18       		.uleb128 0x18
 6860 1e85 01       		.byte	0x1
 6861 1e86 52       		.byte	0x52
 6862 1e87 02       		.byte	0x2
 6863 1e88 77       		.byte	0x77
 6864 1e89 00       		.sleb128 0
 6865 1e8a 18       		.uleb128 0x18
 6866 1e8b 01       		.byte	0x1
 6867 1e8c 51       		.byte	0x51
 6868 1e8d 01       		.byte	0x1
 6869 1e8e 30       		.byte	0x30
 6870 1e8f 18       		.uleb128 0x18
 6871 1e90 01       		.byte	0x1
 6872 1e91 50       		.byte	0x50
 6873 1e92 02       		.byte	0x2
 6874 1e93 75       		.byte	0x75
 6875 1e94 00       		.sleb128 0
 6876 1e95 00       		.byte	0
 6877 1e96 17       		.uleb128 0x17
 6878 1e97 2E000000 		.4byte	.LVL346
 6879 1e9b 210B0000 		.4byte	0xb21
 6880 1e9f 18       		.uleb128 0x18
 6881 1ea0 01       		.byte	0x1
 6882 1ea1 51       		.byte	0x51
 6883 1ea2 02       		.byte	0x2
 6884 1ea3 08       		.byte	0x8
 6885 1ea4 40       		.byte	0x40
 6886 1ea5 18       		.uleb128 0x18
 6887 1ea6 01       		.byte	0x1
 6888 1ea7 50       		.byte	0x50
ARM GAS  C:\Users\CHUCK~1.ERH\AppData\Local\Temp\cc506n3q.s 			page 159


 6889 1ea8 02       		.byte	0x2
 6890 1ea9 75       		.byte	0x75
 6891 1eaa 00       		.sleb128 0
 6892 1eab 00       		.byte	0
 6893 1eac 00       		.byte	0
 6894 1ead 13       		.uleb128 0x13
 6895 1eae 01       		.byte	0x1
 6896 1eaf 21030000 		.4byte	.LASF116
 6897 1eb3 01       		.byte	0x1
 6898 1eb4 5606     		.2byte	0x656
 6899 1eb6 01       		.byte	0x1
 6900 1eb7 00000000 		.4byte	.LFB99
 6901 1ebb 18000000 		.4byte	.LFE99
 6902 1ebf 59180000 		.4byte	.LLST179
 6903 1ec3 01       		.byte	0x1
 6904 1ec4 131F0000 		.4byte	0x1f13
 6905 1ec8 14       		.uleb128 0x14
 6906 1ec9 68000000 		.4byte	.LASF23
 6907 1ecd 01       		.byte	0x1
 6908 1ece 5606     		.2byte	0x656
 6909 1ed0 6F000000 		.4byte	0x6f
 6910 1ed4 79180000 		.4byte	.LLST180
 6911 1ed8 15       		.uleb128 0x15
 6912 1ed9 73747200 		.ascii	"str\000"
 6913 1edd 01       		.byte	0x1
 6914 1ede 5606     		.2byte	0x656
 6915 1ee0 BD000000 		.4byte	0xbd
 6916 1ee4 9A180000 		.4byte	.LLST181
 6917 1ee8 1A       		.uleb128 0x1a
 6918 1ee9 0C000000 		.4byte	.LVL352
 6919 1eed AD220000 		.4byte	0x22ad
 6920 1ef1 FC1E0000 		.4byte	0x1efc
 6921 1ef5 18       		.uleb128 0x18
 6922 1ef6 01       		.byte	0x1
 6923 1ef7 50       		.byte	0x50
 6924 1ef8 02       		.byte	0x2
 6925 1ef9 74       		.byte	0x74
 6926 1efa 00       		.sleb128 0
 6927 1efb 00       		.byte	0
 6928 1efc 17       		.uleb128 0x17
 6929 1efd 16000000 		.4byte	.LVL353
 6930 1f01 A31C0000 		.4byte	0x1ca3
 6931 1f05 18       		.uleb128 0x18
 6932 1f06 01       		.byte	0x1
 6933 1f07 51       		.byte	0x51
 6934 1f08 02       		.byte	0x2
 6935 1f09 74       		.byte	0x74
 6936 1f0a 00       		.sleb128 0
 6937 1f0b 18       		.uleb128 0x18
 6938 1f0c 01       		.byte	0x1
 6939 1f0d 50       		.byte	0x50
 6940 1f0e 02       		.byte	0x2
 6941 1f0f 75       		.byte	0x75
 6942 1f10 00       		.sleb128 0
 6943 1f11 00       		.byte	0
 6944 1f12 00       		.byte	0
 6945 1f13 1D       		.uleb128 0x1d
ARM GAS  C:\Users\CHUCK~1.ERH\AppData\Local\Temp\cc506n3q.s 			page 160


 6946 1f14 01       		.byte	0x1
 6947 1f15 3A010000 		.4byte	.LASF117
 6948 1f19 01       		.byte	0x1
 6949 1f1a 6006     		.2byte	0x660
 6950 1f1c 01       		.byte	0x1
 6951 1f1d 6F000000 		.4byte	0x6f
 6952 1f21 00000000 		.4byte	.LFB100
 6953 1f25 0E000000 		.4byte	.LFE100
 6954 1f29 C6180000 		.4byte	.LLST182
 6955 1f2d 01       		.byte	0x1
 6956 1f2e 571F0000 		.4byte	0x1f57
 6957 1f32 14       		.uleb128 0x14
 6958 1f33 AF020000 		.4byte	.LASF89
 6959 1f37 01       		.byte	0x1
 6960 1f38 6006     		.2byte	0x660
 6961 1f3a 7A000000 		.4byte	0x7a
 6962 1f3e E6180000 		.4byte	.LLST183
 6963 1f42 17       		.uleb128 0x17
 6964 1f43 0C000000 		.4byte	.LVL357
 6965 1f47 A3120000 		.4byte	0x12a3
 6966 1f4b 18       		.uleb128 0x18
 6967 1f4c 01       		.byte	0x1
 6968 1f4d 52       		.byte	0x52
 6969 1f4e 01       		.byte	0x1
 6970 1f4f 30       		.byte	0x30
 6971 1f50 18       		.uleb128 0x18
 6972 1f51 01       		.byte	0x1
 6973 1f52 50       		.byte	0x50
 6974 1f53 01       		.byte	0x1
 6975 1f54 32       		.byte	0x32
 6976 1f55 00       		.byte	0
 6977 1f56 00       		.byte	0
 6978 1f57 1D       		.uleb128 0x1d
 6979 1f58 01       		.byte	0x1
 6980 1f59 60070000 		.4byte	.LASF118
 6981 1f5d 01       		.byte	0x1
 6982 1f5e 6606     		.2byte	0x666
 6983 1f60 01       		.byte	0x1
 6984 1f61 7A000000 		.4byte	0x7a
 6985 1f65 00000000 		.4byte	.LFB101
 6986 1f69 60000000 		.4byte	.LFE101
 6987 1f6d 07190000 		.4byte	.LLST184
 6988 1f71 01       		.byte	0x1
 6989 1f72 99200000 		.4byte	0x2099
 6990 1f76 14       		.uleb128 0x14
 6991 1f77 68000000 		.4byte	.LASF23
 6992 1f7b 01       		.byte	0x1
 6993 1f7c 6606     		.2byte	0x666
 6994 1f7e 6F000000 		.4byte	0x6f
 6995 1f82 27190000 		.4byte	.LLST185
 6996 1f86 15       		.uleb128 0x15
 6997 1f87 697000   		.ascii	"ip\000"
 6998 1f8a 01       		.byte	0x1
 6999 1f8b 6606     		.2byte	0x666
 7000 1f8d 85000000 		.4byte	0x85
 7001 1f91 48190000 		.4byte	.LLST186
 7002 1f95 14       		.uleb128 0x14
ARM GAS  C:\Users\CHUCK~1.ERH\AppData\Local\Temp\cc506n3q.s 			page 161


 7003 1f96 AF020000 		.4byte	.LASF89
 7004 1f9a 01       		.byte	0x1
 7005 1f9b 6606     		.2byte	0x666
 7006 1f9d 7A000000 		.4byte	0x7a
 7007 1fa1 7F190000 		.4byte	.LLST187
 7008 1fa5 14       		.uleb128 0x14
 7009 1fa6 2D070000 		.4byte	.LASF28
 7010 1faa 01       		.byte	0x1
 7011 1fab 6606     		.2byte	0x666
 7012 1fad 1F010000 		.4byte	0x11f
 7013 1fb1 A0190000 		.4byte	.LLST188
 7014 1fb5 31       		.uleb128 0x31
 7015 1fb6 D7060000 		.4byte	.LASF37
 7016 1fba 01       		.byte	0x1
 7017 1fbb 6606     		.2byte	0x666
 7018 1fbd 7A000000 		.4byte	0x7a
 7019 1fc1 02       		.byte	0x2
 7020 1fc2 91       		.byte	0x91
 7021 1fc3 00       		.sleb128 0
 7022 1fc4 1C       		.uleb128 0x1c
 7023 1fc5 44000000 		.4byte	.LASF112
 7024 1fc9 01       		.byte	0x1
 7025 1fca 6806     		.2byte	0x668
 7026 1fcc 7A000000 		.4byte	0x7a
 7027 1fd0 CB190000 		.4byte	.LLST189
 7028 1fd4 25       		.uleb128 0x25
 7029 1fd5 E3190000 		.4byte	0x19e3
 7030 1fd9 2A000000 		.4byte	.LBB218
 7031 1fdd 20010000 		.4byte	.Ldebug_ranges0+0x120
 7032 1fe1 01       		.byte	0x1
 7033 1fe2 7A06     		.2byte	0x67a
 7034 1fe4 0F200000 		.4byte	0x200f
 7035 1fe8 26       		.uleb128 0x26
 7036 1fe9 FD190000 		.4byte	0x19fd
 7037 1fed 22       		.uleb128 0x22
 7038 1fee F1190000 		.4byte	0x19f1
 7039 1ff2 2D1A0000 		.4byte	.LLST190
 7040 1ff6 17       		.uleb128 0x17
 7041 1ff7 3A000000 		.4byte	.LVL364
 7042 1ffb A0040000 		.4byte	0x4a0
 7043 1fff 18       		.uleb128 0x18
 7044 2000 01       		.byte	0x1
 7045 2001 51       		.byte	0x51
 7046 2002 03       		.byte	0x3
 7047 2003 F3       		.byte	0xf3
 7048 2004 01       		.uleb128 0x1
 7049 2005 51       		.byte	0x51
 7050 2006 18       		.uleb128 0x18
 7051 2007 01       		.byte	0x1
 7052 2008 50       		.byte	0x50
 7053 2009 03       		.byte	0x3
 7054 200a 76       		.byte	0x76
 7055 200b 8C08     		.sleb128 1036
 7056 200d 00       		.byte	0
 7057 200e 00       		.byte	0
 7058 200f 25       		.uleb128 0x25
 7059 2010 091A0000 		.4byte	0x1a09
ARM GAS  C:\Users\CHUCK~1.ERH\AppData\Local\Temp\cc506n3q.s 			page 162


 7060 2014 34000000 		.4byte	.LBB221
 7061 2018 38010000 		.4byte	.Ldebug_ranges0+0x138
 7062 201c 01       		.byte	0x1
 7063 201d 7B06     		.2byte	0x67b
 7064 201f 53200000 		.4byte	0x2053
 7065 2023 22       		.uleb128 0x22
 7066 2024 231A0000 		.4byte	0x1a23
 7067 2028 401A0000 		.4byte	.LLST191
 7068 202c 22       		.uleb128 0x22
 7069 202d 171A0000 		.4byte	0x1a17
 7070 2031 2D1A0000 		.4byte	.LLST190
 7071 2035 17       		.uleb128 0x17
 7072 2036 48000000 		.4byte	.LVL366
 7073 203a 33040000 		.4byte	0x433
 7074 203e 18       		.uleb128 0x18
 7075 203f 01       		.byte	0x1
 7076 2040 51       		.byte	0x51
 7077 2041 04       		.byte	0x4
 7078 2042 91       		.byte	0x91
 7079 2043 60       		.sleb128 -32
 7080 2044 94       		.byte	0x94
 7081 2045 02       		.byte	0x2
 7082 2046 18       		.uleb128 0x18
 7083 2047 01       		.byte	0x1
 7084 2048 50       		.byte	0x50
 7085 2049 07       		.byte	0x7
 7086 204a 77       		.byte	0x77
 7087 204b 00       		.sleb128 0
 7088 204c 33       		.byte	0x33
 7089 204d 24       		.byte	0x24
 7090 204e 76       		.byte	0x76
 7091 204f 00       		.sleb128 0
 7092 2050 22       		.byte	0x22
 7093 2051 00       		.byte	0
 7094 2052 00       		.byte	0
 7095 2053 1A       		.uleb128 0x1a
 7096 2054 12000000 		.4byte	.LVL360
 7097 2058 95060000 		.4byte	0x695
 7098 205c 67200000 		.4byte	0x2067
 7099 2060 18       		.uleb128 0x18
 7100 2061 01       		.byte	0x1
 7101 2062 50       		.byte	0x50
 7102 2063 02       		.byte	0x2
 7103 2064 74       		.byte	0x74
 7104 2065 00       		.sleb128 0
 7105 2066 00       		.byte	0
 7106 2067 1A       		.uleb128 0x1a
 7107 2068 52000000 		.4byte	.LVL367
 7108 206c 76070000 		.4byte	0x776
 7109 2070 88200000 		.4byte	0x2088
 7110 2074 18       		.uleb128 0x18
 7111 2075 01       		.byte	0x1
 7112 2076 52       		.byte	0x52
 7113 2077 02       		.byte	0x2
 7114 2078 75       		.byte	0x75
 7115 2079 00       		.sleb128 0
 7116 207a 18       		.uleb128 0x18
ARM GAS  C:\Users\CHUCK~1.ERH\AppData\Local\Temp\cc506n3q.s 			page 163


 7117 207b 01       		.byte	0x1
 7118 207c 51       		.byte	0x51
 7119 207d 03       		.byte	0x3
 7120 207e 91       		.byte	0x91
 7121 207f 64       		.sleb128 -28
 7122 2080 06       		.byte	0x6
 7123 2081 18       		.uleb128 0x18
 7124 2082 01       		.byte	0x1
 7125 2083 50       		.byte	0x50
 7126 2084 02       		.byte	0x2
 7127 2085 74       		.byte	0x74
 7128 2086 00       		.sleb128 0
 7129 2087 00       		.byte	0
 7130 2088 17       		.uleb128 0x17
 7131 2089 58000000 		.4byte	.LVL368
 7132 208d 8D0C0000 		.4byte	0xc8d
 7133 2091 18       		.uleb128 0x18
 7134 2092 01       		.byte	0x1
 7135 2093 50       		.byte	0x50
 7136 2094 02       		.byte	0x2
 7137 2095 74       		.byte	0x74
 7138 2096 00       		.sleb128 0
 7139 2097 00       		.byte	0
 7140 2098 00       		.byte	0
 7141 2099 1D       		.uleb128 0x1d
 7142 209a 01       		.byte	0x1
 7143 209b 29020000 		.4byte	.LASF119
 7144 209f 01       		.byte	0x1
 7145 20a0 8F06     		.2byte	0x68f
 7146 20a2 01       		.byte	0x1
 7147 20a3 7A000000 		.4byte	0x7a
 7148 20a7 00000000 		.4byte	.LFB102
 7149 20ab 8C000000 		.4byte	.LFE102
 7150 20af 541A0000 		.4byte	.LLST193
 7151 20b3 01       		.byte	0x1
 7152 20b4 BE210000 		.4byte	0x21be
 7153 20b8 14       		.uleb128 0x14
 7154 20b9 68000000 		.4byte	.LASF23
 7155 20bd 01       		.byte	0x1
 7156 20be 8F06     		.2byte	0x68f
 7157 20c0 6F000000 		.4byte	0x6f
 7158 20c4 801A0000 		.4byte	.LLST194
 7159 20c8 15       		.uleb128 0x15
 7160 20c9 697000   		.ascii	"ip\000"
 7161 20cc 01       		.byte	0x1
 7162 20cd 8F06     		.2byte	0x68f
 7163 20cf F9010000 		.4byte	0x1f9
 7164 20d3 A11A0000 		.4byte	.LLST195
 7165 20d7 14       		.uleb128 0x14
 7166 20d8 AF020000 		.4byte	.LASF89
 7167 20dc 01       		.byte	0x1
 7168 20dd 8F06     		.2byte	0x68f
 7169 20df BE210000 		.4byte	0x21be
 7170 20e3 CD1A0000 		.4byte	.LLST196
 7171 20e7 14       		.uleb128 0x14
 7172 20e8 2D070000 		.4byte	.LASF28
 7173 20ec 01       		.byte	0x1
ARM GAS  C:\Users\CHUCK~1.ERH\AppData\Local\Temp\cc506n3q.s 			page 164


 7174 20ed 8F06     		.2byte	0x68f
 7175 20ef 1F010000 		.4byte	0x11f
 7176 20f3 F81A0000 		.4byte	.LLST197
 7177 20f7 31       		.uleb128 0x31
 7178 20f8 D7060000 		.4byte	.LASF37
 7179 20fc 01       		.byte	0x1
 7180 20fd 8F06     		.2byte	0x68f
 7181 20ff 7A000000 		.4byte	0x7a
 7182 2103 02       		.byte	0x2
 7183 2104 91       		.byte	0x91
 7184 2105 00       		.sleb128 0
 7185 2106 1C       		.uleb128 0x1c
 7186 2107 52040000 		.4byte	.LASF115
 7187 210b 01       		.byte	0x1
 7188 210c 9106     		.2byte	0x691
 7189 210e 7A000000 		.4byte	0x7a
 7190 2112 231B0000 		.4byte	.LLST198
 7191 2116 1C       		.uleb128 0x1c
 7192 2117 6F000000 		.4byte	.LASF120
 7193 211b 01       		.byte	0x1
 7194 211c 9206     		.2byte	0x692
 7195 211e 7A000000 		.4byte	0x7a
 7196 2122 6F1B0000 		.4byte	.LLST199
 7197 2126 29       		.uleb128 0x29
 7198 2127 91020000 		.4byte	.LASF121
 7199 212b 01       		.byte	0x1
 7200 212c 9306     		.2byte	0x693
 7201 212e C4210000 		.4byte	0x21c4
 7202 2132 02       		.byte	0x2
 7203 2133 91       		.byte	0x91
 7204 2134 60       		.sleb128 -32
 7205 2135 1A       		.uleb128 0x1a
 7206 2136 14000000 		.4byte	.LVL372
 7207 213a 95060000 		.4byte	0x695
 7208 213e 49210000 		.4byte	0x2149
 7209 2142 18       		.uleb128 0x18
 7210 2143 01       		.byte	0x1
 7211 2144 50       		.byte	0x50
 7212 2145 02       		.byte	0x2
 7213 2146 74       		.byte	0x74
 7214 2147 00       		.sleb128 0
 7215 2148 00       		.byte	0
 7216 2149 1A       		.uleb128 0x1a
 7217 214a 22000000 		.4byte	.LVL375
 7218 214e 8A080000 		.4byte	0x88a
 7219 2152 5D210000 		.4byte	0x215d
 7220 2156 18       		.uleb128 0x18
 7221 2157 01       		.byte	0x1
 7222 2158 50       		.byte	0x50
 7223 2159 02       		.byte	0x2
 7224 215a 74       		.byte	0x74
 7225 215b 00       		.sleb128 0
 7226 215c 00       		.byte	0
 7227 215d 1A       		.uleb128 0x1a
 7228 215e 3E000000 		.4byte	.LVL379
 7229 2162 DD090000 		.4byte	0x9dd
 7230 2166 81210000 		.4byte	0x2181
ARM GAS  C:\Users\CHUCK~1.ERH\AppData\Local\Temp\cc506n3q.s 			page 165


 7231 216a 18       		.uleb128 0x18
 7232 216b 01       		.byte	0x1
 7233 216c 53       		.byte	0x53
 7234 216d 01       		.byte	0x1
 7235 216e 38       		.byte	0x38
 7236 216f 18       		.uleb128 0x18
 7237 2170 01       		.byte	0x1
 7238 2171 52       		.byte	0x52
 7239 2172 02       		.byte	0x2
 7240 2173 91       		.byte	0x91
 7241 2174 60       		.sleb128 -32
 7242 2175 18       		.uleb128 0x18
 7243 2176 01       		.byte	0x1
 7244 2177 51       		.byte	0x51
 7245 2178 01       		.byte	0x1
 7246 2179 30       		.byte	0x30
 7247 217a 18       		.uleb128 0x18
 7248 217b 01       		.byte	0x1
 7249 217c 50       		.byte	0x50
 7250 217d 02       		.byte	0x2
 7251 217e 74       		.byte	0x74
 7252 217f 00       		.sleb128 0
 7253 2180 00       		.byte	0
 7254 2181 1A       		.uleb128 0x1a
 7255 2182 7C000000 		.4byte	.LVL382
 7256 2186 DD090000 		.4byte	0x9dd
 7257 218a A7210000 		.4byte	0x21a7
 7258 218e 18       		.uleb128 0x18
 7259 218f 01       		.byte	0x1
 7260 2190 53       		.byte	0x53
 7261 2191 02       		.byte	0x2
 7262 2192 77       		.byte	0x77
 7263 2193 00       		.sleb128 0
 7264 2194 18       		.uleb128 0x18
 7265 2195 01       		.byte	0x1
 7266 2196 52       		.byte	0x52
 7267 2197 03       		.byte	0x3
 7268 2198 91       		.byte	0x91
 7269 2199 5C       		.sleb128 -36
 7270 219a 06       		.byte	0x6
 7271 219b 18       		.uleb128 0x18
 7272 219c 01       		.byte	0x1
 7273 219d 51       		.byte	0x51
 7274 219e 01       		.byte	0x1
 7275 219f 38       		.byte	0x38
 7276 21a0 18       		.uleb128 0x18
 7277 21a1 01       		.byte	0x1
 7278 21a2 50       		.byte	0x50
 7279 21a3 02       		.byte	0x2
 7280 21a4 74       		.byte	0x74
 7281 21a5 00       		.sleb128 0
 7282 21a6 00       		.byte	0
 7283 21a7 17       		.uleb128 0x17
 7284 21a8 84000000 		.4byte	.LVL383
 7285 21ac 210B0000 		.4byte	0xb21
 7286 21b0 18       		.uleb128 0x18
 7287 21b1 01       		.byte	0x1
ARM GAS  C:\Users\CHUCK~1.ERH\AppData\Local\Temp\cc506n3q.s 			page 166


 7288 21b2 51       		.byte	0x51
 7289 21b3 02       		.byte	0x2
 7290 21b4 08       		.byte	0x8
 7291 21b5 40       		.byte	0x40
 7292 21b6 18       		.uleb128 0x18
 7293 21b7 01       		.byte	0x1
 7294 21b8 50       		.byte	0x50
 7295 21b9 02       		.byte	0x2
 7296 21ba 74       		.byte	0x74
 7297 21bb 00       		.sleb128 0
 7298 21bc 00       		.byte	0
 7299 21bd 00       		.byte	0
 7300 21be 05       		.uleb128 0x5
 7301 21bf 04       		.byte	0x4
 7302 21c0 7A000000 		.4byte	0x7a
 7303 21c4 10       		.uleb128 0x10
 7304 21c5 6F000000 		.4byte	0x6f
 7305 21c9 D4210000 		.4byte	0x21d4
 7306 21cd 11       		.uleb128 0x11
 7307 21ce B0000000 		.4byte	0xb0
 7308 21d2 07       		.byte	0x7
 7309 21d3 00       		.byte	0
 7310 21d4 10       		.uleb128 0x10
 7311 21d5 14010000 		.4byte	0x114
 7312 21d9 E4210000 		.4byte	0x21e4
 7313 21dd 11       		.uleb128 0x11
 7314 21de B0000000 		.4byte	0xb0
 7315 21e2 03       		.byte	0x3
 7316 21e3 00       		.byte	0
 7317 21e4 32       		.uleb128 0x32
 7318 21e5 E1040000 		.4byte	.LASF122
 7319 21e9 01       		.byte	0x1
 7320 21ea 39       		.byte	0x39
 7321 21eb D4210000 		.4byte	0x21d4
 7322 21ef 05       		.byte	0x5
 7323 21f0 03       		.byte	0x3
 7324 21f1 04000000 		.4byte	W5100_SocketConfig
 7325 21f5 32       		.uleb128 0x32
 7326 21f6 05060000 		.4byte	.LASF123
 7327 21fa 01       		.byte	0x1
 7328 21fb 3A       		.byte	0x3a
 7329 21fc 85000000 		.4byte	0x85
 7330 2200 05       		.byte	0x5
 7331 2201 03       		.byte	0x3
 7332 2202 00000000 		.4byte	W5100_SubnetMask
 7333 2206 32       		.uleb128 0x32
 7334 2207 2B080000 		.4byte	.LASF124
 7335 220b 01       		.byte	0x1
 7336 220c 3C       		.byte	0x3c
 7337 220d A60F0000 		.4byte	0xfa6
 7338 2211 05       		.byte	0x5
 7339 2212 03       		.byte	0x3
 7340 2213 1C000000 		.4byte	W5100_MAC
 7341 2217 33       		.uleb128 0x33
 7342 2218 59040000 		.4byte	.LASF140
 7343 221c 01       		.byte	0x1
 7344 221d 2C       		.byte	0x2c
ARM GAS  C:\Users\CHUCK~1.ERH\AppData\Local\Temp\cc506n3q.s 			page 167


 7345 221e 6F000000 		.4byte	0x6f
 7346 2222 01       		.byte	0x1
 7347 2223 01       		.byte	0x1
 7348 2224 34       		.uleb128 0x34
 7349 2225 01       		.byte	0x1
 7350 2226 A7030000 		.4byte	.LASF126
 7351 222a 04       		.byte	0x4
 7352 222b 1801     		.2byte	0x118
 7353 222d 01       		.byte	0x1
 7354 222e 01       		.byte	0x1
 7355 222f 39220000 		.4byte	0x2239
 7356 2233 35       		.uleb128 0x35
 7357 2234 85000000 		.4byte	0x85
 7358 2238 00       		.byte	0
 7359 2239 36       		.uleb128 0x36
 7360 223a 01       		.byte	0x1
 7361 223b BF040000 		.4byte	.LASF129
 7362 223f 06       		.byte	0x6
 7363 2240 20       		.byte	0x20
 7364 2241 01       		.byte	0x1
 7365 2242 6F000000 		.4byte	0x6f
 7366 2246 01       		.byte	0x1
 7367 2247 37       		.uleb128 0x37
 7368 2248 01       		.byte	0x1
 7369 2249 18020000 		.4byte	.LASF127
 7370 224d 05       		.byte	0x5
 7371 224e 6D       		.byte	0x6d
 7372 224f 01       		.byte	0x1
 7373 2250 01       		.byte	0x1
 7374 2251 5B220000 		.4byte	0x225b
 7375 2255 35       		.uleb128 0x35
 7376 2256 7A000000 		.4byte	0x7a
 7377 225a 00       		.byte	0
 7378 225b 38       		.uleb128 0x38
 7379 225c 01       		.byte	0x1
 7380 225d 11040000 		.4byte	.LASF133
 7381 2261 04       		.byte	0x4
 7382 2262 3601     		.2byte	0x136
 7383 2264 01       		.byte	0x1
 7384 2265 01       		.byte	0x1
 7385 2266 34       		.uleb128 0x34
 7386 2267 01       		.byte	0x1
 7387 2268 50010000 		.4byte	.LASF128
 7388 226c 04       		.byte	0x4
 7389 226d 3B01     		.2byte	0x13b
 7390 226f 01       		.byte	0x1
 7391 2270 01       		.byte	0x1
 7392 2271 7B220000 		.4byte	0x227b
 7393 2275 35       		.uleb128 0x35
 7394 2276 85000000 		.4byte	0x85
 7395 227a 00       		.byte	0
 7396 227b 39       		.uleb128 0x39
 7397 227c 01       		.byte	0x1
 7398 227d F6060000 		.4byte	.LASF130
 7399 2281 04       		.byte	0x4
 7400 2282 3501     		.2byte	0x135
 7401 2284 01       		.byte	0x1
ARM GAS  C:\Users\CHUCK~1.ERH\AppData\Local\Temp\cc506n3q.s 			page 168


 7402 2285 85000000 		.4byte	0x85
 7403 2289 01       		.byte	0x1
 7404 228a 39       		.uleb128 0x39
 7405 228b 01       		.byte	0x1
 7406 228c EB010000 		.4byte	.LASF131
 7407 2290 04       		.byte	0x4
 7408 2291 3401     		.2byte	0x134
 7409 2293 01       		.byte	0x1
 7410 2294 85000000 		.4byte	0x85
 7411 2298 01       		.byte	0x1
 7412 2299 37       		.uleb128 0x37
 7413 229a 01       		.byte	0x1
 7414 229b 6E070000 		.4byte	.LASF132
 7415 229f 05       		.byte	0x5
 7416 22a0 6C       		.byte	0x6c
 7417 22a1 01       		.byte	0x1
 7418 22a2 01       		.byte	0x1
 7419 22a3 AD220000 		.4byte	0x22ad
 7420 22a7 35       		.uleb128 0x35
 7421 22a8 85000000 		.4byte	0x85
 7422 22ac 00       		.byte	0
 7423 22ad 3A       		.uleb128 0x3a
 7424 22ae 01       		.byte	0x1
 7425 22af DF020000 		.4byte	.LASF141
 7426 22b3 08       		.byte	0x8
 7427 22b4 22       		.byte	0x22
 7428 22b5 01       		.byte	0x1
 7429 22b6 C8000000 		.4byte	0xc8
 7430 22ba 01       		.byte	0x1
 7431 22bb C5220000 		.4byte	0x22c5
 7432 22bf 35       		.uleb128 0x35
 7433 22c0 BD000000 		.4byte	0xbd
 7434 22c4 00       		.byte	0
 7435 22c5 3B       		.uleb128 0x3b
 7436 22c6 01       		.byte	0x1
 7437 22c7 65040000 		.4byte	.LASF134
 7438 22cb 07       		.byte	0x7
 7439 22cc 6C       		.byte	0x6c
 7440 22cd 01       		.byte	0x1
 7441 22ce 01       		.byte	0x1
 7442 22cf 00       		.byte	0
 7443              		.section	.debug_abbrev,"",%progbits
 7444              	.Ldebug_abbrev0:
 7445 0000 01       		.uleb128 0x1
 7446 0001 11       		.uleb128 0x11
 7447 0002 01       		.byte	0x1
 7448 0003 25       		.uleb128 0x25
 7449 0004 0E       		.uleb128 0xe
 7450 0005 13       		.uleb128 0x13
 7451 0006 0B       		.uleb128 0xb
 7452 0007 03       		.uleb128 0x3
 7453 0008 0E       		.uleb128 0xe
 7454 0009 1B       		.uleb128 0x1b
 7455 000a 0E       		.uleb128 0xe
 7456 000b 55       		.uleb128 0x55
 7457 000c 06       		.uleb128 0x6
 7458 000d 11       		.uleb128 0x11
ARM GAS  C:\Users\CHUCK~1.ERH\AppData\Local\Temp\cc506n3q.s 			page 169


 7459 000e 01       		.uleb128 0x1
 7460 000f 52       		.uleb128 0x52
 7461 0010 01       		.uleb128 0x1
 7462 0011 10       		.uleb128 0x10
 7463 0012 06       		.uleb128 0x6
 7464 0013 00       		.byte	0
 7465 0014 00       		.byte	0
 7466 0015 02       		.uleb128 0x2
 7467 0016 24       		.uleb128 0x24
 7468 0017 00       		.byte	0
 7469 0018 0B       		.uleb128 0xb
 7470 0019 0B       		.uleb128 0xb
 7471 001a 3E       		.uleb128 0x3e
 7472 001b 0B       		.uleb128 0xb
 7473 001c 03       		.uleb128 0x3
 7474 001d 0E       		.uleb128 0xe
 7475 001e 00       		.byte	0
 7476 001f 00       		.byte	0
 7477 0020 03       		.uleb128 0x3
 7478 0021 24       		.uleb128 0x24
 7479 0022 00       		.byte	0
 7480 0023 0B       		.uleb128 0xb
 7481 0024 0B       		.uleb128 0xb
 7482 0025 3E       		.uleb128 0x3e
 7483 0026 0B       		.uleb128 0xb
 7484 0027 03       		.uleb128 0x3
 7485 0028 08       		.uleb128 0x8
 7486 0029 00       		.byte	0
 7487 002a 00       		.byte	0
 7488 002b 04       		.uleb128 0x4
 7489 002c 16       		.uleb128 0x16
 7490 002d 00       		.byte	0
 7491 002e 03       		.uleb128 0x3
 7492 002f 0E       		.uleb128 0xe
 7493 0030 3A       		.uleb128 0x3a
 7494 0031 0B       		.uleb128 0xb
 7495 0032 3B       		.uleb128 0x3b
 7496 0033 0B       		.uleb128 0xb
 7497 0034 49       		.uleb128 0x49
 7498 0035 13       		.uleb128 0x13
 7499 0036 00       		.byte	0
 7500 0037 00       		.byte	0
 7501 0038 05       		.uleb128 0x5
 7502 0039 0F       		.uleb128 0xf
 7503 003a 00       		.byte	0
 7504 003b 0B       		.uleb128 0xb
 7505 003c 0B       		.uleb128 0xb
 7506 003d 49       		.uleb128 0x49
 7507 003e 13       		.uleb128 0x13
 7508 003f 00       		.byte	0
 7509 0040 00       		.byte	0
 7510 0041 06       		.uleb128 0x6
 7511 0042 26       		.uleb128 0x26
 7512 0043 00       		.byte	0
 7513 0044 49       		.uleb128 0x49
 7514 0045 13       		.uleb128 0x13
 7515 0046 00       		.byte	0
ARM GAS  C:\Users\CHUCK~1.ERH\AppData\Local\Temp\cc506n3q.s 			page 170


 7516 0047 00       		.byte	0
 7517 0048 07       		.uleb128 0x7
 7518 0049 13       		.uleb128 0x13
 7519 004a 01       		.byte	0x1
 7520 004b 0B       		.uleb128 0xb
 7521 004c 0B       		.uleb128 0xb
 7522 004d 3A       		.uleb128 0x3a
 7523 004e 0B       		.uleb128 0xb
 7524 004f 3B       		.uleb128 0x3b
 7525 0050 0B       		.uleb128 0xb
 7526 0051 01       		.uleb128 0x1
 7527 0052 13       		.uleb128 0x13
 7528 0053 00       		.byte	0
 7529 0054 00       		.byte	0
 7530 0055 08       		.uleb128 0x8
 7531 0056 0D       		.uleb128 0xd
 7532 0057 00       		.byte	0
 7533 0058 03       		.uleb128 0x3
 7534 0059 0E       		.uleb128 0xe
 7535 005a 3A       		.uleb128 0x3a
 7536 005b 0B       		.uleb128 0xb
 7537 005c 3B       		.uleb128 0x3b
 7538 005d 0B       		.uleb128 0xb
 7539 005e 49       		.uleb128 0x49
 7540 005f 13       		.uleb128 0x13
 7541 0060 38       		.uleb128 0x38
 7542 0061 0A       		.uleb128 0xa
 7543 0062 00       		.byte	0
 7544 0063 00       		.byte	0
 7545 0064 09       		.uleb128 0x9
 7546 0065 2E       		.uleb128 0x2e
 7547 0066 01       		.byte	0x1
 7548 0067 3F       		.uleb128 0x3f
 7549 0068 0C       		.uleb128 0xc
 7550 0069 03       		.uleb128 0x3
 7551 006a 0E       		.uleb128 0xe
 7552 006b 3A       		.uleb128 0x3a
 7553 006c 0B       		.uleb128 0xb
 7554 006d 3B       		.uleb128 0x3b
 7555 006e 05       		.uleb128 0x5
 7556 006f 27       		.uleb128 0x27
 7557 0070 0C       		.uleb128 0xc
 7558 0071 20       		.uleb128 0x20
 7559 0072 0B       		.uleb128 0xb
 7560 0073 01       		.uleb128 0x1
 7561 0074 13       		.uleb128 0x13
 7562 0075 00       		.byte	0
 7563 0076 00       		.byte	0
 7564 0077 0A       		.uleb128 0xa
 7565 0078 05       		.uleb128 0x5
 7566 0079 00       		.byte	0
 7567 007a 03       		.uleb128 0x3
 7568 007b 0E       		.uleb128 0xe
 7569 007c 3A       		.uleb128 0x3a
 7570 007d 0B       		.uleb128 0xb
 7571 007e 3B       		.uleb128 0x3b
 7572 007f 05       		.uleb128 0x5
ARM GAS  C:\Users\CHUCK~1.ERH\AppData\Local\Temp\cc506n3q.s 			page 171


 7573 0080 49       		.uleb128 0x49
 7574 0081 13       		.uleb128 0x13
 7575 0082 00       		.byte	0
 7576 0083 00       		.byte	0
 7577 0084 0B       		.uleb128 0xb
 7578 0085 2E       		.uleb128 0x2e
 7579 0086 01       		.byte	0x1
 7580 0087 03       		.uleb128 0x3
 7581 0088 0E       		.uleb128 0xe
 7582 0089 3A       		.uleb128 0x3a
 7583 008a 0B       		.uleb128 0xb
 7584 008b 3B       		.uleb128 0x3b
 7585 008c 05       		.uleb128 0x5
 7586 008d 27       		.uleb128 0x27
 7587 008e 0C       		.uleb128 0xc
 7588 008f 20       		.uleb128 0x20
 7589 0090 0B       		.uleb128 0xb
 7590 0091 01       		.uleb128 0x1
 7591 0092 13       		.uleb128 0x13
 7592 0093 00       		.byte	0
 7593 0094 00       		.byte	0
 7594 0095 0C       		.uleb128 0xc
 7595 0096 05       		.uleb128 0x5
 7596 0097 00       		.byte	0
 7597 0098 03       		.uleb128 0x3
 7598 0099 08       		.uleb128 0x8
 7599 009a 3A       		.uleb128 0x3a
 7600 009b 0B       		.uleb128 0xb
 7601 009c 3B       		.uleb128 0x3b
 7602 009d 05       		.uleb128 0x5
 7603 009e 49       		.uleb128 0x49
 7604 009f 13       		.uleb128 0x13
 7605 00a0 00       		.byte	0
 7606 00a1 00       		.byte	0
 7607 00a2 0D       		.uleb128 0xd
 7608 00a3 34       		.uleb128 0x34
 7609 00a4 00       		.byte	0
 7610 00a5 03       		.uleb128 0x3
 7611 00a6 0E       		.uleb128 0xe
 7612 00a7 3A       		.uleb128 0x3a
 7613 00a8 0B       		.uleb128 0xb
 7614 00a9 3B       		.uleb128 0x3b
 7615 00aa 05       		.uleb128 0x5
 7616 00ab 49       		.uleb128 0x49
 7617 00ac 13       		.uleb128 0x13
 7618 00ad 00       		.byte	0
 7619 00ae 00       		.byte	0
 7620 00af 0E       		.uleb128 0xe
 7621 00b0 2E       		.uleb128 0x2e
 7622 00b1 01       		.byte	0x1
 7623 00b2 03       		.uleb128 0x3
 7624 00b3 0E       		.uleb128 0xe
 7625 00b4 3A       		.uleb128 0x3a
 7626 00b5 0B       		.uleb128 0xb
 7627 00b6 3B       		.uleb128 0x3b
 7628 00b7 05       		.uleb128 0x5
 7629 00b8 27       		.uleb128 0x27
ARM GAS  C:\Users\CHUCK~1.ERH\AppData\Local\Temp\cc506n3q.s 			page 172


 7630 00b9 0C       		.uleb128 0xc
 7631 00ba 49       		.uleb128 0x49
 7632 00bb 13       		.uleb128 0x13
 7633 00bc 20       		.uleb128 0x20
 7634 00bd 0B       		.uleb128 0xb
 7635 00be 01       		.uleb128 0x1
 7636 00bf 13       		.uleb128 0x13
 7637 00c0 00       		.byte	0
 7638 00c1 00       		.byte	0
 7639 00c2 0F       		.uleb128 0xf
 7640 00c3 34       		.uleb128 0x34
 7641 00c4 00       		.byte	0
 7642 00c5 03       		.uleb128 0x3
 7643 00c6 08       		.uleb128 0x8
 7644 00c7 3A       		.uleb128 0x3a
 7645 00c8 0B       		.uleb128 0xb
 7646 00c9 3B       		.uleb128 0x3b
 7647 00ca 05       		.uleb128 0x5
 7648 00cb 49       		.uleb128 0x49
 7649 00cc 13       		.uleb128 0x13
 7650 00cd 00       		.byte	0
 7651 00ce 00       		.byte	0
 7652 00cf 10       		.uleb128 0x10
 7653 00d0 01       		.uleb128 0x1
 7654 00d1 01       		.byte	0x1
 7655 00d2 49       		.uleb128 0x49
 7656 00d3 13       		.uleb128 0x13
 7657 00d4 01       		.uleb128 0x1
 7658 00d5 13       		.uleb128 0x13
 7659 00d6 00       		.byte	0
 7660 00d7 00       		.byte	0
 7661 00d8 11       		.uleb128 0x11
 7662 00d9 21       		.uleb128 0x21
 7663 00da 00       		.byte	0
 7664 00db 49       		.uleb128 0x49
 7665 00dc 13       		.uleb128 0x13
 7666 00dd 2F       		.uleb128 0x2f
 7667 00de 0B       		.uleb128 0xb
 7668 00df 00       		.byte	0
 7669 00e0 00       		.byte	0
 7670 00e1 12       		.uleb128 0x12
 7671 00e2 2E       		.uleb128 0x2e
 7672 00e3 00       		.byte	0
 7673 00e4 03       		.uleb128 0x3
 7674 00e5 0E       		.uleb128 0xe
 7675 00e6 3A       		.uleb128 0x3a
 7676 00e7 0B       		.uleb128 0xb
 7677 00e8 3B       		.uleb128 0x3b
 7678 00e9 0B       		.uleb128 0xb
 7679 00ea 27       		.uleb128 0x27
 7680 00eb 0C       		.uleb128 0xc
 7681 00ec 20       		.uleb128 0x20
 7682 00ed 0B       		.uleb128 0xb
 7683 00ee 00       		.byte	0
 7684 00ef 00       		.byte	0
 7685 00f0 13       		.uleb128 0x13
 7686 00f1 2E       		.uleb128 0x2e
ARM GAS  C:\Users\CHUCK~1.ERH\AppData\Local\Temp\cc506n3q.s 			page 173


 7687 00f2 01       		.byte	0x1
 7688 00f3 3F       		.uleb128 0x3f
 7689 00f4 0C       		.uleb128 0xc
 7690 00f5 03       		.uleb128 0x3
 7691 00f6 0E       		.uleb128 0xe
 7692 00f7 3A       		.uleb128 0x3a
 7693 00f8 0B       		.uleb128 0xb
 7694 00f9 3B       		.uleb128 0x3b
 7695 00fa 05       		.uleb128 0x5
 7696 00fb 27       		.uleb128 0x27
 7697 00fc 0C       		.uleb128 0xc
 7698 00fd 11       		.uleb128 0x11
 7699 00fe 01       		.uleb128 0x1
 7700 00ff 12       		.uleb128 0x12
 7701 0100 01       		.uleb128 0x1
 7702 0101 40       		.uleb128 0x40
 7703 0102 06       		.uleb128 0x6
 7704 0103 9742     		.uleb128 0x2117
 7705 0105 0C       		.uleb128 0xc
 7706 0106 01       		.uleb128 0x1
 7707 0107 13       		.uleb128 0x13
 7708 0108 00       		.byte	0
 7709 0109 00       		.byte	0
 7710 010a 14       		.uleb128 0x14
 7711 010b 05       		.uleb128 0x5
 7712 010c 00       		.byte	0
 7713 010d 03       		.uleb128 0x3
 7714 010e 0E       		.uleb128 0xe
 7715 010f 3A       		.uleb128 0x3a
 7716 0110 0B       		.uleb128 0xb
 7717 0111 3B       		.uleb128 0x3b
 7718 0112 05       		.uleb128 0x5
 7719 0113 49       		.uleb128 0x49
 7720 0114 13       		.uleb128 0x13
 7721 0115 02       		.uleb128 0x2
 7722 0116 06       		.uleb128 0x6
 7723 0117 00       		.byte	0
 7724 0118 00       		.byte	0
 7725 0119 15       		.uleb128 0x15
 7726 011a 05       		.uleb128 0x5
 7727 011b 00       		.byte	0
 7728 011c 03       		.uleb128 0x3
 7729 011d 08       		.uleb128 0x8
 7730 011e 3A       		.uleb128 0x3a
 7731 011f 0B       		.uleb128 0xb
 7732 0120 3B       		.uleb128 0x3b
 7733 0121 05       		.uleb128 0x5
 7734 0122 49       		.uleb128 0x49
 7735 0123 13       		.uleb128 0x13
 7736 0124 02       		.uleb128 0x2
 7737 0125 06       		.uleb128 0x6
 7738 0126 00       		.byte	0
 7739 0127 00       		.byte	0
 7740 0128 16       		.uleb128 0x16
 7741 0129 1D       		.uleb128 0x1d
 7742 012a 01       		.byte	0x1
 7743 012b 31       		.uleb128 0x31
ARM GAS  C:\Users\CHUCK~1.ERH\AppData\Local\Temp\cc506n3q.s 			page 174


 7744 012c 13       		.uleb128 0x13
 7745 012d 11       		.uleb128 0x11
 7746 012e 01       		.uleb128 0x1
 7747 012f 12       		.uleb128 0x12
 7748 0130 01       		.uleb128 0x1
 7749 0131 58       		.uleb128 0x58
 7750 0132 0B       		.uleb128 0xb
 7751 0133 59       		.uleb128 0x59
 7752 0134 05       		.uleb128 0x5
 7753 0135 01       		.uleb128 0x1
 7754 0136 13       		.uleb128 0x13
 7755 0137 00       		.byte	0
 7756 0138 00       		.byte	0
 7757 0139 17       		.uleb128 0x17
 7758 013a 898201   		.uleb128 0x4109
 7759 013d 01       		.byte	0x1
 7760 013e 11       		.uleb128 0x11
 7761 013f 01       		.uleb128 0x1
 7762 0140 31       		.uleb128 0x31
 7763 0141 13       		.uleb128 0x13
 7764 0142 00       		.byte	0
 7765 0143 00       		.byte	0
 7766 0144 18       		.uleb128 0x18
 7767 0145 8A8201   		.uleb128 0x410a
 7768 0148 00       		.byte	0
 7769 0149 02       		.uleb128 0x2
 7770 014a 0A       		.uleb128 0xa
 7771 014b 9142     		.uleb128 0x2111
 7772 014d 0A       		.uleb128 0xa
 7773 014e 00       		.byte	0
 7774 014f 00       		.byte	0
 7775 0150 19       		.uleb128 0x19
 7776 0151 898201   		.uleb128 0x4109
 7777 0154 00       		.byte	0
 7778 0155 11       		.uleb128 0x11
 7779 0156 01       		.uleb128 0x1
 7780 0157 31       		.uleb128 0x31
 7781 0158 13       		.uleb128 0x13
 7782 0159 00       		.byte	0
 7783 015a 00       		.byte	0
 7784 015b 1A       		.uleb128 0x1a
 7785 015c 898201   		.uleb128 0x4109
 7786 015f 01       		.byte	0x1
 7787 0160 11       		.uleb128 0x11
 7788 0161 01       		.uleb128 0x1
 7789 0162 31       		.uleb128 0x31
 7790 0163 13       		.uleb128 0x13
 7791 0164 01       		.uleb128 0x1
 7792 0165 13       		.uleb128 0x13
 7793 0166 00       		.byte	0
 7794 0167 00       		.byte	0
 7795 0168 1B       		.uleb128 0x1b
 7796 0169 2E       		.uleb128 0x2e
 7797 016a 01       		.byte	0x1
 7798 016b 03       		.uleb128 0x3
 7799 016c 0E       		.uleb128 0xe
 7800 016d 3A       		.uleb128 0x3a
ARM GAS  C:\Users\CHUCK~1.ERH\AppData\Local\Temp\cc506n3q.s 			page 175


 7801 016e 0B       		.uleb128 0xb
 7802 016f 3B       		.uleb128 0x3b
 7803 0170 05       		.uleb128 0x5
 7804 0171 27       		.uleb128 0x27
 7805 0172 0C       		.uleb128 0xc
 7806 0173 11       		.uleb128 0x11
 7807 0174 01       		.uleb128 0x1
 7808 0175 12       		.uleb128 0x12
 7809 0176 01       		.uleb128 0x1
 7810 0177 40       		.uleb128 0x40
 7811 0178 06       		.uleb128 0x6
 7812 0179 9742     		.uleb128 0x2117
 7813 017b 0C       		.uleb128 0xc
 7814 017c 01       		.uleb128 0x1
 7815 017d 13       		.uleb128 0x13
 7816 017e 00       		.byte	0
 7817 017f 00       		.byte	0
 7818 0180 1C       		.uleb128 0x1c
 7819 0181 34       		.uleb128 0x34
 7820 0182 00       		.byte	0
 7821 0183 03       		.uleb128 0x3
 7822 0184 0E       		.uleb128 0xe
 7823 0185 3A       		.uleb128 0x3a
 7824 0186 0B       		.uleb128 0xb
 7825 0187 3B       		.uleb128 0x3b
 7826 0188 05       		.uleb128 0x5
 7827 0189 49       		.uleb128 0x49
 7828 018a 13       		.uleb128 0x13
 7829 018b 02       		.uleb128 0x2
 7830 018c 06       		.uleb128 0x6
 7831 018d 00       		.byte	0
 7832 018e 00       		.byte	0
 7833 018f 1D       		.uleb128 0x1d
 7834 0190 2E       		.uleb128 0x2e
 7835 0191 01       		.byte	0x1
 7836 0192 3F       		.uleb128 0x3f
 7837 0193 0C       		.uleb128 0xc
 7838 0194 03       		.uleb128 0x3
 7839 0195 0E       		.uleb128 0xe
 7840 0196 3A       		.uleb128 0x3a
 7841 0197 0B       		.uleb128 0xb
 7842 0198 3B       		.uleb128 0x3b
 7843 0199 05       		.uleb128 0x5
 7844 019a 27       		.uleb128 0x27
 7845 019b 0C       		.uleb128 0xc
 7846 019c 49       		.uleb128 0x49
 7847 019d 13       		.uleb128 0x13
 7848 019e 11       		.uleb128 0x11
 7849 019f 01       		.uleb128 0x1
 7850 01a0 12       		.uleb128 0x12
 7851 01a1 01       		.uleb128 0x1
 7852 01a2 40       		.uleb128 0x40
 7853 01a3 06       		.uleb128 0x6
 7854 01a4 9742     		.uleb128 0x2117
 7855 01a6 0C       		.uleb128 0xc
 7856 01a7 01       		.uleb128 0x1
 7857 01a8 13       		.uleb128 0x13
ARM GAS  C:\Users\CHUCK~1.ERH\AppData\Local\Temp\cc506n3q.s 			page 176


 7858 01a9 00       		.byte	0
 7859 01aa 00       		.byte	0
 7860 01ab 1E       		.uleb128 0x1e
 7861 01ac 34       		.uleb128 0x34
 7862 01ad 00       		.byte	0
 7863 01ae 03       		.uleb128 0x3
 7864 01af 08       		.uleb128 0x8
 7865 01b0 3A       		.uleb128 0x3a
 7866 01b1 0B       		.uleb128 0xb
 7867 01b2 3B       		.uleb128 0x3b
 7868 01b3 05       		.uleb128 0x5
 7869 01b4 49       		.uleb128 0x49
 7870 01b5 13       		.uleb128 0x13
 7871 01b6 02       		.uleb128 0x2
 7872 01b7 0A       		.uleb128 0xa
 7873 01b8 00       		.byte	0
 7874 01b9 00       		.byte	0
 7875 01ba 1F       		.uleb128 0x1f
 7876 01bb 2E       		.uleb128 0x2e
 7877 01bc 01       		.byte	0x1
 7878 01bd 03       		.uleb128 0x3
 7879 01be 0E       		.uleb128 0xe
 7880 01bf 3A       		.uleb128 0x3a
 7881 01c0 0B       		.uleb128 0xb
 7882 01c1 3B       		.uleb128 0x3b
 7883 01c2 05       		.uleb128 0x5
 7884 01c3 27       		.uleb128 0x27
 7885 01c4 0C       		.uleb128 0xc
 7886 01c5 49       		.uleb128 0x49
 7887 01c6 13       		.uleb128 0x13
 7888 01c7 11       		.uleb128 0x11
 7889 01c8 01       		.uleb128 0x1
 7890 01c9 12       		.uleb128 0x12
 7891 01ca 01       		.uleb128 0x1
 7892 01cb 40       		.uleb128 0x40
 7893 01cc 06       		.uleb128 0x6
 7894 01cd 9742     		.uleb128 0x2117
 7895 01cf 0C       		.uleb128 0xc
 7896 01d0 01       		.uleb128 0x1
 7897 01d1 13       		.uleb128 0x13
 7898 01d2 00       		.byte	0
 7899 01d3 00       		.byte	0
 7900 01d4 20       		.uleb128 0x20
 7901 01d5 34       		.uleb128 0x34
 7902 01d6 00       		.byte	0
 7903 01d7 03       		.uleb128 0x3
 7904 01d8 08       		.uleb128 0x8
 7905 01d9 3A       		.uleb128 0x3a
 7906 01da 0B       		.uleb128 0xb
 7907 01db 3B       		.uleb128 0x3b
 7908 01dc 05       		.uleb128 0x5
 7909 01dd 49       		.uleb128 0x49
 7910 01de 13       		.uleb128 0x13
 7911 01df 02       		.uleb128 0x2
 7912 01e0 06       		.uleb128 0x6
 7913 01e1 00       		.byte	0
 7914 01e2 00       		.byte	0
ARM GAS  C:\Users\CHUCK~1.ERH\AppData\Local\Temp\cc506n3q.s 			page 177


 7915 01e3 21       		.uleb128 0x21
 7916 01e4 2E       		.uleb128 0x2e
 7917 01e5 01       		.byte	0x1
 7918 01e6 31       		.uleb128 0x31
 7919 01e7 13       		.uleb128 0x13
 7920 01e8 11       		.uleb128 0x11
 7921 01e9 01       		.uleb128 0x1
 7922 01ea 12       		.uleb128 0x12
 7923 01eb 01       		.uleb128 0x1
 7924 01ec 40       		.uleb128 0x40
 7925 01ed 06       		.uleb128 0x6
 7926 01ee 9742     		.uleb128 0x2117
 7927 01f0 0C       		.uleb128 0xc
 7928 01f1 01       		.uleb128 0x1
 7929 01f2 13       		.uleb128 0x13
 7930 01f3 00       		.byte	0
 7931 01f4 00       		.byte	0
 7932 01f5 22       		.uleb128 0x22
 7933 01f6 05       		.uleb128 0x5
 7934 01f7 00       		.byte	0
 7935 01f8 31       		.uleb128 0x31
 7936 01f9 13       		.uleb128 0x13
 7937 01fa 02       		.uleb128 0x2
 7938 01fb 06       		.uleb128 0x6
 7939 01fc 00       		.byte	0
 7940 01fd 00       		.byte	0
 7941 01fe 23       		.uleb128 0x23
 7942 01ff 34       		.uleb128 0x34
 7943 0200 00       		.byte	0
 7944 0201 31       		.uleb128 0x31
 7945 0202 13       		.uleb128 0x13
 7946 0203 02       		.uleb128 0x2
 7947 0204 06       		.uleb128 0x6
 7948 0205 00       		.byte	0
 7949 0206 00       		.byte	0
 7950 0207 24       		.uleb128 0x24
 7951 0208 05       		.uleb128 0x5
 7952 0209 00       		.byte	0
 7953 020a 31       		.uleb128 0x31
 7954 020b 13       		.uleb128 0x13
 7955 020c 1C       		.uleb128 0x1c
 7956 020d 0B       		.uleb128 0xb
 7957 020e 00       		.byte	0
 7958 020f 00       		.byte	0
 7959 0210 25       		.uleb128 0x25
 7960 0211 1D       		.uleb128 0x1d
 7961 0212 01       		.byte	0x1
 7962 0213 31       		.uleb128 0x31
 7963 0214 13       		.uleb128 0x13
 7964 0215 52       		.uleb128 0x52
 7965 0216 01       		.uleb128 0x1
 7966 0217 55       		.uleb128 0x55
 7967 0218 06       		.uleb128 0x6
 7968 0219 58       		.uleb128 0x58
 7969 021a 0B       		.uleb128 0xb
 7970 021b 59       		.uleb128 0x59
 7971 021c 05       		.uleb128 0x5
ARM GAS  C:\Users\CHUCK~1.ERH\AppData\Local\Temp\cc506n3q.s 			page 178


 7972 021d 01       		.uleb128 0x1
 7973 021e 13       		.uleb128 0x13
 7974 021f 00       		.byte	0
 7975 0220 00       		.byte	0
 7976 0221 26       		.uleb128 0x26
 7977 0222 05       		.uleb128 0x5
 7978 0223 00       		.byte	0
 7979 0224 31       		.uleb128 0x31
 7980 0225 13       		.uleb128 0x13
 7981 0226 00       		.byte	0
 7982 0227 00       		.byte	0
 7983 0228 27       		.uleb128 0x27
 7984 0229 1D       		.uleb128 0x1d
 7985 022a 01       		.byte	0x1
 7986 022b 31       		.uleb128 0x31
 7987 022c 13       		.uleb128 0x13
 7988 022d 11       		.uleb128 0x11
 7989 022e 01       		.uleb128 0x1
 7990 022f 12       		.uleb128 0x12
 7991 0230 01       		.uleb128 0x1
 7992 0231 58       		.uleb128 0x58
 7993 0232 0B       		.uleb128 0xb
 7994 0233 59       		.uleb128 0x59
 7995 0234 05       		.uleb128 0x5
 7996 0235 00       		.byte	0
 7997 0236 00       		.byte	0
 7998 0237 28       		.uleb128 0x28
 7999 0238 34       		.uleb128 0x34
 8000 0239 00       		.byte	0
 8001 023a 31       		.uleb128 0x31
 8002 023b 13       		.uleb128 0x13
 8003 023c 02       		.uleb128 0x2
 8004 023d 0A       		.uleb128 0xa
 8005 023e 00       		.byte	0
 8006 023f 00       		.byte	0
 8007 0240 29       		.uleb128 0x29
 8008 0241 34       		.uleb128 0x34
 8009 0242 00       		.byte	0
 8010 0243 03       		.uleb128 0x3
 8011 0244 0E       		.uleb128 0xe
 8012 0245 3A       		.uleb128 0x3a
 8013 0246 0B       		.uleb128 0xb
 8014 0247 3B       		.uleb128 0x3b
 8015 0248 05       		.uleb128 0x5
 8016 0249 49       		.uleb128 0x49
 8017 024a 13       		.uleb128 0x13
 8018 024b 02       		.uleb128 0x2
 8019 024c 0A       		.uleb128 0xa
 8020 024d 00       		.byte	0
 8021 024e 00       		.byte	0
 8022 024f 2A       		.uleb128 0x2a
 8023 0250 05       		.uleb128 0x5
 8024 0251 00       		.byte	0
 8025 0252 03       		.uleb128 0x3
 8026 0253 08       		.uleb128 0x8
 8027 0254 3A       		.uleb128 0x3a
 8028 0255 0B       		.uleb128 0xb
ARM GAS  C:\Users\CHUCK~1.ERH\AppData\Local\Temp\cc506n3q.s 			page 179


 8029 0256 3B       		.uleb128 0x3b
 8030 0257 05       		.uleb128 0x5
 8031 0258 49       		.uleb128 0x49
 8032 0259 13       		.uleb128 0x13
 8033 025a 02       		.uleb128 0x2
 8034 025b 0A       		.uleb128 0xa
 8035 025c 00       		.byte	0
 8036 025d 00       		.byte	0
 8037 025e 2B       		.uleb128 0x2b
 8038 025f 0B       		.uleb128 0xb
 8039 0260 01       		.byte	0x1
 8040 0261 11       		.uleb128 0x11
 8041 0262 01       		.uleb128 0x1
 8042 0263 12       		.uleb128 0x12
 8043 0264 01       		.uleb128 0x1
 8044 0265 00       		.byte	0
 8045 0266 00       		.byte	0
 8046 0267 2C       		.uleb128 0x2c
 8047 0268 2E       		.uleb128 0x2e
 8048 0269 00       		.byte	0
 8049 026a 03       		.uleb128 0x3
 8050 026b 0E       		.uleb128 0xe
 8051 026c 3A       		.uleb128 0x3a
 8052 026d 0B       		.uleb128 0xb
 8053 026e 3B       		.uleb128 0x3b
 8054 026f 05       		.uleb128 0x5
 8055 0270 27       		.uleb128 0x27
 8056 0271 0C       		.uleb128 0xc
 8057 0272 49       		.uleb128 0x49
 8058 0273 13       		.uleb128 0x13
 8059 0274 20       		.uleb128 0x20
 8060 0275 0B       		.uleb128 0xb
 8061 0276 00       		.byte	0
 8062 0277 00       		.byte	0
 8063 0278 2D       		.uleb128 0x2d
 8064 0279 2E       		.uleb128 0x2e
 8065 027a 01       		.byte	0x1
 8066 027b 3F       		.uleb128 0x3f
 8067 027c 0C       		.uleb128 0xc
 8068 027d 03       		.uleb128 0x3
 8069 027e 0E       		.uleb128 0xe
 8070 027f 3A       		.uleb128 0x3a
 8071 0280 0B       		.uleb128 0xb
 8072 0281 3B       		.uleb128 0x3b
 8073 0282 05       		.uleb128 0x5
 8074 0283 27       		.uleb128 0x27
 8075 0284 0C       		.uleb128 0xc
 8076 0285 11       		.uleb128 0x11
 8077 0286 01       		.uleb128 0x1
 8078 0287 12       		.uleb128 0x12
 8079 0288 01       		.uleb128 0x1
 8080 0289 40       		.uleb128 0x40
 8081 028a 06       		.uleb128 0x6
 8082 028b 9642     		.uleb128 0x2116
 8083 028d 0C       		.uleb128 0xc
 8084 028e 01       		.uleb128 0x1
 8085 028f 13       		.uleb128 0x13
ARM GAS  C:\Users\CHUCK~1.ERH\AppData\Local\Temp\cc506n3q.s 			page 180


 8086 0290 00       		.byte	0
 8087 0291 00       		.byte	0
 8088 0292 2E       		.uleb128 0x2e
 8089 0293 05       		.uleb128 0x5
 8090 0294 00       		.byte	0
 8091 0295 31       		.uleb128 0x31
 8092 0296 13       		.uleb128 0x13
 8093 0297 1C       		.uleb128 0x1c
 8094 0298 0D       		.uleb128 0xd
 8095 0299 00       		.byte	0
 8096 029a 00       		.byte	0
 8097 029b 2F       		.uleb128 0x2f
 8098 029c 0B       		.uleb128 0xb
 8099 029d 01       		.byte	0x1
 8100 029e 55       		.uleb128 0x55
 8101 029f 06       		.uleb128 0x6
 8102 02a0 00       		.byte	0
 8103 02a1 00       		.byte	0
 8104 02a2 30       		.uleb128 0x30
 8105 02a3 34       		.uleb128 0x34
 8106 02a4 00       		.byte	0
 8107 02a5 31       		.uleb128 0x31
 8108 02a6 13       		.uleb128 0x13
 8109 02a7 00       		.byte	0
 8110 02a8 00       		.byte	0
 8111 02a9 31       		.uleb128 0x31
 8112 02aa 05       		.uleb128 0x5
 8113 02ab 00       		.byte	0
 8114 02ac 03       		.uleb128 0x3
 8115 02ad 0E       		.uleb128 0xe
 8116 02ae 3A       		.uleb128 0x3a
 8117 02af 0B       		.uleb128 0xb
 8118 02b0 3B       		.uleb128 0x3b
 8119 02b1 05       		.uleb128 0x5
 8120 02b2 49       		.uleb128 0x49
 8121 02b3 13       		.uleb128 0x13
 8122 02b4 02       		.uleb128 0x2
 8123 02b5 0A       		.uleb128 0xa
 8124 02b6 00       		.byte	0
 8125 02b7 00       		.byte	0
 8126 02b8 32       		.uleb128 0x32
 8127 02b9 34       		.uleb128 0x34
 8128 02ba 00       		.byte	0
 8129 02bb 03       		.uleb128 0x3
 8130 02bc 0E       		.uleb128 0xe
 8131 02bd 3A       		.uleb128 0x3a
 8132 02be 0B       		.uleb128 0xb
 8133 02bf 3B       		.uleb128 0x3b
 8134 02c0 0B       		.uleb128 0xb
 8135 02c1 49       		.uleb128 0x49
 8136 02c2 13       		.uleb128 0x13
 8137 02c3 02       		.uleb128 0x2
 8138 02c4 0A       		.uleb128 0xa
 8139 02c5 00       		.byte	0
 8140 02c6 00       		.byte	0
 8141 02c7 33       		.uleb128 0x33
 8142 02c8 34       		.uleb128 0x34
ARM GAS  C:\Users\CHUCK~1.ERH\AppData\Local\Temp\cc506n3q.s 			page 181


 8143 02c9 00       		.byte	0
 8144 02ca 03       		.uleb128 0x3
 8145 02cb 0E       		.uleb128 0xe
 8146 02cc 3A       		.uleb128 0x3a
 8147 02cd 0B       		.uleb128 0xb
 8148 02ce 3B       		.uleb128 0x3b
 8149 02cf 0B       		.uleb128 0xb
 8150 02d0 49       		.uleb128 0x49
 8151 02d1 13       		.uleb128 0x13
 8152 02d2 3F       		.uleb128 0x3f
 8153 02d3 0C       		.uleb128 0xc
 8154 02d4 3C       		.uleb128 0x3c
 8155 02d5 0C       		.uleb128 0xc
 8156 02d6 00       		.byte	0
 8157 02d7 00       		.byte	0
 8158 02d8 34       		.uleb128 0x34
 8159 02d9 2E       		.uleb128 0x2e
 8160 02da 01       		.byte	0x1
 8161 02db 3F       		.uleb128 0x3f
 8162 02dc 0C       		.uleb128 0xc
 8163 02dd 03       		.uleb128 0x3
 8164 02de 0E       		.uleb128 0xe
 8165 02df 3A       		.uleb128 0x3a
 8166 02e0 0B       		.uleb128 0xb
 8167 02e1 3B       		.uleb128 0x3b
 8168 02e2 05       		.uleb128 0x5
 8169 02e3 27       		.uleb128 0x27
 8170 02e4 0C       		.uleb128 0xc
 8171 02e5 3C       		.uleb128 0x3c
 8172 02e6 0C       		.uleb128 0xc
 8173 02e7 01       		.uleb128 0x1
 8174 02e8 13       		.uleb128 0x13
 8175 02e9 00       		.byte	0
 8176 02ea 00       		.byte	0
 8177 02eb 35       		.uleb128 0x35
 8178 02ec 05       		.uleb128 0x5
 8179 02ed 00       		.byte	0
 8180 02ee 49       		.uleb128 0x49
 8181 02ef 13       		.uleb128 0x13
 8182 02f0 00       		.byte	0
 8183 02f1 00       		.byte	0
 8184 02f2 36       		.uleb128 0x36
 8185 02f3 2E       		.uleb128 0x2e
 8186 02f4 00       		.byte	0
 8187 02f5 3F       		.uleb128 0x3f
 8188 02f6 0C       		.uleb128 0xc
 8189 02f7 03       		.uleb128 0x3
 8190 02f8 0E       		.uleb128 0xe
 8191 02f9 3A       		.uleb128 0x3a
 8192 02fa 0B       		.uleb128 0xb
 8193 02fb 3B       		.uleb128 0x3b
 8194 02fc 0B       		.uleb128 0xb
 8195 02fd 27       		.uleb128 0x27
 8196 02fe 0C       		.uleb128 0xc
 8197 02ff 49       		.uleb128 0x49
 8198 0300 13       		.uleb128 0x13
 8199 0301 3C       		.uleb128 0x3c
ARM GAS  C:\Users\CHUCK~1.ERH\AppData\Local\Temp\cc506n3q.s 			page 182


 8200 0302 0C       		.uleb128 0xc
 8201 0303 00       		.byte	0
 8202 0304 00       		.byte	0
 8203 0305 37       		.uleb128 0x37
 8204 0306 2E       		.uleb128 0x2e
 8205 0307 01       		.byte	0x1
 8206 0308 3F       		.uleb128 0x3f
 8207 0309 0C       		.uleb128 0xc
 8208 030a 03       		.uleb128 0x3
 8209 030b 0E       		.uleb128 0xe
 8210 030c 3A       		.uleb128 0x3a
 8211 030d 0B       		.uleb128 0xb
 8212 030e 3B       		.uleb128 0x3b
 8213 030f 0B       		.uleb128 0xb
 8214 0310 27       		.uleb128 0x27
 8215 0311 0C       		.uleb128 0xc
 8216 0312 3C       		.uleb128 0x3c
 8217 0313 0C       		.uleb128 0xc
 8218 0314 01       		.uleb128 0x1
 8219 0315 13       		.uleb128 0x13
 8220 0316 00       		.byte	0
 8221 0317 00       		.byte	0
 8222 0318 38       		.uleb128 0x38
 8223 0319 2E       		.uleb128 0x2e
 8224 031a 00       		.byte	0
 8225 031b 3F       		.uleb128 0x3f
 8226 031c 0C       		.uleb128 0xc
 8227 031d 03       		.uleb128 0x3
 8228 031e 0E       		.uleb128 0xe
 8229 031f 3A       		.uleb128 0x3a
 8230 0320 0B       		.uleb128 0xb
 8231 0321 3B       		.uleb128 0x3b
 8232 0322 05       		.uleb128 0x5
 8233 0323 27       		.uleb128 0x27
 8234 0324 0C       		.uleb128 0xc
 8235 0325 3C       		.uleb128 0x3c
 8236 0326 0C       		.uleb128 0xc
 8237 0327 00       		.byte	0
 8238 0328 00       		.byte	0
 8239 0329 39       		.uleb128 0x39
 8240 032a 2E       		.uleb128 0x2e
 8241 032b 00       		.byte	0
 8242 032c 3F       		.uleb128 0x3f
 8243 032d 0C       		.uleb128 0xc
 8244 032e 03       		.uleb128 0x3
 8245 032f 0E       		.uleb128 0xe
 8246 0330 3A       		.uleb128 0x3a
 8247 0331 0B       		.uleb128 0xb
 8248 0332 3B       		.uleb128 0x3b
 8249 0333 05       		.uleb128 0x5
 8250 0334 27       		.uleb128 0x27
 8251 0335 0C       		.uleb128 0xc
 8252 0336 49       		.uleb128 0x49
 8253 0337 13       		.uleb128 0x13
 8254 0338 3C       		.uleb128 0x3c
 8255 0339 0C       		.uleb128 0xc
 8256 033a 00       		.byte	0
ARM GAS  C:\Users\CHUCK~1.ERH\AppData\Local\Temp\cc506n3q.s 			page 183


 8257 033b 00       		.byte	0
 8258 033c 3A       		.uleb128 0x3a
 8259 033d 2E       		.uleb128 0x2e
 8260 033e 01       		.byte	0x1
 8261 033f 3F       		.uleb128 0x3f
 8262 0340 0C       		.uleb128 0xc
 8263 0341 03       		.uleb128 0x3
 8264 0342 0E       		.uleb128 0xe
 8265 0343 3A       		.uleb128 0x3a
 8266 0344 0B       		.uleb128 0xb
 8267 0345 3B       		.uleb128 0x3b
 8268 0346 0B       		.uleb128 0xb
 8269 0347 27       		.uleb128 0x27
 8270 0348 0C       		.uleb128 0xc
 8271 0349 49       		.uleb128 0x49
 8272 034a 13       		.uleb128 0x13
 8273 034b 3C       		.uleb128 0x3c
 8274 034c 0C       		.uleb128 0xc
 8275 034d 01       		.uleb128 0x1
 8276 034e 13       		.uleb128 0x13
 8277 034f 00       		.byte	0
 8278 0350 00       		.byte	0
 8279 0351 3B       		.uleb128 0x3b
 8280 0352 2E       		.uleb128 0x2e
 8281 0353 00       		.byte	0
 8282 0354 3F       		.uleb128 0x3f
 8283 0355 0C       		.uleb128 0xc
 8284 0356 03       		.uleb128 0x3
 8285 0357 0E       		.uleb128 0xe
 8286 0358 3A       		.uleb128 0x3a
 8287 0359 0B       		.uleb128 0xb
 8288 035a 3B       		.uleb128 0x3b
 8289 035b 0B       		.uleb128 0xb
 8290 035c 27       		.uleb128 0x27
 8291 035d 0C       		.uleb128 0xc
 8292 035e 3C       		.uleb128 0x3c
 8293 035f 0C       		.uleb128 0xc
 8294 0360 00       		.byte	0
 8295 0361 00       		.byte	0
 8296 0362 00       		.byte	0
 8297              		.section	.debug_loc,"",%progbits
 8298              	.Ldebug_loc0:
 8299              	.LLST0:
 8300 0000 00000000 		.4byte	.LFB1
 8301 0004 02000000 		.4byte	.LCFI0
 8302 0008 0200     		.2byte	0x2
 8303 000a 7D       		.byte	0x7d
 8304 000b 00       		.sleb128 0
 8305 000c 02000000 		.4byte	.LCFI0
 8306 0010 3A000000 		.4byte	.LFE1
 8307 0014 0200     		.2byte	0x2
 8308 0016 7D       		.byte	0x7d
 8309 0017 10       		.sleb128 16
 8310 0018 00000000 		.4byte	0
 8311 001c 00000000 		.4byte	0
 8312              	.LLST1:
 8313 0020 00000000 		.4byte	.LVL0
ARM GAS  C:\Users\CHUCK~1.ERH\AppData\Local\Temp\cc506n3q.s 			page 184


 8314 0024 06000000 		.4byte	.LVL1
 8315 0028 0100     		.2byte	0x1
 8316 002a 50       		.byte	0x50
 8317 002b 06000000 		.4byte	.LVL1
 8318 002f 3A000000 		.4byte	.LFE1
 8319 0033 0400     		.2byte	0x4
 8320 0035 F3       		.byte	0xf3
 8321 0036 01       		.uleb128 0x1
 8322 0037 50       		.byte	0x50
 8323 0038 9F       		.byte	0x9f
 8324 0039 00000000 		.4byte	0
 8325 003d 00000000 		.4byte	0
 8326              	.LLST2:
 8327 0041 00000000 		.4byte	.LVL0
 8328 0045 06000000 		.4byte	.LVL1
 8329 0049 0100     		.2byte	0x1
 8330 004b 51       		.byte	0x51
 8331 004c 06000000 		.4byte	.LVL1
 8332 0050 3A000000 		.4byte	.LFE1
 8333 0054 0400     		.2byte	0x4
 8334 0056 F3       		.byte	0xf3
 8335 0057 01       		.uleb128 0x1
 8336 0058 51       		.byte	0x51
 8337 0059 9F       		.byte	0x9f
 8338 005a 00000000 		.4byte	0
 8339 005e 00000000 		.4byte	0
 8340              	.LLST3:
 8341 0062 00000000 		.4byte	.LFB7
 8342 0066 02000000 		.4byte	.LCFI1
 8343 006a 0200     		.2byte	0x2
 8344 006c 7D       		.byte	0x7d
 8345 006d 00       		.sleb128 0
 8346 006e 02000000 		.4byte	.LCFI1
 8347 0072 18000000 		.4byte	.LFE7
 8348 0076 0200     		.2byte	0x2
 8349 0078 7D       		.byte	0x7d
 8350 0079 10       		.sleb128 16
 8351 007a 00000000 		.4byte	0
 8352 007e 00000000 		.4byte	0
 8353              	.LLST4:
 8354 0082 00000000 		.4byte	.LVL10
 8355 0086 0D000000 		.4byte	.LVL12-1
 8356 008a 0100     		.2byte	0x1
 8357 008c 50       		.byte	0x50
 8358 008d 0D000000 		.4byte	.LVL12-1
 8359 0091 18000000 		.4byte	.LFE7
 8360 0095 0400     		.2byte	0x4
 8361 0097 F3       		.byte	0xf3
 8362 0098 01       		.uleb128 0x1
 8363 0099 50       		.byte	0x50
 8364 009a 9F       		.byte	0x9f
 8365 009b 00000000 		.4byte	0
 8366 009f 00000000 		.4byte	0
 8367              	.LLST5:
 8368 00a3 00000000 		.4byte	.LVL10
 8369 00a7 0A000000 		.4byte	.LVL11
 8370 00ab 0100     		.2byte	0x1
ARM GAS  C:\Users\CHUCK~1.ERH\AppData\Local\Temp\cc506n3q.s 			page 185


 8371 00ad 51       		.byte	0x51
 8372 00ae 0A000000 		.4byte	.LVL11
 8373 00b2 18000000 		.4byte	.LFE7
 8374 00b6 0400     		.2byte	0x4
 8375 00b8 F3       		.byte	0xf3
 8376 00b9 01       		.uleb128 0x1
 8377 00ba 51       		.byte	0x51
 8378 00bb 9F       		.byte	0x9f
 8379 00bc 00000000 		.4byte	0
 8380 00c0 00000000 		.4byte	0
 8381              	.LLST6:
 8382 00c4 00000000 		.4byte	.LFB5
 8383 00c8 02000000 		.4byte	.LCFI2
 8384 00cc 0200     		.2byte	0x2
 8385 00ce 7D       		.byte	0x7d
 8386 00cf 00       		.sleb128 0
 8387 00d0 02000000 		.4byte	.LCFI2
 8388 00d4 1C000000 		.4byte	.LFE5
 8389 00d8 0200     		.2byte	0x2
 8390 00da 7D       		.byte	0x7d
 8391 00db 18       		.sleb128 24
 8392 00dc 00000000 		.4byte	0
 8393 00e0 00000000 		.4byte	0
 8394              	.LLST7:
 8395 00e4 00000000 		.4byte	.LVL14
 8396 00e8 08000000 		.4byte	.LVL17
 8397 00ec 0100     		.2byte	0x1
 8398 00ee 50       		.byte	0x50
 8399 00ef 08000000 		.4byte	.LVL17
 8400 00f3 1C000000 		.4byte	.LFE5
 8401 00f7 0400     		.2byte	0x4
 8402 00f9 F3       		.byte	0xf3
 8403 00fa 01       		.uleb128 0x1
 8404 00fb 50       		.byte	0x50
 8405 00fc 9F       		.byte	0x9f
 8406 00fd 00000000 		.4byte	0
 8407 0101 00000000 		.4byte	0
 8408              	.LLST8:
 8409 0105 00000000 		.4byte	.LVL14
 8410 0109 02000000 		.4byte	.LVL15
 8411 010d 0100     		.2byte	0x1
 8412 010f 51       		.byte	0x51
 8413 0110 04000000 		.4byte	.LVL16
 8414 0114 1C000000 		.4byte	.LFE5
 8415 0118 0100     		.2byte	0x1
 8416 011a 51       		.byte	0x51
 8417 011b 00000000 		.4byte	0
 8418 011f 00000000 		.4byte	0
 8419              	.LLST9:
 8420 0123 02000000 		.4byte	.LVL15
 8421 0127 08000000 		.4byte	.LVL17
 8422 012b 0200     		.2byte	0x2
 8423 012d 30       		.byte	0x30
 8424 012e 9F       		.byte	0x9f
 8425 012f 16000000 		.4byte	.LVL19
 8426 0133 1A000000 		.4byte	.LVL20
 8427 0137 0100     		.2byte	0x1
ARM GAS  C:\Users\CHUCK~1.ERH\AppData\Local\Temp\cc506n3q.s 			page 186


 8428 0139 54       		.byte	0x54
 8429 013a 00000000 		.4byte	0
 8430 013e 00000000 		.4byte	0
 8431              	.LLST10:
 8432 0142 02000000 		.4byte	.LVL15
 8433 0146 0C000000 		.4byte	.LVL18
 8434 014a 0300     		.2byte	0x3
 8435 014c 91       		.byte	0x91
 8436 014d 6C       		.sleb128 -20
 8437 014e 9F       		.byte	0x9f
 8438 014f 0C000000 		.4byte	.LVL18
 8439 0153 15000000 		.4byte	.LVL19-1
 8440 0157 0100     		.2byte	0x1
 8441 0159 53       		.byte	0x53
 8442 015a 15000000 		.4byte	.LVL19-1
 8443 015e 1C000000 		.4byte	.LFE5
 8444 0162 0300     		.2byte	0x3
 8445 0164 91       		.byte	0x91
 8446 0165 6C       		.sleb128 -20
 8447 0166 9F       		.byte	0x9f
 8448 0167 00000000 		.4byte	0
 8449 016b 00000000 		.4byte	0
 8450              	.LLST11:
 8451 016f 00000000 		.4byte	.LFB9
 8452 0173 02000000 		.4byte	.LCFI3
 8453 0177 0200     		.2byte	0x2
 8454 0179 7D       		.byte	0x7d
 8455 017a 00       		.sleb128 0
 8456 017b 02000000 		.4byte	.LCFI3
 8457 017f 1E000000 		.4byte	.LFE9
 8458 0183 0200     		.2byte	0x2
 8459 0185 7D       		.byte	0x7d
 8460 0186 18       		.sleb128 24
 8461 0187 00000000 		.4byte	0
 8462 018b 00000000 		.4byte	0
 8463              	.LLST12:
 8464 018f 00000000 		.4byte	.LVL21
 8465 0193 0A000000 		.4byte	.LVL22
 8466 0197 0100     		.2byte	0x1
 8467 0199 50       		.byte	0x50
 8468 019a 0A000000 		.4byte	.LVL22
 8469 019e 1E000000 		.4byte	.LFE9
 8470 01a2 0400     		.2byte	0x4
 8471 01a4 F3       		.byte	0xf3
 8472 01a5 01       		.uleb128 0x1
 8473 01a6 50       		.byte	0x50
 8474 01a7 9F       		.byte	0x9f
 8475 01a8 00000000 		.4byte	0
 8476 01ac 00000000 		.4byte	0
 8477              	.LLST13:
 8478 01b0 00000000 		.4byte	.LVL21
 8479 01b4 0A000000 		.4byte	.LVL22
 8480 01b8 0100     		.2byte	0x1
 8481 01ba 51       		.byte	0x51
 8482 01bb 0A000000 		.4byte	.LVL22
 8483 01bf 1C000000 		.4byte	.LVL26
 8484 01c3 0100     		.2byte	0x1
ARM GAS  C:\Users\CHUCK~1.ERH\AppData\Local\Temp\cc506n3q.s 			page 187


 8485 01c5 57       		.byte	0x57
 8486 01c6 1C000000 		.4byte	.LVL26
 8487 01ca 1E000000 		.4byte	.LFE9
 8488 01ce 0400     		.2byte	0x4
 8489 01d0 F3       		.byte	0xf3
 8490 01d1 01       		.uleb128 0x1
 8491 01d2 51       		.byte	0x51
 8492 01d3 9F       		.byte	0x9f
 8493 01d4 00000000 		.4byte	0
 8494 01d8 00000000 		.4byte	0
 8495              	.LLST14:
 8496 01dc 00000000 		.4byte	.LVL21
 8497 01e0 0A000000 		.4byte	.LVL22
 8498 01e4 0100     		.2byte	0x1
 8499 01e6 52       		.byte	0x52
 8500 01e7 0A000000 		.4byte	.LVL22
 8501 01eb 1E000000 		.4byte	.LFE9
 8502 01ef 0400     		.2byte	0x4
 8503 01f1 F3       		.byte	0xf3
 8504 01f2 01       		.uleb128 0x1
 8505 01f3 52       		.byte	0x52
 8506 01f4 9F       		.byte	0x9f
 8507 01f5 00000000 		.4byte	0
 8508 01f9 00000000 		.4byte	0
 8509              	.LLST15:
 8510 01fd 00000000 		.4byte	.LVL21
 8511 0201 0A000000 		.4byte	.LVL22
 8512 0205 0200     		.2byte	0x2
 8513 0207 30       		.byte	0x30
 8514 0208 9F       		.byte	0x9f
 8515 0209 0A000000 		.4byte	.LVL22
 8516 020d 1C000000 		.4byte	.LVL25
 8517 0211 0100     		.2byte	0x1
 8518 0213 54       		.byte	0x54
 8519 0214 00000000 		.4byte	0
 8520 0218 00000000 		.4byte	0
 8521              	.LLST16:
 8522 021c 00000000 		.4byte	.LFB2
 8523 0220 02000000 		.4byte	.LCFI4
 8524 0224 0200     		.2byte	0x2
 8525 0226 7D       		.byte	0x7d
 8526 0227 00       		.sleb128 0
 8527 0228 02000000 		.4byte	.LCFI4
 8528 022c 5A000000 		.4byte	.LFE2
 8529 0230 0200     		.2byte	0x2
 8530 0232 7D       		.byte	0x7d
 8531 0233 10       		.sleb128 16
 8532 0234 00000000 		.4byte	0
 8533 0238 00000000 		.4byte	0
 8534              	.LLST17:
 8535 023c 00000000 		.4byte	.LVL27
 8536 0240 04000000 		.4byte	.LVL28
 8537 0244 0100     		.2byte	0x1
 8538 0246 50       		.byte	0x50
 8539 0247 04000000 		.4byte	.LVL28
 8540 024b 5A000000 		.4byte	.LFE2
 8541 024f 0400     		.2byte	0x4
ARM GAS  C:\Users\CHUCK~1.ERH\AppData\Local\Temp\cc506n3q.s 			page 188


 8542 0251 F3       		.byte	0xf3
 8543 0252 01       		.uleb128 0x1
 8544 0253 50       		.byte	0x50
 8545 0254 9F       		.byte	0x9f
 8546 0255 00000000 		.4byte	0
 8547 0259 00000000 		.4byte	0
 8548              	.LLST18:
 8549 025d 4A000000 		.4byte	.LVL39
 8550 0261 51000000 		.4byte	.LVL40-1
 8551 0265 0100     		.2byte	0x1
 8552 0267 50       		.byte	0x50
 8553 0268 56000000 		.4byte	.LVL41
 8554 026c 58000000 		.4byte	.LVL42
 8555 0270 0100     		.2byte	0x1
 8556 0272 50       		.byte	0x50
 8557 0273 00000000 		.4byte	0
 8558 0277 00000000 		.4byte	0
 8559              	.LLST19:
 8560 027b 00000000 		.4byte	.LFB44
 8561 027f 02000000 		.4byte	.LCFI5
 8562 0283 0200     		.2byte	0x2
 8563 0285 7D       		.byte	0x7d
 8564 0286 00       		.sleb128 0
 8565 0287 02000000 		.4byte	.LCFI5
 8566 028b 14000000 		.4byte	.LFE44
 8567 028f 0200     		.2byte	0x2
 8568 0291 7D       		.byte	0x7d
 8569 0292 08       		.sleb128 8
 8570 0293 00000000 		.4byte	0
 8571 0297 00000000 		.4byte	0
 8572              	.LLST20:
 8573 029b 00000000 		.4byte	.LVL43
 8574 029f 06000000 		.4byte	.LVL44
 8575 02a3 0100     		.2byte	0x1
 8576 02a5 50       		.byte	0x50
 8577 02a6 06000000 		.4byte	.LVL44
 8578 02aa 14000000 		.4byte	.LFE44
 8579 02ae 0400     		.2byte	0x4
 8580 02b0 F3       		.byte	0xf3
 8581 02b1 01       		.uleb128 0x1
 8582 02b2 50       		.byte	0x50
 8583 02b3 9F       		.byte	0x9f
 8584 02b4 00000000 		.4byte	0
 8585 02b8 00000000 		.4byte	0
 8586              	.LLST21:
 8587 02bc 00000000 		.4byte	.LFB8
 8588 02c0 02000000 		.4byte	.LCFI6
 8589 02c4 0200     		.2byte	0x2
 8590 02c6 7D       		.byte	0x7d
 8591 02c7 00       		.sleb128 0
 8592 02c8 02000000 		.4byte	.LCFI6
 8593 02cc 1A000000 		.4byte	.LFE8
 8594 02d0 0200     		.2byte	0x2
 8595 02d2 7D       		.byte	0x7d
 8596 02d3 10       		.sleb128 16
 8597 02d4 00000000 		.4byte	0
 8598 02d8 00000000 		.4byte	0
ARM GAS  C:\Users\CHUCK~1.ERH\AppData\Local\Temp\cc506n3q.s 			page 189


 8599              	.LLST22:
 8600 02dc 00000000 		.4byte	.LVL46
 8601 02e0 07000000 		.4byte	.LVL47-1
 8602 02e4 0100     		.2byte	0x1
 8603 02e6 50       		.byte	0x50
 8604 02e7 07000000 		.4byte	.LVL47-1
 8605 02eb 1A000000 		.4byte	.LFE8
 8606 02ef 0400     		.2byte	0x4
 8607 02f1 F3       		.byte	0xf3
 8608 02f2 01       		.uleb128 0x1
 8609 02f3 50       		.byte	0x50
 8610 02f4 9F       		.byte	0x9f
 8611 02f5 00000000 		.4byte	0
 8612 02f9 00000000 		.4byte	0
 8613              	.LLST23:
 8614 02fd 08000000 		.4byte	.LVL47
 8615 0301 0E000000 		.4byte	.LVL48
 8616 0305 0100     		.2byte	0x1
 8617 0307 50       		.byte	0x50
 8618 0308 14000000 		.4byte	.LVL50
 8619 030c 16000000 		.4byte	.LVL51
 8620 0310 0900     		.2byte	0x9
 8621 0312 70       		.byte	0x70
 8622 0313 00       		.sleb128 0
 8623 0314 08       		.byte	0x8
 8624 0315 FF       		.byte	0xff
 8625 0316 1A       		.byte	0x1a
 8626 0317 75       		.byte	0x75
 8627 0318 00       		.sleb128 0
 8628 0319 22       		.byte	0x22
 8629 031a 9F       		.byte	0x9f
 8630 031b 00000000 		.4byte	0
 8631 031f 00000000 		.4byte	0
 8632              	.LLST24:
 8633 0323 00000000 		.4byte	.LFB111
 8634 0327 02000000 		.4byte	.LCFI7
 8635 032b 0200     		.2byte	0x2
 8636 032d 7D       		.byte	0x7d
 8637 032e 00       		.sleb128 0
 8638 032f 02000000 		.4byte	.LCFI7
 8639 0333 60000000 		.4byte	.LFE111
 8640 0337 0200     		.2byte	0x2
 8641 0339 7D       		.byte	0x7d
 8642 033a 20       		.sleb128 32
 8643 033b 00000000 		.4byte	0
 8644 033f 00000000 		.4byte	0
 8645              	.LLST25:
 8646 0343 00000000 		.4byte	.LVL52
 8647 0347 0C000000 		.4byte	.LVL54
 8648 034b 0100     		.2byte	0x1
 8649 034d 50       		.byte	0x50
 8650 034e 0C000000 		.4byte	.LVL54
 8651 0352 60000000 		.4byte	.LFE111
 8652 0356 0400     		.2byte	0x4
 8653 0358 F3       		.byte	0xf3
 8654 0359 01       		.uleb128 0x1
 8655 035a 50       		.byte	0x50
ARM GAS  C:\Users\CHUCK~1.ERH\AppData\Local\Temp\cc506n3q.s 			page 190


 8656 035b 9F       		.byte	0x9f
 8657 035c 00000000 		.4byte	0
 8658 0360 00000000 		.4byte	0
 8659              	.LLST26:
 8660 0364 00000000 		.4byte	.LVL52
 8661 0368 15000000 		.4byte	.LVL55-1
 8662 036c 0100     		.2byte	0x1
 8663 036e 51       		.byte	0x51
 8664 036f 15000000 		.4byte	.LVL55-1
 8665 0373 48000000 		.4byte	.LVL64
 8666 0377 0100     		.2byte	0x1
 8667 0379 56       		.byte	0x56
 8668 037a 48000000 		.4byte	.LVL64
 8669 037e 60000000 		.4byte	.LFE111
 8670 0382 0400     		.2byte	0x4
 8671 0384 F3       		.byte	0xf3
 8672 0385 01       		.uleb128 0x1
 8673 0386 51       		.byte	0x51
 8674 0387 9F       		.byte	0x9f
 8675 0388 00000000 		.4byte	0
 8676 038c 00000000 		.4byte	0
 8677              	.LLST27:
 8678 0390 00000000 		.4byte	.LVL52
 8679 0394 06000000 		.4byte	.LVL53
 8680 0398 0100     		.2byte	0x1
 8681 039a 52       		.byte	0x52
 8682 039b 06000000 		.4byte	.LVL53
 8683 039f 60000000 		.4byte	.LFE111
 8684 03a3 0400     		.2byte	0x4
 8685 03a5 F3       		.byte	0xf3
 8686 03a6 01       		.uleb128 0x1
 8687 03a7 52       		.byte	0x52
 8688 03a8 9F       		.byte	0x9f
 8689 03a9 00000000 		.4byte	0
 8690 03ad 00000000 		.4byte	0
 8691              	.LLST28:
 8692 03b1 34000000 		.4byte	.LVL60
 8693 03b5 38000000 		.4byte	.LVL62
 8694 03b9 0100     		.2byte	0x1
 8695 03bb 52       		.byte	0x52
 8696 03bc 38000000 		.4byte	.LVL62
 8697 03c0 41000000 		.4byte	.LVL63-1
 8698 03c4 0100     		.2byte	0x1
 8699 03c6 50       		.byte	0x50
 8700 03c7 41000000 		.4byte	.LVL63-1
 8701 03cb 60000000 		.4byte	.LFE111
 8702 03cf 0C00     		.2byte	0xc
 8703 03d1 91       		.byte	0x91
 8704 03d2 64       		.sleb128 -28
 8705 03d3 06       		.byte	0x6
 8706 03d4 45       		.byte	0x45
 8707 03d5 24       		.byte	0x24
 8708 03d6 45       		.byte	0x45
 8709 03d7 25       		.byte	0x25
 8710 03d8 91       		.byte	0x91
 8711 03d9 60       		.sleb128 -32
 8712 03da 06       		.byte	0x6
ARM GAS  C:\Users\CHUCK~1.ERH\AppData\Local\Temp\cc506n3q.s 			page 191


 8713 03db 22       		.byte	0x22
 8714 03dc 9F       		.byte	0x9f
 8715 03dd 00000000 		.4byte	0
 8716 03e1 00000000 		.4byte	0
 8717              	.LLST29:
 8718 03e5 1E000000 		.4byte	.LVL57
 8719 03e9 4E000000 		.4byte	.LVL65
 8720 03ed 0200     		.2byte	0x2
 8721 03ef 91       		.byte	0x91
 8722 03f0 64       		.sleb128 -28
 8723 03f1 4E000000 		.4byte	.LVL65
 8724 03f5 52000000 		.4byte	.LVL66
 8725 03f9 0800     		.2byte	0x8
 8726 03fb 91       		.byte	0x91
 8727 03fc 64       		.sleb128 -28
 8728 03fd 94       		.byte	0x94
 8729 03fe 02       		.byte	0x2
 8730 03ff 74       		.byte	0x74
 8731 0400 00       		.sleb128 0
 8732 0401 22       		.byte	0x22
 8733 0402 9F       		.byte	0x9f
 8734 0403 00000000 		.4byte	0
 8735 0407 00000000 		.4byte	0
 8736              	.LLST30:
 8737 040b 22000000 		.4byte	.LVL58
 8738 040f 30000000 		.4byte	.LVL59
 8739 0413 0100     		.2byte	0x1
 8740 0415 51       		.byte	0x51
 8741 0416 30000000 		.4byte	.LVL59
 8742 041a 60000000 		.4byte	.LFE111
 8743 041e 0800     		.2byte	0x8
 8744 0420 91       		.byte	0x91
 8745 0421 64       		.sleb128 -28
 8746 0422 06       		.byte	0x6
 8747 0423 45       		.byte	0x45
 8748 0424 24       		.byte	0x24
 8749 0425 45       		.byte	0x45
 8750 0426 25       		.byte	0x25
 8751 0427 9F       		.byte	0x9f
 8752 0428 00000000 		.4byte	0
 8753 042c 00000000 		.4byte	0
 8754              	.LLST31:
 8755 0430 34000000 		.4byte	.LVL60
 8756 0434 36000000 		.4byte	.LVL61
 8757 0438 0100     		.2byte	0x1
 8758 043a 51       		.byte	0x51
 8759 043b 36000000 		.4byte	.LVL61
 8760 043f 5A000000 		.4byte	.LVL68
 8761 0443 0100     		.2byte	0x1
 8762 0445 55       		.byte	0x55
 8763 0446 5A000000 		.4byte	.LVL68
 8764 044a 60000000 		.4byte	.LFE111
 8765 044e 0C00     		.2byte	0xc
 8766 0450 0A       		.byte	0xa
 8767 0451 0008     		.2byte	0x800
 8768 0453 91       		.byte	0x91
 8769 0454 64       		.sleb128 -28
ARM GAS  C:\Users\CHUCK~1.ERH\AppData\Local\Temp\cc506n3q.s 			page 192


 8770 0455 06       		.byte	0x6
 8771 0456 45       		.byte	0x45
 8772 0457 24       		.byte	0x24
 8773 0458 45       		.byte	0x45
 8774 0459 25       		.byte	0x25
 8775 045a 1C       		.byte	0x1c
 8776 045b 9F       		.byte	0x9f
 8777 045c 00000000 		.4byte	0
 8778 0460 00000000 		.4byte	0
 8779              	.LLST32:
 8780 0464 00000000 		.4byte	.LVL52
 8781 0468 0C000000 		.4byte	.LVL54
 8782 046c 0100     		.2byte	0x1
 8783 046e 50       		.byte	0x50
 8784 046f 0C000000 		.4byte	.LVL54
 8785 0473 1C000000 		.4byte	.LVL56
 8786 0477 0100     		.2byte	0x1
 8787 0479 55       		.byte	0x55
 8788 047a 00000000 		.4byte	0
 8789 047e 00000000 		.4byte	0
 8790              	.LLST33:
 8791 0482 4E000000 		.4byte	.LVL65
 8792 0486 52000000 		.4byte	.LVL66
 8793 048a 0800     		.2byte	0x8
 8794 048c 91       		.byte	0x91
 8795 048d 64       		.sleb128 -28
 8796 048e 94       		.byte	0x94
 8797 048f 02       		.byte	0x2
 8798 0490 74       		.byte	0x74
 8799 0491 00       		.sleb128 0
 8800 0492 22       		.byte	0x22
 8801 0493 9F       		.byte	0x9f
 8802 0494 00000000 		.4byte	0
 8803 0498 00000000 		.4byte	0
 8804              	.LLST34:
 8805 049c 00000000 		.4byte	.LFB71
 8806 04a0 04000000 		.4byte	.LCFI8
 8807 04a4 0200     		.2byte	0x2
 8808 04a6 7D       		.byte	0x7d
 8809 04a7 00       		.sleb128 0
 8810 04a8 04000000 		.4byte	.LCFI8
 8811 04ac 2C000000 		.4byte	.LFE71
 8812 04b0 0200     		.2byte	0x2
 8813 04b2 7D       		.byte	0x7d
 8814 04b3 10       		.sleb128 16
 8815 04b4 00000000 		.4byte	0
 8816 04b8 00000000 		.4byte	0
 8817              	.LLST35:
 8818 04bc 00000000 		.4byte	.LVL69
 8819 04c0 08000000 		.4byte	.LVL70
 8820 04c4 0100     		.2byte	0x1
 8821 04c6 50       		.byte	0x50
 8822 04c7 08000000 		.4byte	.LVL70
 8823 04cb 2C000000 		.4byte	.LFE71
 8824 04cf 0400     		.2byte	0x4
 8825 04d1 F3       		.byte	0xf3
 8826 04d2 01       		.uleb128 0x1
ARM GAS  C:\Users\CHUCK~1.ERH\AppData\Local\Temp\cc506n3q.s 			page 193


 8827 04d3 50       		.byte	0x50
 8828 04d4 9F       		.byte	0x9f
 8829 04d5 00000000 		.4byte	0
 8830 04d9 00000000 		.4byte	0
 8831              	.LLST36:
 8832 04dd 00000000 		.4byte	.LVL69
 8833 04e1 0C000000 		.4byte	.LVL71
 8834 04e5 0200     		.2byte	0x2
 8835 04e7 30       		.byte	0x30
 8836 04e8 9F       		.byte	0x9f
 8837 04e9 00000000 		.4byte	0
 8838 04ed 00000000 		.4byte	0
 8839              	.LLST37:
 8840 04f1 00000000 		.4byte	.LVL69
 8841 04f5 0C000000 		.4byte	.LVL71
 8842 04f9 0200     		.2byte	0x2
 8843 04fb 30       		.byte	0x30
 8844 04fc 9F       		.byte	0x9f
 8845 04fd 0C000000 		.4byte	.LVL71
 8846 0501 24000000 		.4byte	.LVL75
 8847 0505 0100     		.2byte	0x1
 8848 0507 55       		.byte	0x55
 8849 0508 00000000 		.4byte	0
 8850 050c 00000000 		.4byte	0
 8851              	.LLST38:
 8852 0510 00000000 		.4byte	.LFB10
 8853 0514 02000000 		.4byte	.LCFI9
 8854 0518 0200     		.2byte	0x2
 8855 051a 7D       		.byte	0x7d
 8856 051b 00       		.sleb128 0
 8857 051c 02000000 		.4byte	.LCFI9
 8858 0520 1E000000 		.4byte	.LFE10
 8859 0524 0200     		.2byte	0x2
 8860 0526 7D       		.byte	0x7d
 8861 0527 18       		.sleb128 24
 8862 0528 00000000 		.4byte	0
 8863 052c 00000000 		.4byte	0
 8864              	.LLST39:
 8865 0530 00000000 		.4byte	.LVL76
 8866 0534 0A000000 		.4byte	.LVL77
 8867 0538 0100     		.2byte	0x1
 8868 053a 50       		.byte	0x50
 8869 053b 0A000000 		.4byte	.LVL77
 8870 053f 1E000000 		.4byte	.LFE10
 8871 0543 0400     		.2byte	0x4
 8872 0545 F3       		.byte	0xf3
 8873 0546 01       		.uleb128 0x1
 8874 0547 50       		.byte	0x50
 8875 0548 9F       		.byte	0x9f
 8876 0549 00000000 		.4byte	0
 8877 054d 00000000 		.4byte	0
 8878              	.LLST40:
 8879 0551 00000000 		.4byte	.LVL76
 8880 0555 0A000000 		.4byte	.LVL77
 8881 0559 0100     		.2byte	0x1
 8882 055b 51       		.byte	0x51
 8883 055c 0A000000 		.4byte	.LVL77
ARM GAS  C:\Users\CHUCK~1.ERH\AppData\Local\Temp\cc506n3q.s 			page 194


 8884 0560 1C000000 		.4byte	.LVL81
 8885 0564 0100     		.2byte	0x1
 8886 0566 57       		.byte	0x57
 8887 0567 1C000000 		.4byte	.LVL81
 8888 056b 1E000000 		.4byte	.LFE10
 8889 056f 0400     		.2byte	0x4
 8890 0571 F3       		.byte	0xf3
 8891 0572 01       		.uleb128 0x1
 8892 0573 51       		.byte	0x51
 8893 0574 9F       		.byte	0x9f
 8894 0575 00000000 		.4byte	0
 8895 0579 00000000 		.4byte	0
 8896              	.LLST41:
 8897 057d 00000000 		.4byte	.LVL76
 8898 0581 0A000000 		.4byte	.LVL77
 8899 0585 0100     		.2byte	0x1
 8900 0587 52       		.byte	0x52
 8901 0588 0A000000 		.4byte	.LVL77
 8902 058c 1E000000 		.4byte	.LFE10
 8903 0590 0400     		.2byte	0x4
 8904 0592 F3       		.byte	0xf3
 8905 0593 01       		.uleb128 0x1
 8906 0594 52       		.byte	0x52
 8907 0595 9F       		.byte	0x9f
 8908 0596 00000000 		.4byte	0
 8909 059a 00000000 		.4byte	0
 8910              	.LLST42:
 8911 059e 00000000 		.4byte	.LVL76
 8912 05a2 0A000000 		.4byte	.LVL77
 8913 05a6 0200     		.2byte	0x2
 8914 05a8 30       		.byte	0x30
 8915 05a9 9F       		.byte	0x9f
 8916 05aa 0A000000 		.4byte	.LVL77
 8917 05ae 1C000000 		.4byte	.LVL80
 8918 05b2 0100     		.2byte	0x1
 8919 05b4 54       		.byte	0x54
 8920 05b5 00000000 		.4byte	0
 8921 05b9 00000000 		.4byte	0
 8922              	.LLST43:
 8923 05bd 00000000 		.4byte	.LFB112
 8924 05c1 02000000 		.4byte	.LCFI10
 8925 05c5 0200     		.2byte	0x2
 8926 05c7 7D       		.byte	0x7d
 8927 05c8 00       		.sleb128 0
 8928 05c9 02000000 		.4byte	.LCFI10
 8929 05cd 66000000 		.4byte	.LFE112
 8930 05d1 0200     		.2byte	0x2
 8931 05d3 7D       		.byte	0x7d
 8932 05d4 20       		.sleb128 32
 8933 05d5 00000000 		.4byte	0
 8934 05d9 00000000 		.4byte	0
 8935              	.LLST44:
 8936 05dd 00000000 		.4byte	.LVL82
 8937 05e1 0C000000 		.4byte	.LVL84
 8938 05e5 0100     		.2byte	0x1
 8939 05e7 50       		.byte	0x50
 8940 05e8 0C000000 		.4byte	.LVL84
ARM GAS  C:\Users\CHUCK~1.ERH\AppData\Local\Temp\cc506n3q.s 			page 195


 8941 05ec 66000000 		.4byte	.LFE112
 8942 05f0 0400     		.2byte	0x4
 8943 05f2 F3       		.byte	0xf3
 8944 05f3 01       		.uleb128 0x1
 8945 05f4 50       		.byte	0x50
 8946 05f5 9F       		.byte	0x9f
 8947 05f6 00000000 		.4byte	0
 8948 05fa 00000000 		.4byte	0
 8949              	.LLST45:
 8950 05fe 00000000 		.4byte	.LVL82
 8951 0602 10000000 		.4byte	.LVL85
 8952 0606 0100     		.2byte	0x1
 8953 0608 51       		.byte	0x51
 8954 0609 10000000 		.4byte	.LVL85
 8955 060d 66000000 		.4byte	.LFE112
 8956 0611 0400     		.2byte	0x4
 8957 0613 F3       		.byte	0xf3
 8958 0614 01       		.uleb128 0x1
 8959 0615 51       		.byte	0x51
 8960 0616 9F       		.byte	0x9f
 8961 0617 00000000 		.4byte	0
 8962 061b 00000000 		.4byte	0
 8963              	.LLST46:
 8964 061f 00000000 		.4byte	.LVL82
 8965 0623 06000000 		.4byte	.LVL83
 8966 0627 0100     		.2byte	0x1
 8967 0629 52       		.byte	0x52
 8968 062a 06000000 		.4byte	.LVL83
 8969 062e 52000000 		.4byte	.LVL94
 8970 0632 0100     		.2byte	0x1
 8971 0634 56       		.byte	0x56
 8972 0635 52000000 		.4byte	.LVL94
 8973 0639 66000000 		.4byte	.LFE112
 8974 063d 0400     		.2byte	0x4
 8975 063f F3       		.byte	0xf3
 8976 0640 01       		.uleb128 0x1
 8977 0641 52       		.byte	0x52
 8978 0642 9F       		.byte	0x9f
 8979 0643 00000000 		.4byte	0
 8980 0647 00000000 		.4byte	0
 8981              	.LLST47:
 8982 064b 00000000 		.4byte	.LVL82
 8983 064f 19000000 		.4byte	.LVL86-1
 8984 0653 0100     		.2byte	0x1
 8985 0655 53       		.byte	0x53
 8986 0656 19000000 		.4byte	.LVL86-1
 8987 065a 66000000 		.4byte	.LFE112
 8988 065e 0400     		.2byte	0x4
 8989 0660 F3       		.byte	0xf3
 8990 0661 01       		.uleb128 0x1
 8991 0662 53       		.byte	0x53
 8992 0663 9F       		.byte	0x9f
 8993 0664 00000000 		.4byte	0
 8994 0668 00000000 		.4byte	0
 8995              	.LLST48:
 8996 066c 3E000000 		.4byte	.LVL91
 8997 0670 42000000 		.4byte	.LVL92
ARM GAS  C:\Users\CHUCK~1.ERH\AppData\Local\Temp\cc506n3q.s 			page 196


 8998 0674 0100     		.2byte	0x1
 8999 0676 52       		.byte	0x52
 9000 0677 42000000 		.4byte	.LVL92
 9001 067b 4B000000 		.4byte	.LVL93-1
 9002 067f 0100     		.2byte	0x1
 9003 0681 50       		.byte	0x50
 9004 0682 4B000000 		.4byte	.LVL93-1
 9005 0686 66000000 		.4byte	.LFE112
 9006 068a 0C00     		.2byte	0xc
 9007 068c 91       		.byte	0x91
 9008 068d 60       		.sleb128 -32
 9009 068e 06       		.byte	0x6
 9010 068f 45       		.byte	0x45
 9011 0690 24       		.byte	0x24
 9012 0691 45       		.byte	0x45
 9013 0692 25       		.byte	0x25
 9014 0693 91       		.byte	0x91
 9015 0694 64       		.sleb128 -28
 9016 0695 06       		.byte	0x6
 9017 0696 22       		.byte	0x22
 9018 0697 9F       		.byte	0x9f
 9019 0698 00000000 		.4byte	0
 9020 069c 00000000 		.4byte	0
 9021              	.LLST49:
 9022 06a0 28000000 		.4byte	.LVL88
 9023 06a4 58000000 		.4byte	.LVL95
 9024 06a8 0200     		.2byte	0x2
 9025 06aa 91       		.byte	0x91
 9026 06ab 60       		.sleb128 -32
 9027 06ac 58000000 		.4byte	.LVL95
 9028 06b0 5C000000 		.4byte	.LVL96
 9029 06b4 0800     		.2byte	0x8
 9030 06b6 91       		.byte	0x91
 9031 06b7 60       		.sleb128 -32
 9032 06b8 94       		.byte	0x94
 9033 06b9 02       		.byte	0x2
 9034 06ba 74       		.byte	0x74
 9035 06bb 00       		.sleb128 0
 9036 06bc 22       		.byte	0x22
 9037 06bd 9F       		.byte	0x9f
 9038 06be 00000000 		.4byte	0
 9039 06c2 00000000 		.4byte	0
 9040              	.LLST50:
 9041 06c6 2C000000 		.4byte	.LVL89
 9042 06ca 3A000000 		.4byte	.LVL90
 9043 06ce 0100     		.2byte	0x1
 9044 06d0 53       		.byte	0x53
 9045 06d1 3A000000 		.4byte	.LVL90
 9046 06d5 66000000 		.4byte	.LFE112
 9047 06d9 0800     		.2byte	0x8
 9048 06db 91       		.byte	0x91
 9049 06dc 60       		.sleb128 -32
 9050 06dd 06       		.byte	0x6
 9051 06de 45       		.byte	0x45
 9052 06df 24       		.byte	0x24
 9053 06e0 45       		.byte	0x45
 9054 06e1 25       		.byte	0x25
ARM GAS  C:\Users\CHUCK~1.ERH\AppData\Local\Temp\cc506n3q.s 			page 197


 9055 06e2 9F       		.byte	0x9f
 9056 06e3 00000000 		.4byte	0
 9057 06e7 00000000 		.4byte	0
 9058              	.LLST51:
 9059 06eb 3E000000 		.4byte	.LVL91
 9060 06ef 4B000000 		.4byte	.LVL93-1
 9061 06f3 0100     		.2byte	0x1
 9062 06f5 53       		.byte	0x53
 9063 06f6 4B000000 		.4byte	.LVL93-1
 9064 06fa 64000000 		.4byte	.LVL98
 9065 06fe 0100     		.2byte	0x1
 9066 0700 55       		.byte	0x55
 9067 0701 64000000 		.4byte	.LVL98
 9068 0705 66000000 		.4byte	.LFE112
 9069 0709 0C00     		.2byte	0xc
 9070 070b 0A       		.byte	0xa
 9071 070c 0008     		.2byte	0x800
 9072 070e 91       		.byte	0x91
 9073 070f 60       		.sleb128 -32
 9074 0710 06       		.byte	0x6
 9075 0711 45       		.byte	0x45
 9076 0712 24       		.byte	0x24
 9077 0713 45       		.byte	0x45
 9078 0714 25       		.byte	0x25
 9079 0715 1C       		.byte	0x1c
 9080 0716 9F       		.byte	0x9f
 9081 0717 00000000 		.4byte	0
 9082 071b 00000000 		.4byte	0
 9083              	.LLST52:
 9084 071f 00000000 		.4byte	.LVL82
 9085 0723 0C000000 		.4byte	.LVL84
 9086 0727 0100     		.2byte	0x1
 9087 0729 50       		.byte	0x50
 9088 072a 0C000000 		.4byte	.LVL84
 9089 072e 1E000000 		.4byte	.LVL87
 9090 0732 0100     		.2byte	0x1
 9091 0734 55       		.byte	0x55
 9092 0735 00000000 		.4byte	0
 9093 0739 00000000 		.4byte	0
 9094              	.LLST53:
 9095 073d 58000000 		.4byte	.LVL95
 9096 0741 5C000000 		.4byte	.LVL96
 9097 0745 0800     		.2byte	0x8
 9098 0747 91       		.byte	0x91
 9099 0748 60       		.sleb128 -32
 9100 0749 94       		.byte	0x94
 9101 074a 02       		.byte	0x2
 9102 074b 74       		.byte	0x74
 9103 074c 00       		.sleb128 0
 9104 074d 22       		.byte	0x22
 9105 074e 9F       		.byte	0x9f
 9106 074f 00000000 		.4byte	0
 9107 0753 00000000 		.4byte	0
 9108              	.LLST54:
 9109 0757 00000000 		.4byte	.LFB69
 9110 075b 02000000 		.4byte	.LCFI11
 9111 075f 0200     		.2byte	0x2
ARM GAS  C:\Users\CHUCK~1.ERH\AppData\Local\Temp\cc506n3q.s 			page 198


 9112 0761 7D       		.byte	0x7d
 9113 0762 00       		.sleb128 0
 9114 0763 02000000 		.4byte	.LCFI11
 9115 0767 34000000 		.4byte	.LFE69
 9116 076b 0200     		.2byte	0x2
 9117 076d 7D       		.byte	0x7d
 9118 076e 10       		.sleb128 16
 9119 076f 00000000 		.4byte	0
 9120 0773 00000000 		.4byte	0
 9121              	.LLST55:
 9122 0777 00000000 		.4byte	.LVL99
 9123 077b 08000000 		.4byte	.LVL100
 9124 077f 0100     		.2byte	0x1
 9125 0781 50       		.byte	0x50
 9126 0782 08000000 		.4byte	.LVL100
 9127 0786 34000000 		.4byte	.LFE69
 9128 078a 0400     		.2byte	0x4
 9129 078c F3       		.byte	0xf3
 9130 078d 01       		.uleb128 0x1
 9131 078e 50       		.byte	0x50
 9132 078f 9F       		.byte	0x9f
 9133 0790 00000000 		.4byte	0
 9134 0794 00000000 		.4byte	0
 9135              	.LLST56:
 9136 0798 00000000 		.4byte	.LVL99
 9137 079c 0C000000 		.4byte	.LVL101
 9138 07a0 0100     		.2byte	0x1
 9139 07a2 51       		.byte	0x51
 9140 07a3 0C000000 		.4byte	.LVL101
 9141 07a7 34000000 		.4byte	.LFE69
 9142 07ab 0400     		.2byte	0x4
 9143 07ad F3       		.byte	0xf3
 9144 07ae 01       		.uleb128 0x1
 9145 07af 51       		.byte	0x51
 9146 07b0 9F       		.byte	0x9f
 9147 07b1 00000000 		.4byte	0
 9148 07b5 00000000 		.4byte	0
 9149              	.LLST57:
 9150 07b9 00000000 		.4byte	.LVL99
 9151 07bd 14000000 		.4byte	.LVL103
 9152 07c1 0200     		.2byte	0x2
 9153 07c3 30       		.byte	0x30
 9154 07c4 9F       		.byte	0x9f
 9155 07c5 14000000 		.4byte	.LVL103
 9156 07c9 2E000000 		.4byte	.LVL107
 9157 07cd 0100     		.2byte	0x1
 9158 07cf 54       		.byte	0x54
 9159 07d0 2E000000 		.4byte	.LVL107
 9160 07d4 34000000 		.4byte	.LFE69
 9161 07d8 0100     		.2byte	0x1
 9162 07da 50       		.byte	0x50
 9163 07db 00000000 		.4byte	0
 9164 07df 00000000 		.4byte	0
 9165              	.LLST59:
 9166 07e3 00000000 		.4byte	.LVL99
 9167 07e7 08000000 		.4byte	.LVL100
 9168 07eb 0100     		.2byte	0x1
ARM GAS  C:\Users\CHUCK~1.ERH\AppData\Local\Temp\cc506n3q.s 			page 199


 9169 07ed 50       		.byte	0x50
 9170 07ee 00000000 		.4byte	0
 9171 07f2 00000000 		.4byte	0
 9172              	.LLST60:
 9173 07f6 00000000 		.4byte	.LFB106
 9174 07fa 02000000 		.4byte	.LCFI12
 9175 07fe 0200     		.2byte	0x2
 9176 0800 7D       		.byte	0x7d
 9177 0801 00       		.sleb128 0
 9178 0802 02000000 		.4byte	.LCFI12
 9179 0806 1E000000 		.4byte	.LFE106
 9180 080a 0200     		.2byte	0x2
 9181 080c 7D       		.byte	0x7d
 9182 080d 10       		.sleb128 16
 9183 080e 00000000 		.4byte	0
 9184 0812 00000000 		.4byte	0
 9185              	.LLST61:
 9186 0816 16000000 		.4byte	.LVL113
 9187 081a 1C000000 		.4byte	.LVL114
 9188 081e 0100     		.2byte	0x1
 9189 0820 54       		.byte	0x54
 9190 0821 00000000 		.4byte	0
 9191 0825 00000000 		.4byte	0
 9192              	.LLST62:
 9193 0829 02000000 		.4byte	.LVL109
 9194 082d 12000000 		.4byte	.LVL112
 9195 0831 0300     		.2byte	0x3
 9196 0833 91       		.byte	0x91
 9197 0834 74       		.sleb128 -12
 9198 0835 9F       		.byte	0x9f
 9199 0836 12000000 		.4byte	.LVL112
 9200 083a 1E000000 		.4byte	.LFE106
 9201 083e 0100     		.2byte	0x1
 9202 0840 53       		.byte	0x53
 9203 0841 00000000 		.4byte	0
 9204 0845 00000000 		.4byte	0
 9205              	.LLST63:
 9206 0849 00000000 		.4byte	.LFB88
 9207 084d 04000000 		.4byte	.LCFI13
 9208 0851 0200     		.2byte	0x2
 9209 0853 7D       		.byte	0x7d
 9210 0854 00       		.sleb128 0
 9211 0855 04000000 		.4byte	.LCFI13
 9212 0859 4C000000 		.4byte	.LFE88
 9213 085d 0200     		.2byte	0x2
 9214 085f 7D       		.byte	0x7d
 9215 0860 08       		.sleb128 8
 9216 0861 00000000 		.4byte	0
 9217 0865 00000000 		.4byte	0
 9218              	.LLST64:
 9219 0869 00000000 		.4byte	.LVL115
 9220 086d 0A000000 		.4byte	.LVL116
 9221 0871 0100     		.2byte	0x1
 9222 0873 50       		.byte	0x50
 9223 0874 0A000000 		.4byte	.LVL116
 9224 0878 4C000000 		.4byte	.LFE88
 9225 087c 0400     		.2byte	0x4
ARM GAS  C:\Users\CHUCK~1.ERH\AppData\Local\Temp\cc506n3q.s 			page 200


 9226 087e F3       		.byte	0xf3
 9227 087f 01       		.uleb128 0x1
 9228 0880 50       		.byte	0x50
 9229 0881 9F       		.byte	0x9f
 9230 0882 00000000 		.4byte	0
 9231 0886 00000000 		.4byte	0
 9232              	.LLST65:
 9233 088a 24000000 		.4byte	.LVL120
 9234 088e 2C000000 		.4byte	.LVL121
 9235 0892 0100     		.2byte	0x1
 9236 0894 50       		.byte	0x50
 9237 0895 32000000 		.4byte	.LVL123
 9238 0899 34000000 		.4byte	.LVL124
 9239 089d 0100     		.2byte	0x1
 9240 089f 50       		.byte	0x50
 9241 08a0 00000000 		.4byte	0
 9242 08a4 00000000 		.4byte	0
 9243              	.LLST66:
 9244 08a8 00000000 		.4byte	.LVL115
 9245 08ac 0D000000 		.4byte	.LVL117-1
 9246 08b0 0500     		.2byte	0x5
 9247 08b2 03       		.byte	0x3
 9248 08b3 00000000 		.4byte	W5100_SubnetMask
 9249 08b7 00000000 		.4byte	0
 9250 08bb 00000000 		.4byte	0
 9251              	.LLST67:
 9252 08bf 16000000 		.4byte	.LVL118
 9253 08c3 1E000000 		.4byte	.LVL119
 9254 08c7 0100     		.2byte	0x1
 9255 08c9 54       		.byte	0x54
 9256 08ca 00000000 		.4byte	0
 9257 08ce 00000000 		.4byte	0
 9258              	.LLST68:
 9259 08d2 00000000 		.4byte	.LFB76
 9260 08d6 02000000 		.4byte	.LCFI14
 9261 08da 0200     		.2byte	0x2
 9262 08dc 7D       		.byte	0x7d
 9263 08dd 00       		.sleb128 0
 9264 08de 02000000 		.4byte	.LCFI14
 9265 08e2 06000000 		.4byte	.LCFI15
 9266 08e6 0200     		.2byte	0x2
 9267 08e8 7D       		.byte	0x7d
 9268 08e9 14       		.sleb128 20
 9269 08ea 06000000 		.4byte	.LCFI15
 9270 08ee 88000000 		.4byte	.LFE76
 9271 08f2 0200     		.2byte	0x2
 9272 08f4 7D       		.byte	0x7d
 9273 08f5 30       		.sleb128 48
 9274 08f6 00000000 		.4byte	0
 9275 08fa 00000000 		.4byte	0
 9276              	.LLST69:
 9277 08fe 00000000 		.4byte	.LVL127
 9278 0902 0C000000 		.4byte	.LVL128
 9279 0906 0100     		.2byte	0x1
 9280 0908 50       		.byte	0x50
 9281 0909 0C000000 		.4byte	.LVL128
 9282 090d 78000000 		.4byte	.LVL140
ARM GAS  C:\Users\CHUCK~1.ERH\AppData\Local\Temp\cc506n3q.s 			page 201


 9283 0911 0100     		.2byte	0x1
 9284 0913 57       		.byte	0x57
 9285 0914 78000000 		.4byte	.LVL140
 9286 0918 88000000 		.4byte	.LFE76
 9287 091c 0400     		.2byte	0x4
 9288 091e F3       		.byte	0xf3
 9289 091f 01       		.uleb128 0x1
 9290 0920 50       		.byte	0x50
 9291 0921 9F       		.byte	0x9f
 9292 0922 00000000 		.4byte	0
 9293 0926 00000000 		.4byte	0
 9294              	.LLST70:
 9295 092a 00000000 		.4byte	.LVL127
 9296 092e 0C000000 		.4byte	.LVL128
 9297 0932 0200     		.2byte	0x2
 9298 0934 30       		.byte	0x30
 9299 0935 9F       		.byte	0x9f
 9300 0936 66000000 		.4byte	.LVL137
 9301 093a 72000000 		.4byte	.LVL139
 9302 093e 0100     		.2byte	0x1
 9303 0940 56       		.byte	0x56
 9304 0941 00000000 		.4byte	0
 9305 0945 00000000 		.4byte	0
 9306              	.LLST71:
 9307 0949 00000000 		.4byte	.LVL127
 9308 094d 0C000000 		.4byte	.LVL128
 9309 0951 0200     		.2byte	0x2
 9310 0953 30       		.byte	0x30
 9311 0954 9F       		.byte	0x9f
 9312 0955 64000000 		.4byte	.LVL136
 9313 0959 70000000 		.4byte	.LVL138
 9314 095d 0100     		.2byte	0x1
 9315 095f 55       		.byte	0x55
 9316 0960 00000000 		.4byte	0
 9317 0964 00000000 		.4byte	0
 9318              	.LLST72:
 9319 0968 00000000 		.4byte	.LVL127
 9320 096c 0C000000 		.4byte	.LVL128
 9321 0970 0200     		.2byte	0x2
 9322 0972 30       		.byte	0x30
 9323 0973 9F       		.byte	0x9f
 9324 0974 30000000 		.4byte	.LVL130
 9325 0978 44000000 		.4byte	.LVL132
 9326 097c 0100     		.2byte	0x1
 9327 097e 54       		.byte	0x54
 9328 097f 44000000 		.4byte	.LVL132
 9329 0983 48000000 		.4byte	.LVL133
 9330 0987 0200     		.2byte	0x2
 9331 0989 30       		.byte	0x30
 9332 098a 9F       		.byte	0x9f
 9333 098b 48000000 		.4byte	.LVL133
 9334 098f 62000000 		.4byte	.LVL135
 9335 0993 0100     		.2byte	0x1
 9336 0995 53       		.byte	0x53
 9337 0996 62000000 		.4byte	.LVL135
 9338 099a 64000000 		.4byte	.LVL136
 9339 099e 0200     		.2byte	0x2
ARM GAS  C:\Users\CHUCK~1.ERH\AppData\Local\Temp\cc506n3q.s 			page 202


 9340 09a0 30       		.byte	0x30
 9341 09a1 9F       		.byte	0x9f
 9342 09a2 64000000 		.4byte	.LVL136
 9343 09a6 80000000 		.4byte	.LVL141
 9344 09aa 0100     		.2byte	0x1
 9345 09ac 54       		.byte	0x54
 9346 09ad 00000000 		.4byte	0
 9347 09b1 00000000 		.4byte	0
 9348              	.LLST73:
 9349 09b5 00000000 		.4byte	.LFB77
 9350 09b9 02000000 		.4byte	.LCFI16
 9351 09bd 0200     		.2byte	0x2
 9352 09bf 7D       		.byte	0x7d
 9353 09c0 00       		.sleb128 0
 9354 09c1 02000000 		.4byte	.LCFI16
 9355 09c5 0E010000 		.4byte	.LFE77
 9356 09c9 0200     		.2byte	0x2
 9357 09cb 7D       		.byte	0x7d
 9358 09cc 20       		.sleb128 32
 9359 09cd 00000000 		.4byte	0
 9360 09d1 00000000 		.4byte	0
 9361              	.LLST74:
 9362 09d5 00000000 		.4byte	.LVL142
 9363 09d9 08000000 		.4byte	.LVL143
 9364 09dd 0100     		.2byte	0x1
 9365 09df 50       		.byte	0x50
 9366 09e0 08000000 		.4byte	.LVL143
 9367 09e4 0E010000 		.4byte	.LFE77
 9368 09e8 0100     		.2byte	0x1
 9369 09ea 53       		.byte	0x53
 9370 09eb 00000000 		.4byte	0
 9371 09ef 00000000 		.4byte	0
 9372              	.LLST75:
 9373 09f3 00000000 		.4byte	.LVL142
 9374 09f7 08000000 		.4byte	.LVL143
 9375 09fb 0200     		.2byte	0x2
 9376 09fd 30       		.byte	0x30
 9377 09fe 9F       		.byte	0x9f
 9378 09ff 02010000 		.4byte	.LVL170
 9379 0a03 0C010000 		.4byte	.LVL171
 9380 0a07 0100     		.2byte	0x1
 9381 0a09 54       		.byte	0x54
 9382 0a0a 00000000 		.4byte	0
 9383 0a0e 00000000 		.4byte	0
 9384              	.LLST76:
 9385 0a12 00000000 		.4byte	.LVL142
 9386 0a16 08000000 		.4byte	.LVL143
 9387 0a1a 0200     		.2byte	0x2
 9388 0a1c 30       		.byte	0x30
 9389 0a1d 9F       		.byte	0x9f
 9390 0a1e 28000000 		.4byte	.LVL144
 9391 0a22 38000000 		.4byte	.LVL146
 9392 0a26 0100     		.2byte	0x1
 9393 0a28 57       		.byte	0x57
 9394 0a29 38000000 		.4byte	.LVL146
 9395 0a2d 3E000000 		.4byte	.LVL147
 9396 0a31 0100     		.2byte	0x1
ARM GAS  C:\Users\CHUCK~1.ERH\AppData\Local\Temp\cc506n3q.s 			page 203


 9397 0a33 52       		.byte	0x52
 9398 0a34 3E000000 		.4byte	.LVL147
 9399 0a38 42000000 		.4byte	.LVL148
 9400 0a3c 0100     		.2byte	0x1
 9401 0a3e 57       		.byte	0x57
 9402 0a3f 42000000 		.4byte	.LVL148
 9403 0a43 56000000 		.4byte	.LVL150
 9404 0a47 0100     		.2byte	0x1
 9405 0a49 50       		.byte	0x50
 9406 0a4a 56000000 		.4byte	.LVL150
 9407 0a4e 58000000 		.4byte	.LVL151
 9408 0a52 0100     		.2byte	0x1
 9409 0a54 52       		.byte	0x52
 9410 0a55 58000000 		.4byte	.LVL151
 9411 0a59 5C000000 		.4byte	.LVL152
 9412 0a5d 0100     		.2byte	0x1
 9413 0a5f 50       		.byte	0x50
 9414 0a60 5C000000 		.4byte	.LVL152
 9415 0a64 90000000 		.4byte	.LVL155
 9416 0a68 0100     		.2byte	0x1
 9417 0a6a 52       		.byte	0x52
 9418 0a6b 90000000 		.4byte	.LVL155
 9419 0a6f 9E000000 		.4byte	.LVL157
 9420 0a73 0100     		.2byte	0x1
 9421 0a75 57       		.byte	0x57
 9422 0a76 9E000000 		.4byte	.LVL157
 9423 0a7a A0000000 		.4byte	.LVL158
 9424 0a7e 0300     		.2byte	0x3
 9425 0a80 72       		.byte	0x72
 9426 0a81 02       		.sleb128 2
 9427 0a82 9F       		.byte	0x9f
 9428 0a83 A0000000 		.4byte	.LVL158
 9429 0a87 A4000000 		.4byte	.LVL159
 9430 0a8b 0300     		.2byte	0x3
 9431 0a8d 72       		.byte	0x72
 9432 0a8e 7F       		.sleb128 -1
 9433 0a8f 9F       		.byte	0x9f
 9434 0a90 A6000000 		.4byte	.LVL160
 9435 0a94 AA000000 		.4byte	.LVL161
 9436 0a98 0100     		.2byte	0x1
 9437 0a9a 57       		.byte	0x57
 9438 0a9b AA000000 		.4byte	.LVL161
 9439 0a9f B8000000 		.4byte	.LVL163
 9440 0aa3 0100     		.2byte	0x1
 9441 0aa5 50       		.byte	0x50
 9442 0aa6 B8000000 		.4byte	.LVL163
 9443 0aaa BA000000 		.4byte	.LVL164
 9444 0aae 0300     		.2byte	0x3
 9445 0ab0 77       		.byte	0x77
 9446 0ab1 02       		.sleb128 2
 9447 0ab2 9F       		.byte	0x9f
 9448 0ab3 C0000000 		.4byte	.LVL165
 9449 0ab7 C4000000 		.4byte	.LVL166
 9450 0abb 0100     		.2byte	0x1
 9451 0abd 50       		.byte	0x50
 9452 0abe F6000000 		.4byte	.LVL167
 9453 0ac2 F8000000 		.4byte	.LVL168
ARM GAS  C:\Users\CHUCK~1.ERH\AppData\Local\Temp\cc506n3q.s 			page 204


 9454 0ac6 0100     		.2byte	0x1
 9455 0ac8 52       		.byte	0x52
 9456 0ac9 00010000 		.4byte	.LVL169
 9457 0acd 0C010000 		.4byte	.LVL171
 9458 0ad1 0100     		.2byte	0x1
 9459 0ad3 52       		.byte	0x52
 9460 0ad4 00000000 		.4byte	0
 9461 0ad8 00000000 		.4byte	0
 9462              	.LLST77:
 9463 0adc 00000000 		.4byte	.LVL142
 9464 0ae0 08000000 		.4byte	.LVL143
 9465 0ae4 0200     		.2byte	0x2
 9466 0ae6 30       		.byte	0x30
 9467 0ae7 9F       		.byte	0x9f
 9468 0ae8 F6000000 		.4byte	.LVL167
 9469 0aec F8000000 		.4byte	.LVL168
 9470 0af0 0200     		.2byte	0x2
 9471 0af2 36       		.byte	0x36
 9472 0af3 9F       		.byte	0x9f
 9473 0af4 00000000 		.4byte	0
 9474 0af8 00000000 		.4byte	0
 9475              	.LLST78:
 9476 0afc 00000000 		.4byte	.LFB78
 9477 0b00 02000000 		.4byte	.LCFI17
 9478 0b04 0200     		.2byte	0x2
 9479 0b06 7D       		.byte	0x7d
 9480 0b07 00       		.sleb128 0
 9481 0b08 02000000 		.4byte	.LCFI17
 9482 0b0c 62000000 		.4byte	.LFE78
 9483 0b10 0200     		.2byte	0x2
 9484 0b12 7D       		.byte	0x7d
 9485 0b13 18       		.sleb128 24
 9486 0b14 00000000 		.4byte	0
 9487 0b18 00000000 		.4byte	0
 9488              	.LLST79:
 9489 0b1c 00000000 		.4byte	.LVL172
 9490 0b20 06000000 		.4byte	.LVL174
 9491 0b24 0100     		.2byte	0x1
 9492 0b26 50       		.byte	0x50
 9493 0b27 06000000 		.4byte	.LVL174
 9494 0b2b 60000000 		.4byte	.LVL190
 9495 0b2f 0100     		.2byte	0x1
 9496 0b31 55       		.byte	0x55
 9497 0b32 60000000 		.4byte	.LVL190
 9498 0b36 62000000 		.4byte	.LFE78
 9499 0b3a 0400     		.2byte	0x4
 9500 0b3c F3       		.byte	0xf3
 9501 0b3d 01       		.uleb128 0x1
 9502 0b3e 50       		.byte	0x50
 9503 0b3f 9F       		.byte	0x9f
 9504 0b40 00000000 		.4byte	0
 9505 0b44 00000000 		.4byte	0
 9506              	.LLST80:
 9507 0b48 56000000 		.4byte	.LVL187
 9508 0b4c 5C000000 		.4byte	.LVL188
 9509 0b50 0100     		.2byte	0x1
 9510 0b52 52       		.byte	0x52
ARM GAS  C:\Users\CHUCK~1.ERH\AppData\Local\Temp\cc506n3q.s 			page 205


 9511 0b53 00000000 		.4byte	0
 9512 0b57 00000000 		.4byte	0
 9513              	.LLST81:
 9514 0b5b 34000000 		.4byte	.LVL182
 9515 0b5f 38000000 		.4byte	.LVL183
 9516 0b63 0300     		.2byte	0x3
 9517 0b65 73       		.byte	0x73
 9518 0b66 01       		.sleb128 1
 9519 0b67 9F       		.byte	0x9f
 9520 0b68 38000000 		.4byte	.LVL183
 9521 0b6c 3C000000 		.4byte	.LVL184
 9522 0b70 0100     		.2byte	0x1
 9523 0b72 56       		.byte	0x56
 9524 0b73 3C000000 		.4byte	.LVL184
 9525 0b77 48000000 		.4byte	.LVL185
 9526 0b7b 0300     		.2byte	0x3
 9527 0b7d 73       		.byte	0x73
 9528 0b7e 01       		.sleb128 1
 9529 0b7f 9F       		.byte	0x9f
 9530 0b80 48000000 		.4byte	.LVL185
 9531 0b84 54000000 		.4byte	.LVL186
 9532 0b88 0100     		.2byte	0x1
 9533 0b8a 51       		.byte	0x51
 9534 0b8b 54000000 		.4byte	.LVL186
 9535 0b8f 5C000000 		.4byte	.LVL188
 9536 0b93 0100     		.2byte	0x1
 9537 0b95 53       		.byte	0x53
 9538 0b96 5C000000 		.4byte	.LVL188
 9539 0b9a 60000000 		.4byte	.LVL189
 9540 0b9e 0100     		.2byte	0x1
 9541 0ba0 51       		.byte	0x51
 9542 0ba1 00000000 		.4byte	0
 9543 0ba5 00000000 		.4byte	0
 9544              	.LLST82:
 9545 0ba9 02000000 		.4byte	.LVL173
 9546 0bad 12000000 		.4byte	.LVL176
 9547 0bb1 0300     		.2byte	0x3
 9548 0bb3 91       		.byte	0x91
 9549 0bb4 68       		.sleb128 -24
 9550 0bb5 9F       		.byte	0x9f
 9551 0bb6 12000000 		.4byte	.LVL176
 9552 0bba 1C000000 		.4byte	.LVL178
 9553 0bbe 0100     		.2byte	0x1
 9554 0bc0 53       		.byte	0x53
 9555 0bc1 1C000000 		.4byte	.LVL178
 9556 0bc5 20000000 		.4byte	.LVL180
 9557 0bc9 0300     		.2byte	0x3
 9558 0bcb 91       		.byte	0x91
 9559 0bcc 68       		.sleb128 -24
 9560 0bcd 9F       		.byte	0x9f
 9561 0bce 20000000 		.4byte	.LVL180
 9562 0bd2 22000000 		.4byte	.LVL181
 9563 0bd6 0100     		.2byte	0x1
 9564 0bd8 51       		.byte	0x51
 9565 0bd9 22000000 		.4byte	.LVL181
 9566 0bdd 62000000 		.4byte	.LFE78
 9567 0be1 0300     		.2byte	0x3
ARM GAS  C:\Users\CHUCK~1.ERH\AppData\Local\Temp\cc506n3q.s 			page 206


 9568 0be3 91       		.byte	0x91
 9569 0be4 68       		.sleb128 -24
 9570 0be5 9F       		.byte	0x9f
 9571 0be6 00000000 		.4byte	0
 9572 0bea 00000000 		.4byte	0
 9573              	.LLST84:
 9574 0bee 02000000 		.4byte	.LVL173
 9575 0bf2 06000000 		.4byte	.LVL174
 9576 0bf6 0200     		.2byte	0x2
 9577 0bf8 30       		.byte	0x30
 9578 0bf9 9F       		.byte	0x9f
 9579 0bfa 16000000 		.4byte	.LVL177
 9580 0bfe 1E000000 		.4byte	.LVL179
 9581 0c02 0100     		.2byte	0x1
 9582 0c04 54       		.byte	0x54
 9583 0c05 00000000 		.4byte	0
 9584 0c09 00000000 		.4byte	0
 9585              	.LLST85:
 9586 0c0d 00000000 		.4byte	.LFB79
 9587 0c11 02000000 		.4byte	.LCFI18
 9588 0c15 0200     		.2byte	0x2
 9589 0c17 7D       		.byte	0x7d
 9590 0c18 00       		.sleb128 0
 9591 0c19 02000000 		.4byte	.LCFI18
 9592 0c1d 66000000 		.4byte	.LFE79
 9593 0c21 0200     		.2byte	0x2
 9594 0c23 7D       		.byte	0x7d
 9595 0c24 20       		.sleb128 32
 9596 0c25 00000000 		.4byte	0
 9597 0c29 00000000 		.4byte	0
 9598              	.LLST86:
 9599 0c2d 00000000 		.4byte	.LVL191
 9600 0c31 07000000 		.4byte	.LVL192-1
 9601 0c35 0100     		.2byte	0x1
 9602 0c37 50       		.byte	0x50
 9603 0c38 07000000 		.4byte	.LVL192-1
 9604 0c3c 64000000 		.4byte	.LVL212
 9605 0c40 0100     		.2byte	0x1
 9606 0c42 57       		.byte	0x57
 9607 0c43 64000000 		.4byte	.LVL212
 9608 0c47 66000000 		.4byte	.LFE79
 9609 0c4b 0400     		.2byte	0x4
 9610 0c4d F3       		.byte	0xf3
 9611 0c4e 01       		.uleb128 0x1
 9612 0c4f 50       		.byte	0x50
 9613 0c50 9F       		.byte	0x9f
 9614 0c51 00000000 		.4byte	0
 9615 0c55 00000000 		.4byte	0
 9616              	.LLST87:
 9617 0c59 0C000000 		.4byte	.LVL193
 9618 0c5d 10000000 		.4byte	.LVL195
 9619 0c61 0300     		.2byte	0x3
 9620 0c63 91       		.byte	0x91
 9621 0c64 64       		.sleb128 -28
 9622 0c65 9F       		.byte	0x9f
 9623 0c66 10000000 		.4byte	.LVL195
 9624 0c6a 1D000000 		.4byte	.LVL197-1
ARM GAS  C:\Users\CHUCK~1.ERH\AppData\Local\Temp\cc506n3q.s 			page 207


 9625 0c6e 0100     		.2byte	0x1
 9626 0c70 53       		.byte	0x53
 9627 0c71 1D000000 		.4byte	.LVL197-1
 9628 0c75 66000000 		.4byte	.LFE79
 9629 0c79 0300     		.2byte	0x3
 9630 0c7b 91       		.byte	0x91
 9631 0c7c 64       		.sleb128 -28
 9632 0c7d 9F       		.byte	0x9f
 9633 0c7e 00000000 		.4byte	0
 9634 0c82 00000000 		.4byte	0
 9635              	.LLST88:
 9636 0c86 0C000000 		.4byte	.LVL193
 9637 0c8a 0E000000 		.4byte	.LVL194
 9638 0c8e 0200     		.2byte	0x2
 9639 0c90 30       		.byte	0x30
 9640 0c91 9F       		.byte	0x9f
 9641 0c92 2C000000 		.4byte	.LVL200
 9642 0c96 4C000000 		.4byte	.LVL206
 9643 0c9a 0100     		.2byte	0x1
 9644 0c9c 54       		.byte	0x54
 9645 0c9d 4C000000 		.4byte	.LVL206
 9646 0ca1 58000000 		.4byte	.LVL207
 9647 0ca5 0100     		.2byte	0x1
 9648 0ca7 50       		.byte	0x50
 9649 0ca8 58000000 		.4byte	.LVL207
 9650 0cac 60000000 		.4byte	.LVL209
 9651 0cb0 0100     		.2byte	0x1
 9652 0cb2 54       		.byte	0x54
 9653 0cb3 60000000 		.4byte	.LVL209
 9654 0cb7 64000000 		.4byte	.LVL210
 9655 0cbb 0100     		.2byte	0x1
 9656 0cbd 50       		.byte	0x50
 9657 0cbe 00000000 		.4byte	0
 9658 0cc2 00000000 		.4byte	0
 9659              	.LLST89:
 9660 0cc6 0C000000 		.4byte	.LVL193
 9661 0cca 0E000000 		.4byte	.LVL194
 9662 0cce 0200     		.2byte	0x2
 9663 0cd0 30       		.byte	0x30
 9664 0cd1 9F       		.byte	0x9f
 9665 0cd2 5A000000 		.4byte	.LVL208
 9666 0cd6 60000000 		.4byte	.LVL209
 9667 0cda 0100     		.2byte	0x1
 9668 0cdc 52       		.byte	0x52
 9669 0cdd 00000000 		.4byte	0
 9670 0ce1 00000000 		.4byte	0
 9671              	.LLST90:
 9672 0ce5 12000000 		.4byte	.LVL196
 9673 0ce9 48000000 		.4byte	.LVL205
 9674 0ced 0100     		.2byte	0x1
 9675 0cef 55       		.byte	0x55
 9676 0cf0 48000000 		.4byte	.LVL205
 9677 0cf4 64000000 		.4byte	.LVL211
 9678 0cf8 0300     		.2byte	0x3
 9679 0cfa 75       		.byte	0x75
 9680 0cfb 50       		.sleb128 -48
 9681 0cfc 9F       		.byte	0x9f
ARM GAS  C:\Users\CHUCK~1.ERH\AppData\Local\Temp\cc506n3q.s 			page 208


 9682 0cfd 00000000 		.4byte	0
 9683 0d01 00000000 		.4byte	0
 9684              	.LLST91:
 9685 0d05 1E000000 		.4byte	.LVL197
 9686 0d09 26000000 		.4byte	.LVL198
 9687 0d0d 0100     		.2byte	0x1
 9688 0d0f 50       		.byte	0x50
 9689 0d10 26000000 		.4byte	.LVL198
 9690 0d14 2C000000 		.4byte	.LVL200
 9691 0d18 0300     		.2byte	0x3
 9692 0d1a 70       		.byte	0x70
 9693 0d1b 50       		.sleb128 -48
 9694 0d1c 9F       		.byte	0x9f
 9695 0d1d 38000000 		.4byte	.LVL201
 9696 0d21 40000000 		.4byte	.LVL202
 9697 0d25 0100     		.2byte	0x1
 9698 0d27 50       		.byte	0x50
 9699 0d28 40000000 		.4byte	.LVL202
 9700 0d2c 46000000 		.4byte	.LVL204
 9701 0d30 0300     		.2byte	0x3
 9702 0d32 70       		.byte	0x70
 9703 0d33 50       		.sleb128 -48
 9704 0d34 9F       		.byte	0x9f
 9705 0d35 00000000 		.4byte	0
 9706 0d39 00000000 		.4byte	0
 9707              	.LLST92:
 9708 0d3d 00000000 		.4byte	.LFB80
 9709 0d41 02000000 		.4byte	.LCFI19
 9710 0d45 0200     		.2byte	0x2
 9711 0d47 7D       		.byte	0x7d
 9712 0d48 00       		.sleb128 0
 9713 0d49 02000000 		.4byte	.LCFI19
 9714 0d4d 16000000 		.4byte	.LFE80
 9715 0d51 0200     		.2byte	0x2
 9716 0d53 7D       		.byte	0x7d
 9717 0d54 08       		.sleb128 8
 9718 0d55 00000000 		.4byte	0
 9719 0d59 00000000 		.4byte	0
 9720              	.LLST93:
 9721 0d5d 00000000 		.4byte	.LVL213
 9722 0d61 08000000 		.4byte	.LVL214
 9723 0d65 0100     		.2byte	0x1
 9724 0d67 50       		.byte	0x50
 9725 0d68 08000000 		.4byte	.LVL214
 9726 0d6c 11000000 		.4byte	.LVL216-1
 9727 0d70 0100     		.2byte	0x1
 9728 0d72 51       		.byte	0x51
 9729 0d73 11000000 		.4byte	.LVL216-1
 9730 0d77 16000000 		.4byte	.LFE80
 9731 0d7b 0400     		.2byte	0x4
 9732 0d7d F3       		.byte	0xf3
 9733 0d7e 01       		.uleb128 0x1
 9734 0d7f 50       		.byte	0x50
 9735 0d80 9F       		.byte	0x9f
 9736 0d81 00000000 		.4byte	0
 9737 0d85 00000000 		.4byte	0
 9738              	.LLST94:
ARM GAS  C:\Users\CHUCK~1.ERH\AppData\Local\Temp\cc506n3q.s 			page 209


 9739 0d89 00000000 		.4byte	.LVL213
 9740 0d8d 14000000 		.4byte	.LVL217
 9741 0d91 0200     		.2byte	0x2
 9742 0d93 30       		.byte	0x30
 9743 0d94 9F       		.byte	0x9f
 9744 0d95 14000000 		.4byte	.LVL217
 9745 0d99 16000000 		.4byte	.LFE80
 9746 0d9d 0100     		.2byte	0x1
 9747 0d9f 50       		.byte	0x50
 9748 0da0 00000000 		.4byte	0
 9749 0da4 00000000 		.4byte	0
 9750              	.LLST95:
 9751 0da8 0C000000 		.4byte	.LVL215
 9752 0dac 11000000 		.4byte	.LVL216-1
 9753 0db0 0100     		.2byte	0x1
 9754 0db2 51       		.byte	0x51
 9755 0db3 11000000 		.4byte	.LVL216-1
 9756 0db7 14000000 		.4byte	.LVL217
 9757 0dbb 0400     		.2byte	0x4
 9758 0dbd F3       		.byte	0xf3
 9759 0dbe 01       		.uleb128 0x1
 9760 0dbf 50       		.byte	0x50
 9761 0dc0 9F       		.byte	0x9f
 9762 0dc1 00000000 		.4byte	0
 9763 0dc5 00000000 		.4byte	0
 9764              	.LLST96:
 9765 0dc9 00000000 		.4byte	.LFB81
 9766 0dcd 02000000 		.4byte	.LCFI20
 9767 0dd1 0200     		.2byte	0x2
 9768 0dd3 7D       		.byte	0x7d
 9769 0dd4 00       		.sleb128 0
 9770 0dd5 02000000 		.4byte	.LCFI20
 9771 0dd9 08000000 		.4byte	.LFE81
 9772 0ddd 0200     		.2byte	0x2
 9773 0ddf 7D       		.byte	0x7d
 9774 0de0 08       		.sleb128 8
 9775 0de1 00000000 		.4byte	0
 9776 0de5 00000000 		.4byte	0
 9777              	.LLST97:
 9778 0de9 00000000 		.4byte	.LFB82
 9779 0ded 02000000 		.4byte	.LCFI21
 9780 0df1 0200     		.2byte	0x2
 9781 0df3 7D       		.byte	0x7d
 9782 0df4 00       		.sleb128 0
 9783 0df5 02000000 		.4byte	.LCFI21
 9784 0df9 1A000000 		.4byte	.LFE82
 9785 0dfd 0200     		.2byte	0x2
 9786 0dff 7D       		.byte	0x7d
 9787 0e00 10       		.sleb128 16
 9788 0e01 00000000 		.4byte	0
 9789 0e05 00000000 		.4byte	0
 9790              	.LLST98:
 9791 0e09 00000000 		.4byte	.LVL219
 9792 0e0d 06000000 		.4byte	.LVL221
 9793 0e11 0100     		.2byte	0x1
 9794 0e13 50       		.byte	0x50
 9795 0e14 06000000 		.4byte	.LVL221
ARM GAS  C:\Users\CHUCK~1.ERH\AppData\Local\Temp\cc506n3q.s 			page 210


 9796 0e18 18000000 		.4byte	.LVL224
 9797 0e1c 0100     		.2byte	0x1
 9798 0e1e 55       		.byte	0x55
 9799 0e1f 18000000 		.4byte	.LVL224
 9800 0e23 1A000000 		.4byte	.LFE82
 9801 0e27 0400     		.2byte	0x4
 9802 0e29 F3       		.byte	0xf3
 9803 0e2a 01       		.uleb128 0x1
 9804 0e2b 50       		.byte	0x50
 9805 0e2c 9F       		.byte	0x9f
 9806 0e2d 00000000 		.4byte	0
 9807 0e31 00000000 		.4byte	0
 9808              	.LLST99:
 9809 0e35 04000000 		.4byte	.LVL220
 9810 0e39 06000000 		.4byte	.LVL221
 9811 0e3d 0100     		.2byte	0x1
 9812 0e3f 50       		.byte	0x50
 9813 0e40 06000000 		.4byte	.LVL221
 9814 0e44 18000000 		.4byte	.LVL224
 9815 0e48 0100     		.2byte	0x1
 9816 0e4a 55       		.byte	0x55
 9817 0e4b 18000000 		.4byte	.LVL224
 9818 0e4f 1A000000 		.4byte	.LFE82
 9819 0e53 0400     		.2byte	0x4
 9820 0e55 F3       		.byte	0xf3
 9821 0e56 01       		.uleb128 0x1
 9822 0e57 50       		.byte	0x50
 9823 0e58 9F       		.byte	0x9f
 9824 0e59 00000000 		.4byte	0
 9825 0e5d 00000000 		.4byte	0
 9826              	.LLST101:
 9827 0e61 04000000 		.4byte	.LVL220
 9828 0e65 06000000 		.4byte	.LVL221
 9829 0e69 0200     		.2byte	0x2
 9830 0e6b 30       		.byte	0x30
 9831 0e6c 9F       		.byte	0x9f
 9832 0e6d 14000000 		.4byte	.LVL222
 9833 0e71 18000000 		.4byte	.LVL223
 9834 0e75 0100     		.2byte	0x1
 9835 0e77 54       		.byte	0x54
 9836 0e78 00000000 		.4byte	0
 9837 0e7c 00000000 		.4byte	0
 9838              	.LLST102:
 9839 0e80 00000000 		.4byte	.LFB83
 9840 0e84 02000000 		.4byte	.LCFI22
 9841 0e88 0200     		.2byte	0x2
 9842 0e8a 7D       		.byte	0x7d
 9843 0e8b 00       		.sleb128 0
 9844 0e8c 02000000 		.4byte	.LCFI22
 9845 0e90 1A000000 		.4byte	.LFE83
 9846 0e94 0200     		.2byte	0x2
 9847 0e96 7D       		.byte	0x7d
 9848 0e97 10       		.sleb128 16
 9849 0e98 00000000 		.4byte	0
 9850 0e9c 00000000 		.4byte	0
 9851              	.LLST103:
 9852 0ea0 00000000 		.4byte	.LVL225
ARM GAS  C:\Users\CHUCK~1.ERH\AppData\Local\Temp\cc506n3q.s 			page 211


 9853 0ea4 06000000 		.4byte	.LVL227
 9854 0ea8 0100     		.2byte	0x1
 9855 0eaa 50       		.byte	0x50
 9856 0eab 06000000 		.4byte	.LVL227
 9857 0eaf 18000000 		.4byte	.LVL231
 9858 0eb3 0100     		.2byte	0x1
 9859 0eb5 55       		.byte	0x55
 9860 0eb6 18000000 		.4byte	.LVL231
 9861 0eba 1A000000 		.4byte	.LFE83
 9862 0ebe 0400     		.2byte	0x4
 9863 0ec0 F3       		.byte	0xf3
 9864 0ec1 01       		.uleb128 0x1
 9865 0ec2 50       		.byte	0x50
 9866 0ec3 9F       		.byte	0x9f
 9867 0ec4 00000000 		.4byte	0
 9868 0ec8 00000000 		.4byte	0
 9869              	.LLST104:
 9870 0ecc 04000000 		.4byte	.LVL226
 9871 0ed0 06000000 		.4byte	.LVL227
 9872 0ed4 0100     		.2byte	0x1
 9873 0ed6 50       		.byte	0x50
 9874 0ed7 06000000 		.4byte	.LVL227
 9875 0edb 18000000 		.4byte	.LVL231
 9876 0edf 0100     		.2byte	0x1
 9877 0ee1 55       		.byte	0x55
 9878 0ee2 18000000 		.4byte	.LVL231
 9879 0ee6 1A000000 		.4byte	.LFE83
 9880 0eea 0400     		.2byte	0x4
 9881 0eec F3       		.byte	0xf3
 9882 0eed 01       		.uleb128 0x1
 9883 0eee 50       		.byte	0x50
 9884 0eef 9F       		.byte	0x9f
 9885 0ef0 00000000 		.4byte	0
 9886 0ef4 00000000 		.4byte	0
 9887              	.LLST106:
 9888 0ef8 04000000 		.4byte	.LVL226
 9889 0efc 06000000 		.4byte	.LVL227
 9890 0f00 0200     		.2byte	0x2
 9891 0f02 30       		.byte	0x30
 9892 0f03 9F       		.byte	0x9f
 9893 0f04 14000000 		.4byte	.LVL229
 9894 0f08 18000000 		.4byte	.LVL230
 9895 0f0c 0100     		.2byte	0x1
 9896 0f0e 54       		.byte	0x54
 9897 0f0f 00000000 		.4byte	0
 9898 0f13 00000000 		.4byte	0
 9899              	.LLST107:
 9900 0f17 00000000 		.4byte	.LFB84
 9901 0f1b 02000000 		.4byte	.LCFI23
 9902 0f1f 0200     		.2byte	0x2
 9903 0f21 7D       		.byte	0x7d
 9904 0f22 00       		.sleb128 0
 9905 0f23 02000000 		.4byte	.LCFI23
 9906 0f27 7C000000 		.4byte	.LFE84
 9907 0f2b 0200     		.2byte	0x2
 9908 0f2d 7D       		.byte	0x7d
 9909 0f2e 18       		.sleb128 24
ARM GAS  C:\Users\CHUCK~1.ERH\AppData\Local\Temp\cc506n3q.s 			page 212


 9910 0f2f 00000000 		.4byte	0
 9911 0f33 00000000 		.4byte	0
 9912              	.LLST108:
 9913 0f37 00000000 		.4byte	.LVL232
 9914 0f3b 0A000000 		.4byte	.LVL233
 9915 0f3f 0100     		.2byte	0x1
 9916 0f41 50       		.byte	0x50
 9917 0f42 0A000000 		.4byte	.LVL233
 9918 0f46 7C000000 		.4byte	.LFE84
 9919 0f4a 0400     		.2byte	0x4
 9920 0f4c F3       		.byte	0xf3
 9921 0f4d 01       		.uleb128 0x1
 9922 0f4e 50       		.byte	0x50
 9923 0f4f 9F       		.byte	0x9f
 9924 0f50 00000000 		.4byte	0
 9925 0f54 00000000 		.4byte	0
 9926              	.LLST109:
 9927 0f58 00000000 		.4byte	.LVL232
 9928 0f5c 55000000 		.4byte	.LVL240-1
 9929 0f60 0100     		.2byte	0x1
 9930 0f62 51       		.byte	0x51
 9931 0f63 55000000 		.4byte	.LVL240-1
 9932 0f67 7C000000 		.4byte	.LFE84
 9933 0f6b 0400     		.2byte	0x4
 9934 0f6d F3       		.byte	0xf3
 9935 0f6e 01       		.uleb128 0x1
 9936 0f6f 51       		.byte	0x51
 9937 0f70 9F       		.byte	0x9f
 9938 0f71 00000000 		.4byte	0
 9939 0f75 00000000 		.4byte	0
 9940              	.LLST110:
 9941 0f79 00000000 		.4byte	.LVL232
 9942 0f7d 0A000000 		.4byte	.LVL233
 9943 0f81 0100     		.2byte	0x1
 9944 0f83 52       		.byte	0x52
 9945 0f84 0A000000 		.4byte	.LVL233
 9946 0f88 7C000000 		.4byte	.LFE84
 9947 0f8c 0400     		.2byte	0x4
 9948 0f8e F3       		.byte	0xf3
 9949 0f8f 01       		.uleb128 0x1
 9950 0f90 52       		.byte	0x52
 9951 0f91 9F       		.byte	0x9f
 9952 0f92 00000000 		.4byte	0
 9953 0f96 00000000 		.4byte	0
 9954              	.LLST111:
 9955 0f9a 00000000 		.4byte	.LVL232
 9956 0f9e 0A000000 		.4byte	.LVL233
 9957 0fa2 0300     		.2byte	0x3
 9958 0fa4 09       		.byte	0x9
 9959 0fa5 FF       		.byte	0xff
 9960 0fa6 9F       		.byte	0x9f
 9961 0fa7 2C000000 		.4byte	.LVL234
 9962 0fab 70000000 		.4byte	.LVL243
 9963 0faf 0100     		.2byte	0x1
 9964 0fb1 54       		.byte	0x54
 9965 0fb2 70000000 		.4byte	.LVL243
 9966 0fb6 7C000000 		.4byte	.LFE84
ARM GAS  C:\Users\CHUCK~1.ERH\AppData\Local\Temp\cc506n3q.s 			page 213


 9967 0fba 0100     		.2byte	0x1
 9968 0fbc 50       		.byte	0x50
 9969 0fbd 00000000 		.4byte	0
 9970 0fc1 00000000 		.4byte	0
 9971              	.LLST112:
 9972 0fc5 00000000 		.4byte	.LVL232
 9973 0fc9 0A000000 		.4byte	.LVL233
 9974 0fcd 0200     		.2byte	0x2
 9975 0fcf 30       		.byte	0x30
 9976 0fd0 9F       		.byte	0x9f
 9977 0fd1 2E000000 		.4byte	.LVL235
 9978 0fd5 32000000 		.4byte	.LVL236
 9979 0fd9 0100     		.2byte	0x1
 9980 0fdb 53       		.byte	0x53
 9981 0fdc 32000000 		.4byte	.LVL236
 9982 0fe0 3C000000 		.4byte	.LVL237
 9983 0fe4 0100     		.2byte	0x1
 9984 0fe6 52       		.byte	0x52
 9985 0fe7 3C000000 		.4byte	.LVL237
 9986 0feb 3E000000 		.4byte	.LVL238
 9987 0fef 0100     		.2byte	0x1
 9988 0ff1 53       		.byte	0x53
 9989 0ff2 00000000 		.4byte	0
 9990 0ff6 00000000 		.4byte	0
 9991              	.LLST113:
 9992 0ffa 4E000000 		.4byte	.LVL239
 9993 0ffe 55000000 		.4byte	.LVL240-1
 9994 1002 0100     		.2byte	0x1
 9995 1004 51       		.byte	0x51
 9996 1005 00000000 		.4byte	0
 9997 1009 00000000 		.4byte	0
 9998              	.LLST114:
 9999 100d 4E000000 		.4byte	.LVL239
 10000 1011 6E000000 		.4byte	.LVL242
 10001 1015 0100     		.2byte	0x1
 10002 1017 54       		.byte	0x54
 10003 1018 00000000 		.4byte	0
 10004 101c 00000000 		.4byte	0
 10005              	.LLST115:
 10006 1020 56000000 		.4byte	.LVL240
 10007 1024 6E000000 		.4byte	.LVL242
 10008 1028 0600     		.2byte	0x6
 10009 102a 76       		.byte	0x76
 10010 102b 00       		.sleb128 0
 10011 102c 75       		.byte	0x75
 10012 102d 00       		.sleb128 0
 10013 102e 21       		.byte	0x21
 10014 102f 9F       		.byte	0x9f
 10015 1030 00000000 		.4byte	0
 10016 1034 00000000 		.4byte	0
 10017              	.LLST116:
 10018 1038 56000000 		.4byte	.LVL240
 10019 103c 6E000000 		.4byte	.LVL242
 10020 1040 0100     		.2byte	0x1
 10021 1042 54       		.byte	0x54
 10022 1043 00000000 		.4byte	0
 10023 1047 00000000 		.4byte	0
ARM GAS  C:\Users\CHUCK~1.ERH\AppData\Local\Temp\cc506n3q.s 			page 214


 10024              	.LLST117:
 10025 104b 00000000 		.4byte	.LFB85
 10026 104f 02000000 		.4byte	.LCFI24
 10027 1053 0200     		.2byte	0x2
 10028 1055 7D       		.byte	0x7d
 10029 1056 00       		.sleb128 0
 10030 1057 02000000 		.4byte	.LCFI24
 10031 105b 38000000 		.4byte	.LFE85
 10032 105f 0200     		.2byte	0x2
 10033 1061 7D       		.byte	0x7d
 10034 1062 08       		.sleb128 8
 10035 1063 00000000 		.4byte	0
 10036 1067 00000000 		.4byte	0
 10037              	.LLST118:
 10038 106b 00000000 		.4byte	.LVL244
 10039 106f 12000000 		.4byte	.LVL246
 10040 1073 0100     		.2byte	0x1
 10041 1075 50       		.byte	0x50
 10042 1076 12000000 		.4byte	.LVL246
 10043 107a 38000000 		.4byte	.LFE85
 10044 107e 0400     		.2byte	0x4
 10045 1080 F3       		.byte	0xf3
 10046 1081 01       		.uleb128 0x1
 10047 1082 50       		.byte	0x50
 10048 1083 9F       		.byte	0x9f
 10049 1084 00000000 		.4byte	0
 10050 1088 00000000 		.4byte	0
 10051              	.LLST119:
 10052 108c 08000000 		.4byte	.LVL245
 10053 1090 12000000 		.4byte	.LVL246
 10054 1094 0100     		.2byte	0x1
 10055 1096 50       		.byte	0x50
 10056 1097 12000000 		.4byte	.LVL246
 10057 109b 22000000 		.4byte	.LVL248
 10058 109f 0100     		.2byte	0x1
 10059 10a1 54       		.byte	0x54
 10060 10a2 00000000 		.4byte	0
 10061 10a6 00000000 		.4byte	0
 10062              	.LLST120:
 10063 10aa 1E000000 		.4byte	.LVL247
 10064 10ae 2C000000 		.4byte	.LVL249
 10065 10b2 0300     		.2byte	0x3
 10066 10b4 09       		.byte	0x9
 10067 10b5 FF       		.byte	0xff
 10068 10b6 9F       		.byte	0x9f
 10069 10b7 00000000 		.4byte	0
 10070 10bb 00000000 		.4byte	0
 10071              	.LLST121:
 10072 10bf 1E000000 		.4byte	.LVL247
 10073 10c3 22000000 		.4byte	.LVL248
 10074 10c7 0100     		.2byte	0x1
 10075 10c9 54       		.byte	0x54
 10076 10ca 00000000 		.4byte	0
 10077 10ce 00000000 		.4byte	0
 10078              	.LLST122:
 10079 10d2 00000000 		.4byte	.LFB74
 10080 10d6 02000000 		.4byte	.LCFI25
ARM GAS  C:\Users\CHUCK~1.ERH\AppData\Local\Temp\cc506n3q.s 			page 215


 10081 10da 0200     		.2byte	0x2
 10082 10dc 7D       		.byte	0x7d
 10083 10dd 00       		.sleb128 0
 10084 10de 02000000 		.4byte	.LCFI25
 10085 10e2 8C000000 		.4byte	.LFE74
 10086 10e6 0200     		.2byte	0x2
 10087 10e8 7D       		.byte	0x7d
 10088 10e9 18       		.sleb128 24
 10089 10ea 00000000 		.4byte	0
 10090 10ee 00000000 		.4byte	0
 10091              	.LLST123:
 10092 10f2 00000000 		.4byte	.LVL250
 10093 10f6 06000000 		.4byte	.LVL251
 10094 10fa 0100     		.2byte	0x1
 10095 10fc 50       		.byte	0x50
 10096 10fd 06000000 		.4byte	.LVL251
 10097 1101 86000000 		.4byte	.LVL272
 10098 1105 0100     		.2byte	0x1
 10099 1107 56       		.byte	0x56
 10100 1108 86000000 		.4byte	.LVL272
 10101 110c 8C000000 		.4byte	.LFE74
 10102 1110 0400     		.2byte	0x4
 10103 1112 F3       		.byte	0xf3
 10104 1113 01       		.uleb128 0x1
 10105 1114 50       		.byte	0x50
 10106 1115 9F       		.byte	0x9f
 10107 1116 00000000 		.4byte	0
 10108 111a 00000000 		.4byte	0
 10109              	.LLST124:
 10110 111e 00000000 		.4byte	.LVL250
 10111 1122 0F000000 		.4byte	.LVL252-1
 10112 1126 0100     		.2byte	0x1
 10113 1128 51       		.byte	0x51
 10114 1129 0F000000 		.4byte	.LVL252-1
 10115 112d 86000000 		.4byte	.LVL271
 10116 1131 0100     		.2byte	0x1
 10117 1133 55       		.byte	0x55
 10118 1134 86000000 		.4byte	.LVL271
 10119 1138 8C000000 		.4byte	.LFE74
 10120 113c 0400     		.2byte	0x4
 10121 113e F3       		.byte	0xf3
 10122 113f 01       		.uleb128 0x1
 10123 1140 51       		.byte	0x51
 10124 1141 9F       		.byte	0x9f
 10125 1142 00000000 		.4byte	0
 10126 1146 00000000 		.4byte	0
 10127              	.LLST125:
 10128 114a 00000000 		.4byte	.LVL250
 10129 114e 0F000000 		.4byte	.LVL252-1
 10130 1152 0100     		.2byte	0x1
 10131 1154 52       		.byte	0x52
 10132 1155 0F000000 		.4byte	.LVL252-1
 10133 1159 5C000000 		.4byte	.LVL264
 10134 115d 0100     		.2byte	0x1
 10135 115f 54       		.byte	0x54
 10136 1160 5C000000 		.4byte	.LVL264
 10137 1164 8C000000 		.4byte	.LFE74
ARM GAS  C:\Users\CHUCK~1.ERH\AppData\Local\Temp\cc506n3q.s 			page 216


 10138 1168 0400     		.2byte	0x4
 10139 116a F3       		.byte	0xf3
 10140 116b 01       		.uleb128 0x1
 10141 116c 52       		.byte	0x52
 10142 116d 9F       		.byte	0x9f
 10143 116e 00000000 		.4byte	0
 10144 1172 00000000 		.4byte	0
 10145              	.LLST126:
 10146 1176 00000000 		.4byte	.LVL250
 10147 117a 0F000000 		.4byte	.LVL252-1
 10148 117e 0100     		.2byte	0x1
 10149 1180 53       		.byte	0x53
 10150 1181 0F000000 		.4byte	.LVL252-1
 10151 1185 86000000 		.4byte	.LVL273
 10152 1189 0100     		.2byte	0x1
 10153 118b 57       		.byte	0x57
 10154 118c 86000000 		.4byte	.LVL273
 10155 1190 8C000000 		.4byte	.LFE74
 10156 1194 0400     		.2byte	0x4
 10157 1196 F3       		.byte	0xf3
 10158 1197 01       		.uleb128 0x1
 10159 1198 53       		.byte	0x53
 10160 1199 9F       		.byte	0x9f
 10161 119a 00000000 		.4byte	0
 10162 119e 00000000 		.4byte	0
 10163              	.LLST127:
 10164 11a2 1E000000 		.4byte	.LVL254
 10165 11a6 24000000 		.4byte	.LVL255
 10166 11aa 0200     		.2byte	0x2
 10167 11ac 30       		.byte	0x30
 10168 11ad 9F       		.byte	0x9f
 10169 11ae 24000000 		.4byte	.LVL255
 10170 11b2 2A000000 		.4byte	.LVL256
 10171 11b6 0200     		.2byte	0x2
 10172 11b8 31       		.byte	0x31
 10173 11b9 9F       		.byte	0x9f
 10174 11ba 2A000000 		.4byte	.LVL256
 10175 11be 30000000 		.4byte	.LVL257
 10176 11c2 0200     		.2byte	0x2
 10177 11c4 32       		.byte	0x32
 10178 11c5 9F       		.byte	0x9f
 10179 11c6 30000000 		.4byte	.LVL257
 10180 11ca 36000000 		.4byte	.LVL258
 10181 11ce 0200     		.2byte	0x2
 10182 11d0 33       		.byte	0x33
 10183 11d1 9F       		.byte	0x9f
 10184 11d2 36000000 		.4byte	.LVL258
 10185 11d6 8C000000 		.4byte	.LFE74
 10186 11da 0200     		.2byte	0x2
 10187 11dc 34       		.byte	0x34
 10188 11dd 9F       		.byte	0x9f
 10189 11de 00000000 		.4byte	0
 10190 11e2 00000000 		.4byte	0
 10191              	.LLST128:
 10192 11e6 46000000 		.4byte	.LVL260
 10193 11ea 86000000 		.4byte	.LVL273
 10194 11ee 0100     		.2byte	0x1
ARM GAS  C:\Users\CHUCK~1.ERH\AppData\Local\Temp\cc506n3q.s 			page 217


 10195 11f0 57       		.byte	0x57
 10196 11f1 86000000 		.4byte	.LVL273
 10197 11f5 8C000000 		.4byte	.LFE74
 10198 11f9 0400     		.2byte	0x4
 10199 11fb F3       		.byte	0xf3
 10200 11fc 01       		.uleb128 0x1
 10201 11fd 53       		.byte	0x53
 10202 11fe 9F       		.byte	0x9f
 10203 11ff 00000000 		.4byte	0
 10204 1203 00000000 		.4byte	0
 10205              	.LLST129:
 10206 1207 4E000000 		.4byte	.LVL261
 10207 120b 5C000000 		.4byte	.LVL264
 10208 120f 0100     		.2byte	0x1
 10209 1211 54       		.byte	0x54
 10210 1212 5C000000 		.4byte	.LVL264
 10211 1216 8C000000 		.4byte	.LFE74
 10212 121a 0400     		.2byte	0x4
 10213 121c F3       		.byte	0xf3
 10214 121d 01       		.uleb128 0x1
 10215 121e 52       		.byte	0x52
 10216 121f 9F       		.byte	0x9f
 10217 1220 00000000 		.4byte	0
 10218 1224 00000000 		.4byte	0
 10219              	.LLST130:
 10220 1228 5A000000 		.4byte	.LVL263
 10221 122c 86000000 		.4byte	.LVL272
 10222 1230 0100     		.2byte	0x1
 10223 1232 56       		.byte	0x56
 10224 1233 86000000 		.4byte	.LVL272
 10225 1237 8C000000 		.4byte	.LFE74
 10226 123b 0400     		.2byte	0x4
 10227 123d F3       		.byte	0xf3
 10228 123e 01       		.uleb128 0x1
 10229 123f 50       		.byte	0x50
 10230 1240 9F       		.byte	0x9f
 10231 1241 00000000 		.4byte	0
 10232 1245 00000000 		.4byte	0
 10233              	.LLST132:
 10234 1249 5A000000 		.4byte	.LVL263
 10235 124d 5C000000 		.4byte	.LVL264
 10236 1251 0200     		.2byte	0x2
 10237 1253 30       		.byte	0x30
 10238 1254 9F       		.byte	0x9f
 10239 1255 6A000000 		.4byte	.LVL265
 10240 1259 86000000 		.4byte	.LVL270
 10241 125d 0100     		.2byte	0x1
 10242 125f 54       		.byte	0x54
 10243 1260 00000000 		.4byte	0
 10244 1264 00000000 		.4byte	0
 10245              	.LLST133:
 10246 1268 6E000000 		.4byte	.LVL266
 10247 126c 86000000 		.4byte	.LVL271
 10248 1270 0100     		.2byte	0x1
 10249 1272 55       		.byte	0x55
 10250 1273 86000000 		.4byte	.LVL271
 10251 1277 8C000000 		.4byte	.LFE74
ARM GAS  C:\Users\CHUCK~1.ERH\AppData\Local\Temp\cc506n3q.s 			page 218


 10252 127b 0400     		.2byte	0x4
 10253 127d F3       		.byte	0xf3
 10254 127e 01       		.uleb128 0x1
 10255 127f 51       		.byte	0x51
 10256 1280 9F       		.byte	0x9f
 10257 1281 00000000 		.4byte	0
 10258 1285 00000000 		.4byte	0
 10259              	.LLST134:
 10260 1289 00000000 		.4byte	.LFB75
 10261 128d 02000000 		.4byte	.LCFI26
 10262 1291 0200     		.2byte	0x2
 10263 1293 7D       		.byte	0x7d
 10264 1294 00       		.sleb128 0
 10265 1295 02000000 		.4byte	.LCFI26
 10266 1299 7C000000 		.4byte	.LFE75
 10267 129d 0200     		.2byte	0x2
 10268 129f 7D       		.byte	0x7d
 10269 12a0 10       		.sleb128 16
 10270 12a1 00000000 		.4byte	0
 10271 12a5 00000000 		.4byte	0
 10272              	.LLST135:
 10273 12a9 44000000 		.4byte	.LVL278
 10274 12ad 46000000 		.4byte	.LVL279
 10275 12b1 0100     		.2byte	0x1
 10276 12b3 50       		.byte	0x50
 10277 12b4 46000000 		.4byte	.LVL279
 10278 12b8 60000000 		.4byte	.LVL288
 10279 12bc 0100     		.2byte	0x1
 10280 12be 56       		.byte	0x56
 10281 12bf 00000000 		.4byte	0
 10282 12c3 00000000 		.4byte	0
 10283              	.LLST136:
 10284 12c7 54000000 		.4byte	.LVL284
 10285 12cb 56000000 		.4byte	.LVL285
 10286 12cf 0100     		.2byte	0x1
 10287 12d1 50       		.byte	0x50
 10288 12d2 56000000 		.4byte	.LVL285
 10289 12d6 5F000000 		.4byte	.LVL286-1
 10290 12da 0100     		.2byte	0x1
 10291 12dc 53       		.byte	0x53
 10292 12dd 00000000 		.4byte	0
 10293 12e1 00000000 		.4byte	0
 10294              	.LLST137:
 10295 12e5 4C000000 		.4byte	.LVL281
 10296 12e9 4E000000 		.4byte	.LVL282
 10297 12ed 0100     		.2byte	0x1
 10298 12ef 50       		.byte	0x50
 10299 12f0 4E000000 		.4byte	.LVL282
 10300 12f4 60000000 		.4byte	.LVL287
 10301 12f8 0100     		.2byte	0x1
 10302 12fa 55       		.byte	0x55
 10303 12fb 00000000 		.4byte	0
 10304 12ff 00000000 		.4byte	0
 10305              	.LLST138:
 10306 1303 00000000 		.4byte	.LFB86
 10307 1307 02000000 		.4byte	.LCFI27
 10308 130b 0200     		.2byte	0x2
ARM GAS  C:\Users\CHUCK~1.ERH\AppData\Local\Temp\cc506n3q.s 			page 219


 10309 130d 7D       		.byte	0x7d
 10310 130e 00       		.sleb128 0
 10311 130f 02000000 		.4byte	.LCFI27
 10312 1313 1E000000 		.4byte	.LFE86
 10313 1317 0200     		.2byte	0x2
 10314 1319 7D       		.byte	0x7d
 10315 131a 08       		.sleb128 8
 10316 131b 00000000 		.4byte	0
 10317 131f 00000000 		.4byte	0
 10318              	.LLST139:
 10319 1323 00000000 		.4byte	.LVL289
 10320 1327 07000000 		.4byte	.LVL290-1
 10321 132b 0100     		.2byte	0x1
 10322 132d 50       		.byte	0x50
 10323 132e 07000000 		.4byte	.LVL290-1
 10324 1332 1E000000 		.4byte	.LFE86
 10325 1336 0400     		.2byte	0x4
 10326 1338 F3       		.byte	0xf3
 10327 1339 01       		.uleb128 0x1
 10328 133a 50       		.byte	0x50
 10329 133b 9F       		.byte	0x9f
 10330 133c 00000000 		.4byte	0
 10331 1340 00000000 		.4byte	0
 10332              	.LLST140:
 10333 1344 08000000 		.4byte	.LVL290
 10334 1348 0E000000 		.4byte	.LVL291
 10335 134c 0100     		.2byte	0x1
 10336 134e 50       		.byte	0x50
 10337 134f 00000000 		.4byte	0
 10338 1353 00000000 		.4byte	0
 10339              	.LLST141:
 10340 1357 00000000 		.4byte	.LFB87
 10341 135b 02000000 		.4byte	.LCFI28
 10342 135f 0200     		.2byte	0x2
 10343 1361 7D       		.byte	0x7d
 10344 1362 00       		.sleb128 0
 10345 1363 02000000 		.4byte	.LCFI28
 10346 1367 0E000000 		.4byte	.LFE87
 10347 136b 0200     		.2byte	0x2
 10348 136d 7D       		.byte	0x7d
 10349 136e 08       		.sleb128 8
 10350 136f 00000000 		.4byte	0
 10351 1373 00000000 		.4byte	0
 10352              	.LLST142:
 10353 1377 00000000 		.4byte	.LVL294
 10354 137b 05000000 		.4byte	.LVL295-1
 10355 137f 0100     		.2byte	0x1
 10356 1381 50       		.byte	0x50
 10357 1382 05000000 		.4byte	.LVL295-1
 10358 1386 0E000000 		.4byte	.LFE87
 10359 138a 0400     		.2byte	0x4
 10360 138c F3       		.byte	0xf3
 10361 138d 01       		.uleb128 0x1
 10362 138e 50       		.byte	0x50
 10363 138f 9F       		.byte	0x9f
 10364 1390 00000000 		.4byte	0
 10365 1394 00000000 		.4byte	0
ARM GAS  C:\Users\CHUCK~1.ERH\AppData\Local\Temp\cc506n3q.s 			page 220


 10366              	.LLST143:
 10367 1398 00000000 		.4byte	.LFB90
 10368 139c 02000000 		.4byte	.LCFI29
 10369 13a0 0200     		.2byte	0x2
 10370 13a2 7D       		.byte	0x7d
 10371 13a3 00       		.sleb128 0
 10372 13a4 02000000 		.4byte	.LCFI29
 10373 13a8 08000000 		.4byte	.LFE90
 10374 13ac 0200     		.2byte	0x2
 10375 13ae 7D       		.byte	0x7d
 10376 13af 08       		.sleb128 8
 10377 13b0 00000000 		.4byte	0
 10378 13b4 00000000 		.4byte	0
 10379              	.LLST144:
 10380 13b8 00000000 		.4byte	.LVL296
 10381 13bc 05000000 		.4byte	.LVL297-1
 10382 13c0 0100     		.2byte	0x1
 10383 13c2 50       		.byte	0x50
 10384 13c3 05000000 		.4byte	.LVL297-1
 10385 13c7 08000000 		.4byte	.LFE90
 10386 13cb 0400     		.2byte	0x4
 10387 13cd F3       		.byte	0xf3
 10388 13ce 01       		.uleb128 0x1
 10389 13cf 50       		.byte	0x50
 10390 13d0 9F       		.byte	0x9f
 10391 13d1 00000000 		.4byte	0
 10392 13d5 00000000 		.4byte	0
 10393              	.LLST145:
 10394 13d9 00000000 		.4byte	.LFB91
 10395 13dd 02000000 		.4byte	.LCFI30
 10396 13e1 0200     		.2byte	0x2
 10397 13e3 7D       		.byte	0x7d
 10398 13e4 00       		.sleb128 0
 10399 13e5 02000000 		.4byte	.LCFI30
 10400 13e9 0E000000 		.4byte	.LFE91
 10401 13ed 0200     		.2byte	0x2
 10402 13ef 7D       		.byte	0x7d
 10403 13f0 08       		.sleb128 8
 10404 13f1 00000000 		.4byte	0
 10405 13f5 00000000 		.4byte	0
 10406              	.LLST146:
 10407 13f9 00000000 		.4byte	.LVL298
 10408 13fd 08000000 		.4byte	.LVL299
 10409 1401 0100     		.2byte	0x1
 10410 1403 50       		.byte	0x50
 10411 1404 08000000 		.4byte	.LVL299
 10412 1408 0E000000 		.4byte	.LFE91
 10413 140c 0400     		.2byte	0x4
 10414 140e F3       		.byte	0xf3
 10415 140f 01       		.uleb128 0x1
 10416 1410 50       		.byte	0x50
 10417 1411 9F       		.byte	0x9f
 10418 1412 00000000 		.4byte	0
 10419 1416 00000000 		.4byte	0
 10420              	.LLST147:
 10421 141a 00000000 		.4byte	.LFB92
 10422 141e 02000000 		.4byte	.LCFI31
ARM GAS  C:\Users\CHUCK~1.ERH\AppData\Local\Temp\cc506n3q.s 			page 221


 10423 1422 0200     		.2byte	0x2
 10424 1424 7D       		.byte	0x7d
 10425 1425 00       		.sleb128 0
 10426 1426 02000000 		.4byte	.LCFI31
 10427 142a 0E000000 		.4byte	.LFE92
 10428 142e 0200     		.2byte	0x2
 10429 1430 7D       		.byte	0x7d
 10430 1431 08       		.sleb128 8
 10431 1432 00000000 		.4byte	0
 10432 1436 00000000 		.4byte	0
 10433              	.LLST148:
 10434 143a 00000000 		.4byte	.LVL301
 10435 143e 0B000000 		.4byte	.LVL302-1
 10436 1442 0100     		.2byte	0x1
 10437 1444 50       		.byte	0x50
 10438 1445 0B000000 		.4byte	.LVL302-1
 10439 1449 0E000000 		.4byte	.LFE92
 10440 144d 0400     		.2byte	0x4
 10441 144f F3       		.byte	0xf3
 10442 1450 01       		.uleb128 0x1
 10443 1451 50       		.byte	0x50
 10444 1452 9F       		.byte	0x9f
 10445 1453 00000000 		.4byte	0
 10446 1457 00000000 		.4byte	0
 10447              	.LLST149:
 10448 145b 00000000 		.4byte	.LFB93
 10449 145f 02000000 		.4byte	.LCFI32
 10450 1463 0200     		.2byte	0x2
 10451 1465 7D       		.byte	0x7d
 10452 1466 00       		.sleb128 0
 10453 1467 02000000 		.4byte	.LCFI32
 10454 146b 1C000000 		.4byte	.LFE93
 10455 146f 0200     		.2byte	0x2
 10456 1471 7D       		.byte	0x7d
 10457 1472 08       		.sleb128 8
 10458 1473 00000000 		.4byte	0
 10459 1477 00000000 		.4byte	0
 10460              	.LLST150:
 10461 147b 00000000 		.4byte	.LVL303
 10462 147f 07000000 		.4byte	.LVL304-1
 10463 1483 0100     		.2byte	0x1
 10464 1485 50       		.byte	0x50
 10465 1486 07000000 		.4byte	.LVL304-1
 10466 148a 1C000000 		.4byte	.LFE93
 10467 148e 0400     		.2byte	0x4
 10468 1490 F3       		.byte	0xf3
 10469 1491 01       		.uleb128 0x1
 10470 1492 50       		.byte	0x50
 10471 1493 9F       		.byte	0x9f
 10472 1494 00000000 		.4byte	0
 10473 1498 00000000 		.4byte	0
 10474              	.LLST151:
 10475 149c 00000000 		.4byte	.LFB94
 10476 14a0 02000000 		.4byte	.LCFI33
 10477 14a4 0200     		.2byte	0x2
 10478 14a6 7D       		.byte	0x7d
 10479 14a7 00       		.sleb128 0
ARM GAS  C:\Users\CHUCK~1.ERH\AppData\Local\Temp\cc506n3q.s 			page 222


 10480 14a8 02000000 		.4byte	.LCFI33
 10481 14ac 7C000000 		.4byte	.LFE94
 10482 14b0 0200     		.2byte	0x2
 10483 14b2 7D       		.byte	0x7d
 10484 14b3 18       		.sleb128 24
 10485 14b4 00000000 		.4byte	0
 10486 14b8 00000000 		.4byte	0
 10487              	.LLST152:
 10488 14bc 00000000 		.4byte	.LVL307
 10489 14c0 10000000 		.4byte	.LVL309
 10490 14c4 0100     		.2byte	0x1
 10491 14c6 50       		.byte	0x50
 10492 14c7 10000000 		.4byte	.LVL309
 10493 14cb 7C000000 		.4byte	.LFE94
 10494 14cf 0400     		.2byte	0x4
 10495 14d1 F3       		.byte	0xf3
 10496 14d2 01       		.uleb128 0x1
 10497 14d3 50       		.byte	0x50
 10498 14d4 9F       		.byte	0x9f
 10499 14d5 00000000 		.4byte	0
 10500 14d9 00000000 		.4byte	0
 10501              	.LLST153:
 10502 14dd 00000000 		.4byte	.LVL307
 10503 14e1 17000000 		.4byte	.LVL311-1
 10504 14e5 0100     		.2byte	0x1
 10505 14e7 51       		.byte	0x51
 10506 14e8 17000000 		.4byte	.LVL311-1
 10507 14ec 7C000000 		.4byte	.LFE94
 10508 14f0 0400     		.2byte	0x4
 10509 14f2 F3       		.byte	0xf3
 10510 14f3 01       		.uleb128 0x1
 10511 14f4 51       		.byte	0x51
 10512 14f5 9F       		.byte	0x9f
 10513 14f6 00000000 		.4byte	0
 10514 14fa 00000000 		.4byte	0
 10515              	.LLST154:
 10516 14fe 00000000 		.4byte	.LVL307
 10517 1502 12000000 		.4byte	.LVL310
 10518 1506 0100     		.2byte	0x1
 10519 1508 52       		.byte	0x52
 10520 1509 12000000 		.4byte	.LVL310
 10521 150d 7C000000 		.4byte	.LFE94
 10522 1511 0400     		.2byte	0x4
 10523 1513 F3       		.byte	0xf3
 10524 1514 01       		.uleb128 0x1
 10525 1515 52       		.byte	0x52
 10526 1516 9F       		.byte	0x9f
 10527 1517 00000000 		.4byte	0
 10528 151b 00000000 		.4byte	0
 10529              	.LLST155:
 10530 151f 38000000 		.4byte	.LVL315
 10531 1523 4E000000 		.4byte	.LVL317
 10532 1527 0100     		.2byte	0x1
 10533 1529 54       		.byte	0x54
 10534 152a 4E000000 		.4byte	.LVL317
 10535 152e 52000000 		.4byte	.LVL318
 10536 1532 0300     		.2byte	0x3
ARM GAS  C:\Users\CHUCK~1.ERH\AppData\Local\Temp\cc506n3q.s 			page 223


 10537 1534 74       		.byte	0x74
 10538 1535 01       		.sleb128 1
 10539 1536 9F       		.byte	0x9f
 10540 1537 52000000 		.4byte	.LVL318
 10541 153b 60000000 		.4byte	.LVL320
 10542 153f 0100     		.2byte	0x1
 10543 1541 54       		.byte	0x54
 10544 1542 62000000 		.4byte	.LVL321
 10545 1546 6A000000 		.4byte	.LVL322
 10546 154a 0100     		.2byte	0x1
 10547 154c 54       		.byte	0x54
 10548 154d 00000000 		.4byte	0
 10549 1551 00000000 		.4byte	0
 10550              	.LLST156:
 10551 1555 0C000000 		.4byte	.LVL308
 10552 1559 17000000 		.4byte	.LVL311-1
 10553 155d 0100     		.2byte	0x1
 10554 155f 51       		.byte	0x51
 10555 1560 17000000 		.4byte	.LVL311-1
 10556 1564 6A000000 		.4byte	.LVL322
 10557 1568 0400     		.2byte	0x4
 10558 156a F3       		.byte	0xf3
 10559 156b 01       		.uleb128 0x1
 10560 156c 51       		.byte	0x51
 10561 156d 9F       		.byte	0x9f
 10562 156e 00000000 		.4byte	0
 10563 1572 00000000 		.4byte	0
 10564              	.LLST157:
 10565 1576 0C000000 		.4byte	.LVL308
 10566 157a 10000000 		.4byte	.LVL309
 10567 157e 0100     		.2byte	0x1
 10568 1580 50       		.byte	0x50
 10569 1581 10000000 		.4byte	.LVL309
 10570 1585 6A000000 		.4byte	.LVL322
 10571 1589 0100     		.2byte	0x1
 10572 158b 56       		.byte	0x56
 10573 158c 00000000 		.4byte	0
 10574 1590 00000000 		.4byte	0
 10575              	.LLST158:
 10576 1594 18000000 		.4byte	.LVL311
 10577 1598 28000000 		.4byte	.LVL313
 10578 159c 0100     		.2byte	0x1
 10579 159e 57       		.byte	0x57
 10580 159f 00000000 		.4byte	0
 10581 15a3 00000000 		.4byte	0
 10582              	.LLST159:
 10583 15a7 18000000 		.4byte	.LVL311
 10584 15ab 6A000000 		.4byte	.LVL322
 10585 15af 0100     		.2byte	0x1
 10586 15b1 56       		.byte	0x56
 10587 15b2 00000000 		.4byte	0
 10588 15b6 00000000 		.4byte	0
 10589              	.LLST160:
 10590 15ba 26000000 		.4byte	.LVL312
 10591 15be 2F000000 		.4byte	.LVL314-1
 10592 15c2 0500     		.2byte	0x5
 10593 15c4 03       		.byte	0x3
ARM GAS  C:\Users\CHUCK~1.ERH\AppData\Local\Temp\cc506n3q.s 			page 224


 10594 15c5 00000000 		.4byte	W5100_SubnetMask
 10595 15c9 00000000 		.4byte	0
 10596 15cd 00000000 		.4byte	0
 10597              	.LLST161:
 10598 15d1 62000000 		.4byte	.LVL321
 10599 15d5 6A000000 		.4byte	.LVL322
 10600 15d9 0200     		.2byte	0x2
 10601 15db 30       		.byte	0x30
 10602 15dc 9F       		.byte	0x9f
 10603 15dd 00000000 		.4byte	0
 10604 15e1 00000000 		.4byte	0
 10605              	.LLST162:
 10606 15e5 00000000 		.4byte	.LFB95
 10607 15e9 02000000 		.4byte	.LCFI34
 10608 15ed 0200     		.2byte	0x2
 10609 15ef 7D       		.byte	0x7d
 10610 15f0 00       		.sleb128 0
 10611 15f1 02000000 		.4byte	.LCFI34
 10612 15f5 08000000 		.4byte	.LFE95
 10613 15f9 0200     		.2byte	0x2
 10614 15fb 7D       		.byte	0x7d
 10615 15fc 08       		.sleb128 8
 10616 15fd 00000000 		.4byte	0
 10617 1601 00000000 		.4byte	0
 10618              	.LLST163:
 10619 1605 00000000 		.4byte	.LVL323
 10620 1609 05000000 		.4byte	.LVL324-1
 10621 160d 0100     		.2byte	0x1
 10622 160f 50       		.byte	0x50
 10623 1610 05000000 		.4byte	.LVL324-1
 10624 1614 08000000 		.4byte	.LFE95
 10625 1618 0400     		.2byte	0x4
 10626 161a F3       		.byte	0xf3
 10627 161b 01       		.uleb128 0x1
 10628 161c 50       		.byte	0x50
 10629 161d 9F       		.byte	0x9f
 10630 161e 00000000 		.4byte	0
 10631 1622 00000000 		.4byte	0
 10632              	.LLST164:
 10633 1626 00000000 		.4byte	.LFB96
 10634 162a 02000000 		.4byte	.LCFI35
 10635 162e 0200     		.2byte	0x2
 10636 1630 7D       		.byte	0x7d
 10637 1631 00       		.sleb128 0
 10638 1632 02000000 		.4byte	.LCFI35
 10639 1636 0A000000 		.4byte	.LFE96
 10640 163a 0200     		.2byte	0x2
 10641 163c 7D       		.byte	0x7d
 10642 163d 08       		.sleb128 8
 10643 163e 00000000 		.4byte	0
 10644 1642 00000000 		.4byte	0
 10645              	.LLST165:
 10646 1646 00000000 		.4byte	.LVL325
 10647 164a 07000000 		.4byte	.LVL326-1
 10648 164e 0100     		.2byte	0x1
 10649 1650 50       		.byte	0x50
 10650 1651 07000000 		.4byte	.LVL326-1
ARM GAS  C:\Users\CHUCK~1.ERH\AppData\Local\Temp\cc506n3q.s 			page 225


 10651 1655 0A000000 		.4byte	.LFE96
 10652 1659 0400     		.2byte	0x4
 10653 165b F3       		.byte	0xf3
 10654 165c 01       		.uleb128 0x1
 10655 165d 50       		.byte	0x50
 10656 165e 9F       		.byte	0x9f
 10657 165f 00000000 		.4byte	0
 10658 1663 00000000 		.4byte	0
 10659              	.LLST166:
 10660 1667 00000000 		.4byte	.LFB97
 10661 166b 02000000 		.4byte	.LCFI36
 10662 166f 0200     		.2byte	0x2
 10663 1671 7D       		.byte	0x7d
 10664 1672 00       		.sleb128 0
 10665 1673 02000000 		.4byte	.LCFI36
 10666 1677 7C000000 		.4byte	.LFE97
 10667 167b 0200     		.2byte	0x2
 10668 167d 7D       		.byte	0x7d
 10669 167e 20       		.sleb128 32
 10670 167f 00000000 		.4byte	0
 10671 1683 00000000 		.4byte	0
 10672              	.LLST167:
 10673 1687 00000000 		.4byte	.LVL327
 10674 168b 0B000000 		.4byte	.LVL329-1
 10675 168f 0100     		.2byte	0x1
 10676 1691 50       		.byte	0x50
 10677 1692 0B000000 		.4byte	.LVL329-1
 10678 1696 7C000000 		.4byte	.LFE97
 10679 169a 0400     		.2byte	0x4
 10680 169c F3       		.byte	0xf3
 10681 169d 01       		.uleb128 0x1
 10682 169e 50       		.byte	0x50
 10683 169f 9F       		.byte	0x9f
 10684 16a0 00000000 		.4byte	0
 10685 16a4 00000000 		.4byte	0
 10686              	.LLST168:
 10687 16a8 00000000 		.4byte	.LVL327
 10688 16ac 0B000000 		.4byte	.LVL329-1
 10689 16b0 0100     		.2byte	0x1
 10690 16b2 51       		.byte	0x51
 10691 16b3 0B000000 		.4byte	.LVL329-1
 10692 16b7 7C000000 		.4byte	.LFE97
 10693 16bb 0200     		.2byte	0x2
 10694 16bd 91       		.byte	0x91
 10695 16be 64       		.sleb128 -28
 10696 16bf 00000000 		.4byte	0
 10697 16c3 00000000 		.4byte	0
 10698              	.LLST169:
 10699 16c7 00000000 		.4byte	.LVL327
 10700 16cb 0B000000 		.4byte	.LVL329-1
 10701 16cf 0100     		.2byte	0x1
 10702 16d1 52       		.byte	0x52
 10703 16d2 0B000000 		.4byte	.LVL329-1
 10704 16d6 7C000000 		.4byte	.LFE97
 10705 16da 0400     		.2byte	0x4
 10706 16dc F3       		.byte	0xf3
 10707 16dd 01       		.uleb128 0x1
ARM GAS  C:\Users\CHUCK~1.ERH\AppData\Local\Temp\cc506n3q.s 			page 226


 10708 16de 52       		.byte	0x52
 10709 16df 9F       		.byte	0x9f
 10710 16e0 00000000 		.4byte	0
 10711 16e4 00000000 		.4byte	0
 10712              	.LLST170:
 10713 16e8 08000000 		.4byte	.LVL328
 10714 16ec 0B000000 		.4byte	.LVL329-1
 10715 16f0 1700     		.2byte	0x17
 10716 16f2 72       		.byte	0x72
 10717 16f3 00       		.sleb128 0
 10718 16f4 12       		.byte	0x12
 10719 16f5 0A       		.byte	0xa
 10720 16f6 FFFF     		.2byte	0xffff
 10721 16f8 1A       		.byte	0x1a
 10722 16f9 0A       		.byte	0xa
 10723 16fa 0008     		.2byte	0x800
 10724 16fc 16       		.byte	0x16
 10725 16fd 14       		.byte	0x14
 10726 16fe 0A       		.byte	0xa
 10727 16ff FFFF     		.2byte	0xffff
 10728 1701 1A       		.byte	0x1a
 10729 1702 2D       		.byte	0x2d
 10730 1703 28       		.byte	0x28
 10731 1704 0100     		.2byte	0x1
 10732 1706 16       		.byte	0x16
 10733 1707 13       		.byte	0x13
 10734 1708 9F       		.byte	0x9f
 10735 1709 0B000000 		.4byte	.LVL329-1
 10736 170d 30000000 		.4byte	.LVL330
 10737 1711 1700     		.2byte	0x17
 10738 1713 76       		.byte	0x76
 10739 1714 00       		.sleb128 0
 10740 1715 12       		.byte	0x12
 10741 1716 0A       		.byte	0xa
 10742 1717 FFFF     		.2byte	0xffff
 10743 1719 1A       		.byte	0x1a
 10744 171a 0A       		.byte	0xa
 10745 171b 0008     		.2byte	0x800
 10746 171d 16       		.byte	0x16
 10747 171e 14       		.byte	0x14
 10748 171f 0A       		.byte	0xa
 10749 1720 FFFF     		.2byte	0xffff
 10750 1722 1A       		.byte	0x1a
 10751 1723 2D       		.byte	0x2d
 10752 1724 28       		.byte	0x28
 10753 1725 0100     		.2byte	0x1
 10754 1727 16       		.byte	0x16
 10755 1728 13       		.byte	0x13
 10756 1729 9F       		.byte	0x9f
 10757 172a 74000000 		.4byte	.LVL340
 10758 172e 76000000 		.4byte	.LVL341
 10759 1732 0100     		.2byte	0x1
 10760 1734 55       		.byte	0x55
 10761 1735 76000000 		.4byte	.LVL341
 10762 1739 7C000000 		.4byte	.LFE97
 10763 173d 0100     		.2byte	0x1
 10764 173f 50       		.byte	0x50
ARM GAS  C:\Users\CHUCK~1.ERH\AppData\Local\Temp\cc506n3q.s 			page 227


 10765 1740 00000000 		.4byte	0
 10766 1744 00000000 		.4byte	0
 10767              	.LLST171:
 10768 1748 3C000000 		.4byte	.LVL331
 10769 174c 46000000 		.4byte	.LVL332
 10770 1750 0100     		.2byte	0x1
 10771 1752 56       		.byte	0x56
 10772 1753 64000000 		.4byte	.LVL337
 10773 1757 74000000 		.4byte	.LVL340
 10774 175b 0100     		.2byte	0x1
 10775 175d 56       		.byte	0x56
 10776 175e 00000000 		.4byte	0
 10777 1762 00000000 		.4byte	0
 10778              	.LLST172:
 10779 1766 0C000000 		.4byte	.LVL329
 10780 176a 46000000 		.4byte	.LVL332
 10781 176e 0100     		.2byte	0x1
 10782 1770 50       		.byte	0x50
 10783 1771 62000000 		.4byte	.LVL336
 10784 1775 66000000 		.4byte	.LVL338
 10785 1779 0100     		.2byte	0x1
 10786 177b 50       		.byte	0x50
 10787 177c 00000000 		.4byte	0
 10788 1780 00000000 		.4byte	0
 10789              	.LLST173:
 10790 1784 46000000 		.4byte	.LVL332
 10791 1788 64000000 		.4byte	.LVL337
 10792 178c 0100     		.2byte	0x1
 10793 178e 56       		.byte	0x56
 10794 178f 00000000 		.4byte	0
 10795 1793 00000000 		.4byte	0
 10796              	.LLST174:
 10797 1797 00000000 		.4byte	.LFB98
 10798 179b 02000000 		.4byte	.LCFI37
 10799 179f 0200     		.2byte	0x2
 10800 17a1 7D       		.byte	0x7d
 10801 17a2 00       		.sleb128 0
 10802 17a3 02000000 		.4byte	.LCFI37
 10803 17a7 32000000 		.4byte	.LFE98
 10804 17ab 0200     		.2byte	0x2
 10805 17ad 7D       		.byte	0x7d
 10806 17ae 18       		.sleb128 24
 10807 17af 00000000 		.4byte	0
 10808 17b3 00000000 		.4byte	0
 10809              	.LLST175:
 10810 17b7 00000000 		.4byte	.LVL342
 10811 17bb 0B000000 		.4byte	.LVL343-1
 10812 17bf 0100     		.2byte	0x1
 10813 17c1 50       		.byte	0x50
 10814 17c2 0B000000 		.4byte	.LVL343-1
 10815 17c6 32000000 		.4byte	.LFE98
 10816 17ca 0400     		.2byte	0x4
 10817 17cc F3       		.byte	0xf3
 10818 17cd 01       		.uleb128 0x1
 10819 17ce 50       		.byte	0x50
 10820 17cf 9F       		.byte	0x9f
 10821 17d0 00000000 		.4byte	0
ARM GAS  C:\Users\CHUCK~1.ERH\AppData\Local\Temp\cc506n3q.s 			page 228


 10822 17d4 00000000 		.4byte	0
 10823              	.LLST176:
 10824 17d8 00000000 		.4byte	.LVL342
 10825 17dc 0B000000 		.4byte	.LVL343-1
 10826 17e0 0100     		.2byte	0x1
 10827 17e2 51       		.byte	0x51
 10828 17e3 0B000000 		.4byte	.LVL343-1
 10829 17e7 30000000 		.4byte	.LVL349
 10830 17eb 0100     		.2byte	0x1
 10831 17ed 57       		.byte	0x57
 10832 17ee 30000000 		.4byte	.LVL349
 10833 17f2 32000000 		.4byte	.LFE98
 10834 17f6 0400     		.2byte	0x4
 10835 17f8 F3       		.byte	0xf3
 10836 17f9 01       		.uleb128 0x1
 10837 17fa 51       		.byte	0x51
 10838 17fb 9F       		.byte	0x9f
 10839 17fc 00000000 		.4byte	0
 10840 1800 00000000 		.4byte	0
 10841              	.LLST177:
 10842 1804 00000000 		.4byte	.LVL342
 10843 1808 0B000000 		.4byte	.LVL343-1
 10844 180c 0100     		.2byte	0x1
 10845 180e 52       		.byte	0x52
 10846 180f 0B000000 		.4byte	.LVL343-1
 10847 1813 32000000 		.4byte	.LFE98
 10848 1817 0400     		.2byte	0x4
 10849 1819 F3       		.byte	0xf3
 10850 181a 01       		.uleb128 0x1
 10851 181b 52       		.byte	0x52
 10852 181c 9F       		.byte	0x9f
 10853 181d 00000000 		.4byte	0
 10854 1821 00000000 		.4byte	0
 10855              	.LLST178:
 10856 1825 0C000000 		.4byte	.LVL343
 10857 1829 16000000 		.4byte	.LVL344
 10858 182d 0100     		.2byte	0x1
 10859 182f 50       		.byte	0x50
 10860 1830 16000000 		.4byte	.LVL344
 10861 1834 30000000 		.4byte	.LVL347
 10862 1838 0100     		.2byte	0x1
 10863 183a 54       		.byte	0x54
 10864 183b 30000000 		.4byte	.LVL347
 10865 183f 30000000 		.4byte	.LVL348
 10866 1843 0100     		.2byte	0x1
 10867 1845 56       		.byte	0x56
 10868 1846 30000000 		.4byte	.LVL348
 10869 184a 32000000 		.4byte	.LFE98
 10870 184e 0100     		.2byte	0x1
 10871 1850 50       		.byte	0x50
 10872 1851 00000000 		.4byte	0
 10873 1855 00000000 		.4byte	0
 10874              	.LLST179:
 10875 1859 00000000 		.4byte	.LFB99
 10876 185d 02000000 		.4byte	.LCFI38
 10877 1861 0200     		.2byte	0x2
 10878 1863 7D       		.byte	0x7d
ARM GAS  C:\Users\CHUCK~1.ERH\AppData\Local\Temp\cc506n3q.s 			page 229


 10879 1864 00       		.sleb128 0
 10880 1865 02000000 		.4byte	.LCFI38
 10881 1869 18000000 		.4byte	.LFE99
 10882 186d 0200     		.2byte	0x2
 10883 186f 7D       		.byte	0x7d
 10884 1870 10       		.sleb128 16
 10885 1871 00000000 		.4byte	0
 10886 1875 00000000 		.4byte	0
 10887              	.LLST180:
 10888 1879 00000000 		.4byte	.LVL350
 10889 187d 06000000 		.4byte	.LVL351
 10890 1881 0100     		.2byte	0x1
 10891 1883 50       		.byte	0x50
 10892 1884 06000000 		.4byte	.LVL351
 10893 1888 18000000 		.4byte	.LFE99
 10894 188c 0400     		.2byte	0x4
 10895 188e F3       		.byte	0xf3
 10896 188f 01       		.uleb128 0x1
 10897 1890 50       		.byte	0x50
 10898 1891 9F       		.byte	0x9f
 10899 1892 00000000 		.4byte	0
 10900 1896 00000000 		.4byte	0
 10901              	.LLST181:
 10902 189a 00000000 		.4byte	.LVL350
 10903 189e 0B000000 		.4byte	.LVL352-1
 10904 18a2 0100     		.2byte	0x1
 10905 18a4 51       		.byte	0x51
 10906 18a5 0B000000 		.4byte	.LVL352-1
 10907 18a9 16000000 		.4byte	.LVL354
 10908 18ad 0100     		.2byte	0x1
 10909 18af 54       		.byte	0x54
 10910 18b0 16000000 		.4byte	.LVL354
 10911 18b4 18000000 		.4byte	.LFE99
 10912 18b8 0400     		.2byte	0x4
 10913 18ba F3       		.byte	0xf3
 10914 18bb 01       		.uleb128 0x1
 10915 18bc 51       		.byte	0x51
 10916 18bd 9F       		.byte	0x9f
 10917 18be 00000000 		.4byte	0
 10918 18c2 00000000 		.4byte	0
 10919              	.LLST182:
 10920 18c6 00000000 		.4byte	.LFB100
 10921 18ca 02000000 		.4byte	.LCFI39
 10922 18ce 0200     		.2byte	0x2
 10923 18d0 7D       		.byte	0x7d
 10924 18d1 00       		.sleb128 0
 10925 18d2 02000000 		.4byte	.LCFI39
 10926 18d6 0E000000 		.4byte	.LFE100
 10927 18da 0200     		.2byte	0x2
 10928 18dc 7D       		.byte	0x7d
 10929 18dd 08       		.sleb128 8
 10930 18de 00000000 		.4byte	0
 10931 18e2 00000000 		.4byte	0
 10932              	.LLST183:
 10933 18e6 00000000 		.4byte	.LVL355
 10934 18ea 08000000 		.4byte	.LVL356
 10935 18ee 0100     		.2byte	0x1
ARM GAS  C:\Users\CHUCK~1.ERH\AppData\Local\Temp\cc506n3q.s 			page 230


 10936 18f0 50       		.byte	0x50
 10937 18f1 08000000 		.4byte	.LVL356
 10938 18f5 0E000000 		.4byte	.LFE100
 10939 18f9 0400     		.2byte	0x4
 10940 18fb F3       		.byte	0xf3
 10941 18fc 01       		.uleb128 0x1
 10942 18fd 50       		.byte	0x50
 10943 18fe 9F       		.byte	0x9f
 10944 18ff 00000000 		.4byte	0
 10945 1903 00000000 		.4byte	0
 10946              	.LLST184:
 10947 1907 00000000 		.4byte	.LFB101
 10948 190b 02000000 		.4byte	.LCFI40
 10949 190f 0200     		.2byte	0x2
 10950 1911 7D       		.byte	0x7d
 10951 1912 00       		.sleb128 0
 10952 1913 02000000 		.4byte	.LCFI40
 10953 1917 60000000 		.4byte	.LFE101
 10954 191b 0200     		.2byte	0x2
 10955 191d 7D       		.byte	0x7d
 10956 191e 20       		.sleb128 32
 10957 191f 00000000 		.4byte	0
 10958 1923 00000000 		.4byte	0
 10959              	.LLST185:
 10960 1927 00000000 		.4byte	.LVL358
 10961 192b 11000000 		.4byte	.LVL360-1
 10962 192f 0100     		.2byte	0x1
 10963 1931 50       		.byte	0x50
 10964 1932 11000000 		.4byte	.LVL360-1
 10965 1936 60000000 		.4byte	.LFE101
 10966 193a 0400     		.2byte	0x4
 10967 193c F3       		.byte	0xf3
 10968 193d 01       		.uleb128 0x1
 10969 193e 50       		.byte	0x50
 10970 193f 9F       		.byte	0x9f
 10971 1940 00000000 		.4byte	0
 10972 1944 00000000 		.4byte	0
 10973              	.LLST186:
 10974 1948 00000000 		.4byte	.LVL358
 10975 194c 11000000 		.4byte	.LVL360-1
 10976 1950 0100     		.2byte	0x1
 10977 1952 51       		.byte	0x51
 10978 1953 11000000 		.4byte	.LVL360-1
 10979 1957 36000000 		.4byte	.LVL363
 10980 195b 0100     		.2byte	0x1
 10981 195d 57       		.byte	0x57
 10982 195e 36000000 		.4byte	.LVL363
 10983 1962 39000000 		.4byte	.LVL364-1
 10984 1966 0100     		.2byte	0x1
 10985 1968 51       		.byte	0x51
 10986 1969 39000000 		.4byte	.LVL364-1
 10987 196d 60000000 		.4byte	.LFE101
 10988 1971 0400     		.2byte	0x4
 10989 1973 F3       		.byte	0xf3
 10990 1974 01       		.uleb128 0x1
 10991 1975 51       		.byte	0x51
 10992 1976 9F       		.byte	0x9f
ARM GAS  C:\Users\CHUCK~1.ERH\AppData\Local\Temp\cc506n3q.s 			page 231


 10993 1977 00000000 		.4byte	0
 10994 197b 00000000 		.4byte	0
 10995              	.LLST187:
 10996 197f 00000000 		.4byte	.LVL358
 10997 1983 11000000 		.4byte	.LVL360-1
 10998 1987 0100     		.2byte	0x1
 10999 1989 52       		.byte	0x52
 11000 198a 11000000 		.4byte	.LVL360-1
 11001 198e 60000000 		.4byte	.LFE101
 11002 1992 0400     		.2byte	0x4
 11003 1994 F3       		.byte	0xf3
 11004 1995 01       		.uleb128 0x1
 11005 1996 52       		.byte	0x52
 11006 1997 9F       		.byte	0x9f
 11007 1998 00000000 		.4byte	0
 11008 199c 00000000 		.4byte	0
 11009              	.LLST188:
 11010 19a0 00000000 		.4byte	.LVL358
 11011 19a4 06000000 		.4byte	.LVL359
 11012 19a8 0100     		.2byte	0x1
 11013 19aa 53       		.byte	0x53
 11014 19ab 06000000 		.4byte	.LVL359
 11015 19af 11000000 		.4byte	.LVL360-1
 11016 19b3 0200     		.2byte	0x2
 11017 19b5 73       		.byte	0x73
 11018 19b6 64       		.sleb128 -28
 11019 19b7 11000000 		.4byte	.LVL360-1
 11020 19bb 60000000 		.4byte	.LFE101
 11021 19bf 0200     		.2byte	0x2
 11022 19c1 91       		.byte	0x91
 11023 19c2 64       		.sleb128 -28
 11024 19c3 00000000 		.4byte	0
 11025 19c7 00000000 		.4byte	0
 11026              	.LLST189:
 11027 19cb 16000000 		.4byte	.LVL361
 11028 19cf 2E000000 		.4byte	.LVL362
 11029 19d3 1700     		.2byte	0x17
 11030 19d5 76       		.byte	0x76
 11031 19d6 00       		.sleb128 0
 11032 19d7 12       		.byte	0x12
 11033 19d8 0A       		.byte	0xa
 11034 19d9 FFFF     		.2byte	0xffff
 11035 19db 1A       		.byte	0x1a
 11036 19dc 0A       		.byte	0xa
 11037 19dd 0008     		.2byte	0x800
 11038 19df 16       		.byte	0x16
 11039 19e0 14       		.byte	0x14
 11040 19e1 0A       		.byte	0xa
 11041 19e2 FFFF     		.2byte	0xffff
 11042 19e4 1A       		.byte	0x1a
 11043 19e5 2D       		.byte	0x2d
 11044 19e6 28       		.byte	0x28
 11045 19e7 0100     		.2byte	0x1
 11046 19e9 16       		.byte	0x16
 11047 19ea 13       		.byte	0x13
 11048 19eb 9F       		.byte	0x9f
 11049 19ec 2E000000 		.4byte	.LVL362
ARM GAS  C:\Users\CHUCK~1.ERH\AppData\Local\Temp\cc506n3q.s 			page 232


 11050 19f0 58000000 		.4byte	.LVL368
 11051 19f4 1900     		.2byte	0x19
 11052 19f6 91       		.byte	0x91
 11053 19f7 00       		.sleb128 0
 11054 19f8 94       		.byte	0x94
 11055 19f9 02       		.byte	0x2
 11056 19fa 12       		.byte	0x12
 11057 19fb 0A       		.byte	0xa
 11058 19fc FFFF     		.2byte	0xffff
 11059 19fe 1A       		.byte	0x1a
 11060 19ff 0A       		.byte	0xa
 11061 1a00 0008     		.2byte	0x800
 11062 1a02 16       		.byte	0x16
 11063 1a03 14       		.byte	0x14
 11064 1a04 0A       		.byte	0xa
 11065 1a05 FFFF     		.2byte	0xffff
 11066 1a07 1A       		.byte	0x1a
 11067 1a08 2D       		.byte	0x2d
 11068 1a09 28       		.byte	0x28
 11069 1a0a 0100     		.2byte	0x1
 11070 1a0c 16       		.byte	0x16
 11071 1a0d 13       		.byte	0x13
 11072 1a0e 9F       		.byte	0x9f
 11073 1a0f 58000000 		.4byte	.LVL368
 11074 1a13 5A000000 		.4byte	.LVL369
 11075 1a17 0100     		.2byte	0x1
 11076 1a19 55       		.byte	0x55
 11077 1a1a 5A000000 		.4byte	.LVL369
 11078 1a1e 60000000 		.4byte	.LFE101
 11079 1a22 0100     		.2byte	0x1
 11080 1a24 50       		.byte	0x50
 11081 1a25 00000000 		.4byte	0
 11082 1a29 00000000 		.4byte	0
 11083              	.LLST190:
 11084 1a2d 44000000 		.4byte	.LVL365
 11085 1a31 58000000 		.4byte	.LVL368
 11086 1a35 0100     		.2byte	0x1
 11087 1a37 54       		.byte	0x54
 11088 1a38 00000000 		.4byte	0
 11089 1a3c 00000000 		.4byte	0
 11090              	.LLST191:
 11091 1a40 44000000 		.4byte	.LVL365
 11092 1a44 58000000 		.4byte	.LVL368
 11093 1a48 0200     		.2byte	0x2
 11094 1a4a 91       		.byte	0x91
 11095 1a4b 60       		.sleb128 -32
 11096 1a4c 00000000 		.4byte	0
 11097 1a50 00000000 		.4byte	0
 11098              	.LLST193:
 11099 1a54 00000000 		.4byte	.LFB102
 11100 1a58 02000000 		.4byte	.LCFI41
 11101 1a5c 0200     		.2byte	0x2
 11102 1a5e 7D       		.byte	0x7d
 11103 1a5f 00       		.sleb128 0
 11104 1a60 02000000 		.4byte	.LCFI41
 11105 1a64 04000000 		.4byte	.LCFI42
 11106 1a68 0200     		.2byte	0x2
ARM GAS  C:\Users\CHUCK~1.ERH\AppData\Local\Temp\cc506n3q.s 			page 233


 11107 1a6a 7D       		.byte	0x7d
 11108 1a6b 14       		.sleb128 20
 11109 1a6c 04000000 		.4byte	.LCFI42
 11110 1a70 8C000000 		.4byte	.LFE102
 11111 1a74 0200     		.2byte	0x2
 11112 1a76 7D       		.byte	0x7d
 11113 1a77 28       		.sleb128 40
 11114 1a78 00000000 		.4byte	0
 11115 1a7c 00000000 		.4byte	0
 11116              	.LLST194:
 11117 1a80 00000000 		.4byte	.LVL370
 11118 1a84 13000000 		.4byte	.LVL372-1
 11119 1a88 0100     		.2byte	0x1
 11120 1a8a 50       		.byte	0x50
 11121 1a8b 13000000 		.4byte	.LVL372-1
 11122 1a8f 8C000000 		.4byte	.LFE102
 11123 1a93 0400     		.2byte	0x4
 11124 1a95 F3       		.byte	0xf3
 11125 1a96 01       		.uleb128 0x1
 11126 1a97 50       		.byte	0x50
 11127 1a98 9F       		.byte	0x9f
 11128 1a99 00000000 		.4byte	0
 11129 1a9d 00000000 		.4byte	0
 11130              	.LLST195:
 11131 1aa1 00000000 		.4byte	.LVL370
 11132 1aa5 13000000 		.4byte	.LVL372-1
 11133 1aa9 0100     		.2byte	0x1
 11134 1aab 51       		.byte	0x51
 11135 1aac 13000000 		.4byte	.LVL372-1
 11136 1ab0 58000000 		.4byte	.LVL380
 11137 1ab4 0100     		.2byte	0x1
 11138 1ab6 57       		.byte	0x57
 11139 1ab7 58000000 		.4byte	.LVL380
 11140 1abb 8C000000 		.4byte	.LFE102
 11141 1abf 0400     		.2byte	0x4
 11142 1ac1 F3       		.byte	0xf3
 11143 1ac2 01       		.uleb128 0x1
 11144 1ac3 51       		.byte	0x51
 11145 1ac4 9F       		.byte	0x9f
 11146 1ac5 00000000 		.4byte	0
 11147 1ac9 00000000 		.4byte	0
 11148              	.LLST196:
 11149 1acd 00000000 		.4byte	.LVL370
 11150 1ad1 13000000 		.4byte	.LVL372-1
 11151 1ad5 0100     		.2byte	0x1
 11152 1ad7 52       		.byte	0x52
 11153 1ad8 13000000 		.4byte	.LVL372-1
 11154 1adc 8A000000 		.4byte	.LVL385
 11155 1ae0 0200     		.2byte	0x2
 11156 1ae2 7D       		.byte	0x7d
 11157 1ae3 00       		.sleb128 0
 11158 1ae4 8A000000 		.4byte	.LVL385
 11159 1ae8 8C000000 		.4byte	.LFE102
 11160 1aec 0200     		.2byte	0x2
 11161 1aee 91       		.byte	0x91
 11162 1aef 58       		.sleb128 -40
 11163 1af0 00000000 		.4byte	0
ARM GAS  C:\Users\CHUCK~1.ERH\AppData\Local\Temp\cc506n3q.s 			page 234


 11164 1af4 00000000 		.4byte	0
 11165              	.LLST197:
 11166 1af8 00000000 		.4byte	.LVL370
 11167 1afc 08000000 		.4byte	.LVL371
 11168 1b00 0100     		.2byte	0x1
 11169 1b02 53       		.byte	0x53
 11170 1b03 08000000 		.4byte	.LVL371
 11171 1b07 13000000 		.4byte	.LVL372-1
 11172 1b0b 0200     		.2byte	0x2
 11173 1b0d 73       		.byte	0x73
 11174 1b0e 5C       		.sleb128 -36
 11175 1b0f 13000000 		.4byte	.LVL372-1
 11176 1b13 8C000000 		.4byte	.LFE102
 11177 1b17 0200     		.2byte	0x2
 11178 1b19 91       		.byte	0x91
 11179 1b1a 5C       		.sleb128 -36
 11180 1b1b 00000000 		.4byte	0
 11181 1b1f 00000000 		.4byte	0
 11182              	.LLST198:
 11183 1b23 00000000 		.4byte	.LVL370
 11184 1b27 18000000 		.4byte	.LVL373
 11185 1b2b 0200     		.2byte	0x2
 11186 1b2d 30       		.byte	0x30
 11187 1b2e 9F       		.byte	0x9f
 11188 1b2f 1C000000 		.4byte	.LVL374
 11189 1b33 24000000 		.4byte	.LVL376
 11190 1b37 0200     		.2byte	0x2
 11191 1b39 30       		.byte	0x30
 11192 1b3a 9F       		.byte	0x9f
 11193 1b3b 24000000 		.4byte	.LVL376
 11194 1b3f 26000000 		.4byte	.LVL377
 11195 1b43 0100     		.2byte	0x1
 11196 1b45 50       		.byte	0x50
 11197 1b46 26000000 		.4byte	.LVL377
 11198 1b4a 84000000 		.4byte	.LVL383
 11199 1b4e 0100     		.2byte	0x1
 11200 1b50 55       		.byte	0x55
 11201 1b51 84000000 		.4byte	.LVL383
 11202 1b55 86000000 		.4byte	.LVL384
 11203 1b59 0100     		.2byte	0x1
 11204 1b5b 57       		.byte	0x57
 11205 1b5c 86000000 		.4byte	.LVL384
 11206 1b60 8C000000 		.4byte	.LFE102
 11207 1b64 0100     		.2byte	0x1
 11208 1b66 51       		.byte	0x51
 11209 1b67 00000000 		.4byte	0
 11210 1b6b 00000000 		.4byte	0
 11211              	.LLST199:
 11212 1b6f 6A000000 		.4byte	.LVL381
 11213 1b73 86000000 		.4byte	.LVL384
 11214 1b77 0100     		.2byte	0x1
 11215 1b79 57       		.byte	0x57
 11216 1b7a 00000000 		.4byte	0
 11217 1b7e 00000000 		.4byte	0
 11218              		.section	.debug_aranges,"",%progbits
 11219 0000 5C010000 		.4byte	0x15c
 11220 0004 0200     		.2byte	0x2
ARM GAS  C:\Users\CHUCK~1.ERH\AppData\Local\Temp\cc506n3q.s 			page 235


 11221 0006 00000000 		.4byte	.Ldebug_info0
 11222 000a 04       		.byte	0x4
 11223 000b 00       		.byte	0
 11224 000c 0000     		.2byte	0
 11225 000e 0000     		.2byte	0
 11226 0010 00000000 		.4byte	.LFB1
 11227 0014 3A000000 		.4byte	.LFE1-.LFB1
 11228 0018 00000000 		.4byte	.LFB7
 11229 001c 18000000 		.4byte	.LFE7-.LFB7
 11230 0020 00000000 		.4byte	.LFB5
 11231 0024 1C000000 		.4byte	.LFE5-.LFB5
 11232 0028 00000000 		.4byte	.LFB9
 11233 002c 1E000000 		.4byte	.LFE9-.LFB9
 11234 0030 00000000 		.4byte	.LFB2
 11235 0034 5A000000 		.4byte	.LFE2-.LFB2
 11236 0038 00000000 		.4byte	.LFB44
 11237 003c 14000000 		.4byte	.LFE44-.LFB44
 11238 0040 00000000 		.4byte	.LFB8
 11239 0044 1A000000 		.4byte	.LFE8-.LFB8
 11240 0048 00000000 		.4byte	.LFB111
 11241 004c 60000000 		.4byte	.LFE111-.LFB111
 11242 0050 00000000 		.4byte	.LFB71
 11243 0054 2C000000 		.4byte	.LFE71-.LFB71
 11244 0058 00000000 		.4byte	.LFB10
 11245 005c 1E000000 		.4byte	.LFE10-.LFB10
 11246 0060 00000000 		.4byte	.LFB112
 11247 0064 66000000 		.4byte	.LFE112-.LFB112
 11248 0068 00000000 		.4byte	.LFB69
 11249 006c 34000000 		.4byte	.LFE69-.LFB69
 11250 0070 00000000 		.4byte	.LFB106
 11251 0074 1E000000 		.4byte	.LFE106-.LFB106
 11252 0078 00000000 		.4byte	.LFB88
 11253 007c 4C000000 		.4byte	.LFE88-.LFB88
 11254 0080 00000000 		.4byte	.LFB76
 11255 0084 88000000 		.4byte	.LFE76-.LFB76
 11256 0088 00000000 		.4byte	.LFB77
 11257 008c 0E010000 		.4byte	.LFE77-.LFB77
 11258 0090 00000000 		.4byte	.LFB78
 11259 0094 62000000 		.4byte	.LFE78-.LFB78
 11260 0098 00000000 		.4byte	.LFB79
 11261 009c 66000000 		.4byte	.LFE79-.LFB79
 11262 00a0 00000000 		.4byte	.LFB80
 11263 00a4 16000000 		.4byte	.LFE80-.LFB80
 11264 00a8 00000000 		.4byte	.LFB81
 11265 00ac 08000000 		.4byte	.LFE81-.LFB81
 11266 00b0 00000000 		.4byte	.LFB82
 11267 00b4 1A000000 		.4byte	.LFE82-.LFB82
 11268 00b8 00000000 		.4byte	.LFB83
 11269 00bc 1A000000 		.4byte	.LFE83-.LFB83
 11270 00c0 00000000 		.4byte	.LFB84
 11271 00c4 7C000000 		.4byte	.LFE84-.LFB84
 11272 00c8 00000000 		.4byte	.LFB85
 11273 00cc 38000000 		.4byte	.LFE85-.LFB85
 11274 00d0 00000000 		.4byte	.LFB74
 11275 00d4 8C000000 		.4byte	.LFE74-.LFB74
 11276 00d8 00000000 		.4byte	.LFB75
 11277 00dc 7C000000 		.4byte	.LFE75-.LFB75
ARM GAS  C:\Users\CHUCK~1.ERH\AppData\Local\Temp\cc506n3q.s 			page 236


 11278 00e0 00000000 		.4byte	.LFB86
 11279 00e4 1E000000 		.4byte	.LFE86-.LFB86
 11280 00e8 00000000 		.4byte	.LFB87
 11281 00ec 0E000000 		.4byte	.LFE87-.LFB87
 11282 00f0 00000000 		.4byte	.LFB90
 11283 00f4 08000000 		.4byte	.LFE90-.LFB90
 11284 00f8 00000000 		.4byte	.LFB91
 11285 00fc 0E000000 		.4byte	.LFE91-.LFB91
 11286 0100 00000000 		.4byte	.LFB92
 11287 0104 0E000000 		.4byte	.LFE92-.LFB92
 11288 0108 00000000 		.4byte	.LFB93
 11289 010c 1C000000 		.4byte	.LFE93-.LFB93
 11290 0110 00000000 		.4byte	.LFB94
 11291 0114 7C000000 		.4byte	.LFE94-.LFB94
 11292 0118 00000000 		.4byte	.LFB95
 11293 011c 08000000 		.4byte	.LFE95-.LFB95
 11294 0120 00000000 		.4byte	.LFB96
 11295 0124 0A000000 		.4byte	.LFE96-.LFB96
 11296 0128 00000000 		.4byte	.LFB97
 11297 012c 7C000000 		.4byte	.LFE97-.LFB97
 11298 0130 00000000 		.4byte	.LFB98
 11299 0134 32000000 		.4byte	.LFE98-.LFB98
 11300 0138 00000000 		.4byte	.LFB99
 11301 013c 18000000 		.4byte	.LFE99-.LFB99
 11302 0140 00000000 		.4byte	.LFB100
 11303 0144 0E000000 		.4byte	.LFE100-.LFB100
 11304 0148 00000000 		.4byte	.LFB101
 11305 014c 60000000 		.4byte	.LFE101-.LFB101
 11306 0150 00000000 		.4byte	.LFB102
 11307 0154 8C000000 		.4byte	.LFE102-.LFB102
 11308 0158 00000000 		.4byte	0
 11309 015c 00000000 		.4byte	0
 11310              		.section	.debug_ranges,"",%progbits
 11311              	.Ldebug_ranges0:
 11312 0000 04000000 		.4byte	.LBB14
 11313 0004 08000000 		.4byte	.LBE14
 11314 0008 0A000000 		.4byte	.LBB19
 11315 000c 10000000 		.4byte	.LBE19
 11316 0010 12000000 		.4byte	.LBB20
 11317 0014 16000000 		.4byte	.LBE20
 11318 0018 1C000000 		.4byte	.LBB21
 11319 001c 1E000000 		.4byte	.LBE21
 11320 0020 00000000 		.4byte	0
 11321 0024 00000000 		.4byte	0
 11322 0028 00000000 		.4byte	.LBB28
 11323 002c 02000000 		.4byte	.LBE28
 11324 0030 04000000 		.4byte	.LBB31
 11325 0034 14000000 		.4byte	.LBE31
 11326 0038 00000000 		.4byte	0
 11327 003c 00000000 		.4byte	0
 11328 0040 04000000 		.4byte	.LBB38
 11329 0044 08000000 		.4byte	.LBE38
 11330 0048 0A000000 		.4byte	.LBB43
 11331 004c 0C000000 		.4byte	.LBE43
 11332 0050 0E000000 		.4byte	.LBB44
 11333 0054 14000000 		.4byte	.LBE44
 11334 0058 16000000 		.4byte	.LBB45
ARM GAS  C:\Users\CHUCK~1.ERH\AppData\Local\Temp\cc506n3q.s 			page 237


 11335 005c 1A000000 		.4byte	.LBE45
 11336 0060 00000000 		.4byte	0
 11337 0064 00000000 		.4byte	0
 11338 0068 00000000 		.4byte	.LBB66
 11339 006c 02000000 		.4byte	.LBE66
 11340 0070 04000000 		.4byte	.LBB70
 11341 0074 06000000 		.4byte	.LBE70
 11342 0078 08000000 		.4byte	.LBB71
 11343 007c 0E000000 		.4byte	.LBE71
 11344 0080 00000000 		.4byte	0
 11345 0084 00000000 		.4byte	0
 11346 0088 40000000 		.4byte	.LBB117
 11347 008c 42000000 		.4byte	.LBE117
 11348 0090 4A000000 		.4byte	.LBB121
 11349 0094 4C000000 		.4byte	.LBE121
 11350 0098 4E000000 		.4byte	.LBB122
 11351 009c 56000000 		.4byte	.LBE122
 11352 00a0 00000000 		.4byte	0
 11353 00a4 00000000 		.4byte	0
 11354 00a8 4E000000 		.4byte	.LBB188
 11355 00ac 50000000 		.4byte	.LBE188
 11356 00b0 52000000 		.4byte	.LBB191
 11357 00b4 5A000000 		.4byte	.LBE191
 11358 00b8 00000000 		.4byte	0
 11359 00bc 00000000 		.4byte	0
 11360 00c0 2C000000 		.4byte	.LBB200
 11361 00c4 34000000 		.4byte	.LBE200
 11362 00c8 36000000 		.4byte	.LBB212
 11363 00cc 3C000000 		.4byte	.LBE212
 11364 00d0 46000000 		.4byte	.LBB213
 11365 00d4 5C000000 		.4byte	.LBE213
 11366 00d8 00000000 		.4byte	0
 11367 00dc 00000000 		.4byte	0
 11368 00e0 2C000000 		.4byte	.LBB201
 11369 00e4 34000000 		.4byte	.LBE201
 11370 00e8 36000000 		.4byte	.LBB210
 11371 00ec 3C000000 		.4byte	.LBE210
 11372 00f0 46000000 		.4byte	.LBB211
 11373 00f4 5C000000 		.4byte	.LBE211
 11374 00f8 00000000 		.4byte	0
 11375 00fc 00000000 		.4byte	0
 11376 0100 2C000000 		.4byte	.LBB202
 11377 0104 34000000 		.4byte	.LBE202
 11378 0108 36000000 		.4byte	.LBB206
 11379 010c 3C000000 		.4byte	.LBE206
 11380 0110 46000000 		.4byte	.LBB207
 11381 0114 4E000000 		.4byte	.LBE207
 11382 0118 00000000 		.4byte	0
 11383 011c 00000000 		.4byte	0
 11384 0120 2A000000 		.4byte	.LBB218
 11385 0124 34000000 		.4byte	.LBE218
 11386 0128 36000000 		.4byte	.LBB225
 11387 012c 3A000000 		.4byte	.LBE225
 11388 0130 00000000 		.4byte	0
 11389 0134 00000000 		.4byte	0
 11390 0138 34000000 		.4byte	.LBB221
 11391 013c 36000000 		.4byte	.LBE221
ARM GAS  C:\Users\CHUCK~1.ERH\AppData\Local\Temp\cc506n3q.s 			page 238


 11392 0140 3A000000 		.4byte	.LBB226
 11393 0144 42000000 		.4byte	.LBE226
 11394 0148 44000000 		.4byte	.LBB227
 11395 014c 48000000 		.4byte	.LBE227
 11396 0150 00000000 		.4byte	0
 11397 0154 00000000 		.4byte	0
 11398 0158 00000000 		.4byte	.LFB1
 11399 015c 3A000000 		.4byte	.LFE1
 11400 0160 00000000 		.4byte	.LFB7
 11401 0164 18000000 		.4byte	.LFE7
 11402 0168 00000000 		.4byte	.LFB5
 11403 016c 1C000000 		.4byte	.LFE5
 11404 0170 00000000 		.4byte	.LFB9
 11405 0174 1E000000 		.4byte	.LFE9
 11406 0178 00000000 		.4byte	.LFB2
 11407 017c 5A000000 		.4byte	.LFE2
 11408 0180 00000000 		.4byte	.LFB44
 11409 0184 14000000 		.4byte	.LFE44
 11410 0188 00000000 		.4byte	.LFB8
 11411 018c 1A000000 		.4byte	.LFE8
 11412 0190 00000000 		.4byte	.LFB111
 11413 0194 60000000 		.4byte	.LFE111
 11414 0198 00000000 		.4byte	.LFB71
 11415 019c 2C000000 		.4byte	.LFE71
 11416 01a0 00000000 		.4byte	.LFB10
 11417 01a4 1E000000 		.4byte	.LFE10
 11418 01a8 00000000 		.4byte	.LFB112
 11419 01ac 66000000 		.4byte	.LFE112
 11420 01b0 00000000 		.4byte	.LFB69
 11421 01b4 34000000 		.4byte	.LFE69
 11422 01b8 00000000 		.4byte	.LFB106
 11423 01bc 1E000000 		.4byte	.LFE106
 11424 01c0 00000000 		.4byte	.LFB88
 11425 01c4 4C000000 		.4byte	.LFE88
 11426 01c8 00000000 		.4byte	.LFB76
 11427 01cc 88000000 		.4byte	.LFE76
 11428 01d0 00000000 		.4byte	.LFB77
 11429 01d4 0E010000 		.4byte	.LFE77
 11430 01d8 00000000 		.4byte	.LFB78
 11431 01dc 62000000 		.4byte	.LFE78
 11432 01e0 00000000 		.4byte	.LFB79
 11433 01e4 66000000 		.4byte	.LFE79
 11434 01e8 00000000 		.4byte	.LFB80
 11435 01ec 16000000 		.4byte	.LFE80
 11436 01f0 00000000 		.4byte	.LFB81
 11437 01f4 08000000 		.4byte	.LFE81
 11438 01f8 00000000 		.4byte	.LFB82
 11439 01fc 1A000000 		.4byte	.LFE82
 11440 0200 00000000 		.4byte	.LFB83
 11441 0204 1A000000 		.4byte	.LFE83
 11442 0208 00000000 		.4byte	.LFB84
 11443 020c 7C000000 		.4byte	.LFE84
 11444 0210 00000000 		.4byte	.LFB85
 11445 0214 38000000 		.4byte	.LFE85
 11446 0218 00000000 		.4byte	.LFB74
 11447 021c 8C000000 		.4byte	.LFE74
 11448 0220 00000000 		.4byte	.LFB75
ARM GAS  C:\Users\CHUCK~1.ERH\AppData\Local\Temp\cc506n3q.s 			page 239


 11449 0224 7C000000 		.4byte	.LFE75
 11450 0228 00000000 		.4byte	.LFB86
 11451 022c 1E000000 		.4byte	.LFE86
 11452 0230 00000000 		.4byte	.LFB87
 11453 0234 0E000000 		.4byte	.LFE87
 11454 0238 00000000 		.4byte	.LFB90
 11455 023c 08000000 		.4byte	.LFE90
 11456 0240 00000000 		.4byte	.LFB91
 11457 0244 0E000000 		.4byte	.LFE91
 11458 0248 00000000 		.4byte	.LFB92
 11459 024c 0E000000 		.4byte	.LFE92
 11460 0250 00000000 		.4byte	.LFB93
 11461 0254 1C000000 		.4byte	.LFE93
 11462 0258 00000000 		.4byte	.LFB94
 11463 025c 7C000000 		.4byte	.LFE94
 11464 0260 00000000 		.4byte	.LFB95
 11465 0264 08000000 		.4byte	.LFE95
 11466 0268 00000000 		.4byte	.LFB96
 11467 026c 0A000000 		.4byte	.LFE96
 11468 0270 00000000 		.4byte	.LFB97
 11469 0274 7C000000 		.4byte	.LFE97
 11470 0278 00000000 		.4byte	.LFB98
 11471 027c 32000000 		.4byte	.LFE98
 11472 0280 00000000 		.4byte	.LFB99
 11473 0284 18000000 		.4byte	.LFE99
 11474 0288 00000000 		.4byte	.LFB100
 11475 028c 0E000000 		.4byte	.LFE100
 11476 0290 00000000 		.4byte	.LFB101
 11477 0294 60000000 		.4byte	.LFE101
 11478 0298 00000000 		.4byte	.LFB102
 11479 029c 8C000000 		.4byte	.LFE102
 11480 02a0 00000000 		.4byte	0
 11481 02a4 00000000 		.4byte	0
 11482              		.section	.debug_line,"",%progbits
 11483              	.Ldebug_line0:
 11484 0000 C5080000 		.section	.debug_str,"MS",%progbits,1
 11484      0200AB01 
 11484      00000201 
 11484      FB0E0D00 
 11484      01010101 
 11485              	.LASF90:
 11486 0000 57353130 		.ascii	"W5100_SetSocketMode\000"
 11486      305F5365 
 11486      74536F63 
 11486      6B65744D 
 11486      6F646500 
 11487              	.LASF45:
 11488 0014 636F756E 		.ascii	"count\000"
 11488      7400
 11489              	.LASF82:
 11490 001a 57353130 		.ascii	"W5100_SetSourceIP\000"
 11490      305F5365 
 11490      74536F75 
 11490      72636549 
 11490      5000
 11491              	.LASF10:
 11492 002c 75696E74 		.ascii	"uint16\000"
ARM GAS  C:\Users\CHUCK~1.ERH\AppData\Local\Temp\cc506n3q.s 			page 240


 11492      313600
 11493              	.LASF65:
 11494 0033 57353130 		.ascii	"W5100_SocketSend\000"
 11494      305F536F 
 11494      636B6574 
 11494      53656E64 
 11494      00
 11495              	.LASF112:
 11496 0044 54785369 		.ascii	"TxSize\000"
 11496      7A6500
 11497              	.LASF17:
 11498 004b 73697A65 		.ascii	"size_t\000"
 11498      5F7400
 11499              	.LASF110:
 11500 0052 57353130 		.ascii	"W5100_GetSocketTxFree\000"
 11500      305F4765 
 11500      74536F63 
 11500      6B657454 
 11500      78467265 
 11501              	.LASF23:
 11502 0068 736F636B 		.ascii	"socket\000"
 11502      657400
 11503              	.LASF120:
 11504 006f 5061636B 		.ascii	"PacketSize\000"
 11504      65745369 
 11504      7A6500
 11505              	.LASF59:
 11506 007a 57353130 		.ascii	"W5100_GetSocketCommand\000"
 11506      305F4765 
 11506      74536F63 
 11506      6B657443 
 11506      6F6D6D61 
 11507              	.LASF57:
 11508 0091 57353130 		.ascii	"W5100_SetSocketRxReadPtr\000"
 11508      305F5365 
 11508      74536F63 
 11508      6B657452 
 11508      78526561 
 11509              	.LASF47:
 11510 00aa 57353130 		.ascii	"W5100_W51_Read16\000"
 11510      305F5735 
 11510      315F5265 
 11510      61643136 
 11510      00
 11511              	.LASF96:
 11512 00bb 57353130 		.ascii	"W5100_Start\000"
 11512      305F5374 
 11512      61727400 
 11513              	.LASF63:
 11514 00c7 57353130 		.ascii	"W5100_GetSocketIR\000"
 11514      305F4765 
 11514      74536F63 
 11514      6B657449 
 11514      5200
 11515              	.LASF114:
 11516 00d9 57353130 		.ascii	"W5100_TcpReceive\000"
 11516      305F5463 
ARM GAS  C:\Users\CHUCK~1.ERH\AppData\Local\Temp\cc506n3q.s 			page 241


 11516      70526563 
 11516      65697665 
 11516      00
 11517              	.LASF7:
 11518 00ea 6C6F6E67 		.ascii	"long long unsigned int\000"
 11518      206C6F6E 
 11518      6720756E 
 11518      7369676E 
 11518      65642069 
 11519              	.LASF88:
 11520 0101 57353130 		.ascii	"W5100_SetSocketSourcePort\000"
 11520      305F5365 
 11520      74536F63 
 11520      6B657453 
 11520      6F757263 
 11521              	.LASF24:
 11522 011b 61646472 		.ascii	"addr\000"
 11522      00
 11523              	.LASF18:
 11524 0120 50726F74 		.ascii	"Protocol\000"
 11524      6F636F6C 
 11524      00
 11525              	.LASF26:
 11526 0129 57353130 		.ascii	"W5100_W51_GetMAC\000"
 11526      305F5735 
 11526      315F4765 
 11526      744D4143 
 11526      00
 11527              	.LASF117:
 11528 013a 57353130 		.ascii	"W5100_UdpOpen\000"
 11528      305F5564 
 11528      704F7065 
 11528      6E00
 11529              	.LASF95:
 11530 0148 67617465 		.ascii	"gateway\000"
 11530      77617900 
 11531              	.LASF128:
 11532 0150 5350495F 		.ascii	"SPI_SpiUartWriteTxData\000"
 11532      53706955 
 11532      61727457 
 11532      72697465 
 11532      54784461 
 11533              	.LASF6:
 11534 0167 6C6F6E67 		.ascii	"long long int\000"
 11534      206C6F6E 
 11534      6720696E 
 11534      7400
 11535              	.LASF0:
 11536 0175 7369676E 		.ascii	"signed char\000"
 11536      65642063 
 11536      68617200 
 11537              	.LASF108:
 11538 0181 57353130 		.ascii	"W5100_TcpDisconnect\000"
 11538      305F5463 
 11538      70446973 
 11538      636F6E6E 
 11538      65637400 
ARM GAS  C:\Users\CHUCK~1.ERH\AppData\Local\Temp\cc506n3q.s 			page 242


 11539              	.LASF20:
 11540 0195 536F7572 		.ascii	"SourcePort\000"
 11540      6365506F 
 11540      727400
 11541              	.LASF69:
 11542 01a0 64696769 		.ascii	"digit\000"
 11542      7400
 11543              	.LASF54:
 11544 01a6 7365636F 		.ascii	"second\000"
 11544      6E6400
 11545              	.LASF111:
 11546 01ad 57353130 		.ascii	"W5100_TcpSend\000"
 11546      305F5463 
 11546      7053656E 
 11546      6400
 11547              	.LASF4:
 11548 01bb 6C6F6E67 		.ascii	"long int\000"
 11548      20696E74 
 11548      00
 11549              	.LASF71:
 11550 01c4 64696E64 		.ascii	"dindex\000"
 11550      657800
 11551              	.LASF49:
 11552 01cb 57353130 		.ascii	"W5100_GetSocketTxWritePtr\000"
 11552      305F4765 
 11552      74536F63 
 11552      6B657454 
 11552      78577269 
 11553              	.LASF9:
 11554 01e5 75696E74 		.ascii	"uint8\000"
 11554      3800
 11555              	.LASF131:
 11556 01eb 5350495F 		.ascii	"SPI_SpiUartReadRxData\000"
 11556      53706955 
 11556      61727452 
 11556      65616452 
 11556      78446174 
 11557              	.LASF58:
 11558 0201 57353130 		.ascii	"W5100_SetSocketCommand\000"
 11558      305F5365 
 11558      74536F63 
 11558      6B657443 
 11558      6F6D6D61 
 11559              	.LASF127:
 11560 0218 43794465 		.ascii	"CyDelayUs\000"
 11560      6C617955 
 11560      7300
 11561              	.LASF13:
 11562 0222 646F7562 		.ascii	"double\000"
 11562      6C6500
 11563              	.LASF119:
 11564 0229 57353130 		.ascii	"W5100_UdpReceive\000"
 11564      305F5564 
 11564      70526563 
 11564      65697665 
 11564      00
 11565              	.LASF43:
ARM GAS  C:\Users\CHUCK~1.ERH\AppData\Local\Temp\cc506n3q.s 			page 243


 11566 023a 57353130 		.ascii	"W5100_W51_SetIP\000"
 11566      305F5735 
 11566      315F5365 
 11566      74495000 
 11567              	.LASF73:
 11568 024a 6D616353 		.ascii	"macString\000"
 11568      7472696E 
 11568      6700
 11569              	.LASF62:
 11570 0254 57353130 		.ascii	"W5100_SetSubnetMask\000"
 11570      305F5365 
 11570      74537562 
 11570      6E65744D 
 11570      61736B00 
 11571              	.LASF11:
 11572 0268 75696E74 		.ascii	"uint32\000"
 11572      333200
 11573              	.LASF34:
 11574 026f 57353130 		.ascii	"W5100_SetTxMemSize\000"
 11574      305F5365 
 11574      7454784D 
 11574      656D5369 
 11574      7A6500
 11575              	.LASF72:
 11576 0282 57353130 		.ascii	"W5100_ParseMAC\000"
 11576      305F5061 
 11576      7273654D 
 11576      414300
 11577              	.LASF121:
 11578 0291 5061636B 		.ascii	"PacketHeader\000"
 11578      65744865 
 11578      61646572 
 11578      00
 11579              	.LASF91:
 11580 029e 57353130 		.ascii	"W5100_SocketOpen\000"
 11580      305F536F 
 11580      636B6574 
 11580      4F70656E 
 11580      00
 11581              	.LASF89:
 11582 02af 706F7274 		.ascii	"port\000"
 11582      00
 11583              	.LASF81:
 11584 02b4 74656D70 		.ascii	"temp\000"
 11584      00
 11585              	.LASF8:
 11586 02b9 756E7369 		.ascii	"unsigned int\000"
 11586      676E6564 
 11586      20696E74 
 11586      00
 11587              	.LASF56:
 11588 02c6 57353130 		.ascii	"W5100_GetSocketRxReadPtr\000"
 11588      305F4765 
 11588      74536F63 
 11588      6B657452 
 11588      78526561 
 11589              	.LASF141:
ARM GAS  C:\Users\CHUCK~1.ERH\AppData\Local\Temp\cc506n3q.s 			page 244


 11590 02df 7374726C 		.ascii	"strlen\000"
 11590      656E00
 11591              	.LASF5:
 11592 02e6 6C6F6E67 		.ascii	"long unsigned int\000"
 11592      20756E73 
 11592      69676E65 
 11592      6420696E 
 11592      7400
 11593              	.LASF48:
 11594 02f8 57353130 		.ascii	"W5100_W51_GetIP\000"
 11594      305F5735 
 11594      315F4765 
 11594      74495000 
 11595              	.LASF61:
 11596 0308 74696D65 		.ascii	"timeout\000"
 11596      6F757400 
 11597              	.LASF106:
 11598 0310 57353130 		.ascii	"W5100_TcpConnect\000"
 11598      305F5463 
 11598      70436F6E 
 11598      6E656374 
 11598      00
 11599              	.LASF116:
 11600 0321 57353130 		.ascii	"W5100_TcpPrint\000"
 11600      305F5463 
 11600      70507269 
 11600      6E7400
 11601              	.LASF94:
 11602 0330 7375626E 		.ascii	"subnet\000"
 11602      657400
 11603              	.LASF33:
 11604 0337 73697A65 		.ascii	"size\000"
 11604      00
 11605              	.LASF3:
 11606 033c 73686F72 		.ascii	"short unsigned int\000"
 11606      7420756E 
 11606      7369676E 
 11606      65642069 
 11606      6E7400
 11607              	.LASF113:
 11608 034f 46726565 		.ascii	"FreeSpace\000"
 11608      53706163 
 11608      6500
 11609              	.LASF50:
 11610 0359 57353130 		.ascii	"W5100_SetSocketTxWritePtr\000"
 11610      305F5365 
 11610      74536F63 
 11610      6B657454 
 11610      78577269 
 11611              	.LASF40:
 11612 0373 57353130 		.ascii	"W5100_ProcessRxData\000"
 11612      305F5072 
 11612      6F636573 
 11612      73527844 
 11612      61746100 
 11613              	.LASF67:
 11614 0387 57353130 		.ascii	"W5100_ParseIP\000"
ARM GAS  C:\Users\CHUCK~1.ERH\AppData\Local\Temp\cc506n3q.s 			page 245


 11614      305F5061 
 11614      72736549 
 11614      5000
 11615              	.LASF139:
 11616 0395 57353130 		.ascii	"W5100_GetSourceIP\000"
 11616      305F4765 
 11616      74536F75 
 11616      72636549 
 11616      5000
 11617              	.LASF126:
 11618 03a7 5350495F 		.ascii	"SPI_SpiSetActiveSlaveSelect\000"
 11618      53706953 
 11618      65744163 
 11618      74697665 
 11618      536C6176 
 11619              	.LASF52:
 11620 03c3 57353130 		.ascii	"W5100_GetRxSize\000"
 11620      305F4765 
 11620      74527853 
 11620      697A6500 
 11621              	.LASF93:
 11622 03d3 57353130 		.ascii	"W5100_Init\000"
 11622      305F496E 
 11622      697400
 11623              	.LASF77:
 11624 03de 57353130 		.ascii	"W5100_StringMAC\000"
 11624      305F5374 
 11624      72696E67 
 11624      4D414300 
 11625              	.LASF102:
 11626 03ee 57353130 		.ascii	"W5100_TcpStartServer\000"
 11626      305F5463 
 11626      70537461 
 11626      72745365 
 11626      72766572 
 11627              	.LASF39:
 11628 0403 506F696E 		.ascii	"PointerOffset\000"
 11628      7465724F 
 11628      66667365 
 11628      7400
 11629              	.LASF133:
 11630 0411 5350495F 		.ascii	"SPI_SpiUartClearRxBuffer\000"
 11630      53706955 
 11630      61727443 
 11630      6C656172 
 11630      52784275 
 11631              	.LASF86:
 11632 042a 57353130 		.ascii	"W5100_SetMAC\000"
 11632      305F5365 
 11632      744D4143 
 11632      00
 11633              	.LASF38:
 11634 0437 62617365 		.ascii	"base\000"
 11634      00
 11635              	.LASF87:
 11636 043c 57353130 		.ascii	"W5100_GetMAC\000"
 11636      305F4765 
ARM GAS  C:\Users\CHUCK~1.ERH\AppData\Local\Temp\cc506n3q.s 			page 246


 11636      744D4143 
 11636      00
 11637              	.LASF16:
 11638 0449 73697A65 		.ascii	"sizetype\000"
 11638      74797065 
 11638      00
 11639              	.LASF115:
 11640 0452 52785369 		.ascii	"RxSize\000"
 11640      7A6500
 11641              	.LASF140:
 11642 0459 5350495F 		.ascii	"SPI_initVar\000"
 11642      696E6974 
 11642      56617200 
 11643              	.LASF134:
 11644 0465 5350495F 		.ascii	"SPI_Start\000"
 11644      53746172 
 11644      7400
 11645              	.LASF109:
 11646 046f 57353130 		.ascii	"W5100_GetTxFreeSize\000"
 11646      305F4765 
 11646      74547846 
 11646      72656553 
 11646      697A6500 
 11647              	.LASF51:
 11648 0483 57353130 		.ascii	"W5100_GetSocketRxSize\000"
 11648      305F4765 
 11648      74536F63 
 11648      6B657452 
 11648      7853697A 
 11649              	.LASF100:
 11650 0499 57353130 		.ascii	"W5100_SocketRxDataWaiting\000"
 11650      305F536F 
 11650      636B6574 
 11650      52784461 
 11650      74615761 
 11651              	.LASF19:
 11652 04b3 536F636B 		.ascii	"SocketFlags\000"
 11652      6574466C 
 11652      61677300 
 11653              	.LASF129:
 11654 04bf 5350495F 		.ascii	"SPI_ss1_m_Read\000"
 11654      7373315F 
 11654      6D5F5265 
 11654      616400
 11655              	.LASF107:
 11656 04ce 57353130 		.ascii	"W5100_TcpConnected\000"
 11656      305F5463 
 11656      70436F6E 
 11656      6E656374 
 11656      656400
 11657              	.LASF122:
 11658 04e1 57353130 		.ascii	"W5100_SocketConfig\000"
 11658      305F536F 
 11658      636B6574 
 11658      436F6E66 
 11658      696700
 11659              	.LASF84:
ARM GAS  C:\Users\CHUCK~1.ERH\AppData\Local\Temp\cc506n3q.s 			page 247


 11660 04f4 57353130 		.ascii	"W5100_GetIP\000"
 11660      305F4765 
 11660      74495000 
 11661              	.LASF12:
 11662 0500 666C6F61 		.ascii	"float\000"
 11662      7400
 11663              	.LASF79:
 11664 0506 69704279 		.ascii	"ipBytes\000"
 11664      74657300 
 11665              	.LASF75:
 11666 050e 57353130 		.ascii	"W5100_GetSourceMAC\000"
 11666      305F4765 
 11666      74536F75 
 11666      7263654D 
 11666      414300
 11667              	.LASF135:
 11668 0521 474E5520 		.ascii	"GNU C 4.7.3 20130312 (release) [ARM/embedded-4_7-br"
 11668      4320342E 
 11668      372E3320 
 11668      32303133 
 11668      30333132 
 11669 0554 616E6368 		.ascii	"anch revision 196615]\000"
 11669      20726576 
 11669      6973696F 
 11669      6E203139 
 11669      36363135 
 11670              	.LASF1:
 11671 056a 756E7369 		.ascii	"unsigned char\000"
 11671      676E6564 
 11671      20636861 
 11671      7200
 11672              	.LASF99:
 11673 0578 57353130 		.ascii	"W5100_SocketEstablished\000"
 11673      305F536F 
 11673      636B6574 
 11673      45737461 
 11673      626C6973 
 11674              	.LASF2:
 11675 0590 73686F72 		.ascii	"short int\000"
 11675      7420696E 
 11675      7400
 11676              	.LASF64:
 11677 059a 57353130 		.ascii	"W5100_SetSocketIR\000"
 11677      305F5365 
 11677      74536F63 
 11677      6B657449 
 11677      5200
 11678              	.LASF76:
 11679 05ac 57353130 		.ascii	"W5100_W51_Write\000"
 11679      305F5735 
 11679      315F5772 
 11679      69746500 
 11680              	.LASF92:
 11681 05bc 57353130 		.ascii	"W5100_SetGatewayAddress\000"
 11681      305F5365 
 11681      74476174 
 11681      65776179 
ARM GAS  C:\Users\CHUCK~1.ERH\AppData\Local\Temp\cc506n3q.s 			page 248


 11681      41646472 
 11682              	.LASF125:
 11683 05d4 57353130 		.ascii	"W5100_SocketClose\000"
 11683      305F536F 
 11683      636B6574 
 11683      436C6F73 
 11683      6500
 11684              	.LASF97:
 11685 05e6 57353130 		.ascii	"W5100_SocketProcessConnections\000"
 11685      305F536F 
 11685      636B6574 
 11685      50726F63 
 11685      65737343 
 11686              	.LASF123:
 11687 0605 57353130 		.ascii	"W5100_SubnetMask\000"
 11687      305F5375 
 11687      626E6574 
 11687      4D61736B 
 11687      00
 11688              	.LASF44:
 11689 0616 57353130 		.ascii	"W5100_W51_WriteBlock\000"
 11689      305F5735 
 11689      315F5772 
 11689      69746542 
 11689      6C6F636B 
 11690              	.LASF136:
 11691 062b 2E5C4765 		.ascii	".\\Generated_Source\\PSoC4\\W5100.c\000"
 11691      6E657261 
 11691      7465645F 
 11691      536F7572 
 11691      63655C50 
 11692              	.LASF42:
 11693 064c 57353130 		.ascii	"W5100_W51_Write16\000"
 11693      305F5735 
 11693      315F5772 
 11693      69746531 
 11693      3600
 11694              	.LASF68:
 11695 065e 69705374 		.ascii	"ipString\000"
 11695      72696E67 
 11695      00
 11696              	.LASF21:
 11697 0667 53657276 		.ascii	"ServerFlag\000"
 11697      6572466C 
 11697      616700
 11698              	.LASF137:
 11699 0672 433A5C55 		.ascii	"C:\\Users\\chuck.erhardt\\Documents\\PSoC Creator\\"
 11699      73657273 
 11699      5C636875 
 11699      636B2E65 
 11699      72686172 
 11700 06a0 57353130 		.ascii	"W5100_Example1\\W5100_Exampl 1-PSoC_Pioneer.cydsn\000"
 11700      305F4578 
 11700      616D706C 
 11700      65315C57 
 11700      35313030 
 11701              	.LASF53:
ARM GAS  C:\Users\CHUCK~1.ERH\AppData\Local\Temp\cc506n3q.s 			page 249


 11702 06d1 66697273 		.ascii	"first\000"
 11702      7400
 11703              	.LASF37:
 11704 06d7 6C656E67 		.ascii	"length\000"
 11704      746800
 11705              	.LASF85:
 11706 06de 57353130 		.ascii	"W5100_SetSourceMAC\000"
 11706      305F5365 
 11706      74536F75 
 11706      7263654D 
 11706      414300
 11707              	.LASF14:
 11708 06f1 63686172 		.ascii	"char\000"
 11708      00
 11709              	.LASF130:
 11710 06f6 5350495F 		.ascii	"SPI_SpiUartGetRxBufferSize\000"
 11710      53706955 
 11710      61727447 
 11710      65745278 
 11710      42756666 
 11711              	.LASF30:
 11712 0711 6D6F6465 		.ascii	"mode\000"
 11712      00
 11713              	.LASF27:
 11714 0716 696E6465 		.ascii	"index\000"
 11714      7800
 11715              	.LASF25:
 11716 071c 57353130 		.ascii	"W5100_W51_SetMAC\000"
 11716      305F5735 
 11716      315F5365 
 11716      744D4143 
 11716      00
 11717              	.LASF28:
 11718 072d 62756666 		.ascii	"buffer\000"
 11718      657200
 11719              	.LASF70:
 11720 0734 636F756E 		.ascii	"counter\000"
 11720      74657200 
 11721              	.LASF83:
 11722 073c 57353130 		.ascii	"W5100_SetIP\000"
 11722      305F5365 
 11722      74495000 
 11723              	.LASF36:
 11724 0748 6F666673 		.ascii	"offset\000"
 11724      657400
 11725              	.LASF31:
 11726 074f 57353130 		.ascii	"W5100_SetIR\000"
 11726      305F5365 
 11726      74495200 
 11727              	.LASF80:
 11728 075b 776F726B 		.ascii	"work\000"
 11728      00
 11729              	.LASF118:
 11730 0760 57353130 		.ascii	"W5100_UdpSend\000"
 11730      305F5564 
 11730      7053656E 
 11730      6400
ARM GAS  C:\Users\CHUCK~1.ERH\AppData\Local\Temp\cc506n3q.s 			page 250


 11731              	.LASF132:
 11732 076e 43794465 		.ascii	"CyDelay\000"
 11732      6C617900 
 11733              	.LASF101:
 11734 0776 57353130 		.ascii	"W5100_TcpOpen\000"
 11734      305F5463 
 11734      704F7065 
 11734      6E00
 11735              	.LASF104:
 11736 0784 57353130 		.ascii	"W5100_SetSocketDestIP\000"
 11736      305F5365 
 11736      74536F63 
 11736      6B657444 
 11736      65737449 
 11737              	.LASF78:
 11738 079a 57353130 		.ascii	"W5100_StringIP\000"
 11738      305F5374 
 11738      72696E67 
 11738      495000
 11739              	.LASF103:
 11740 07a9 57353130 		.ascii	"W5100_TcpStartServerWait\000"
 11740      305F5463 
 11740      70537461 
 11740      72745365 
 11740      72766572 
 11741              	.LASF98:
 11742 07c2 73746174 		.ascii	"status\000"
 11742      757300
 11743              	.LASF105:
 11744 07c9 57353130 		.ascii	"W5100_SetSocketDestPort\000"
 11744      305F5365 
 11744      74536F63 
 11744      6B657444 
 11744      65737450 
 11745              	.LASF66:
 11746 07e1 57353130 		.ascii	"W5100_W51_Read\000"
 11746      305F5735 
 11746      315F5265 
 11746      616400
 11747              	.LASF60:
 11748 07f0 57353130 		.ascii	"W5100_ExecuteSocketCommand\000"
 11748      305F4578 
 11748      65637574 
 11748      65536F63 
 11748      6B657443 
 11749              	.LASF138:
 11750 080b 57353130 		.ascii	"W5100_W51_Select\000"
 11750      305F5735 
 11750      315F5365 
 11750      6C656374 
 11750      00
 11751              	.LASF41:
 11752 081c 666C6167 		.ascii	"flags\000"
 11752      7300
 11753              	.LASF15:
 11754 0822 63797374 		.ascii	"cystatus\000"
 11754      61747573 
ARM GAS  C:\Users\CHUCK~1.ERH\AppData\Local\Temp\cc506n3q.s 			page 251


 11754      00
 11755              	.LASF124:
 11756 082b 57353130 		.ascii	"W5100_MAC\000"
 11756      305F4D41 
 11756      4300
 11757              	.LASF22:
 11758 0835 57353130 		.ascii	"W5100_SOCKET\000"
 11758      305F534F 
 11758      434B4554 
 11758      00
 11759              	.LASF35:
 11760 0842 57353130 		.ascii	"W5100_ProcessTxData\000"
 11760      305F5072 
 11760      6F636573 
 11760      73547844 
 11760      61746100 
 11761              	.LASF32:
 11762 0856 57353130 		.ascii	"W5100_SetRxMemSize\000"
 11762      305F5365 
 11762      7452784D 
 11762      656D5369 
 11762      7A6500
 11763              	.LASF29:
 11764 0869 57353130 		.ascii	"W5100_SetMode\000"
 11764      305F5365 
 11764      744D6F64 
 11764      6500
 11765              	.LASF46:
 11766 0877 57353130 		.ascii	"W5100_GetSocketStatus\000"
 11766      305F4765 
 11766      74536F63 
 11766      6B657453 
 11766      74617475 
 11767              	.LASF74:
 11768 088d 72657375 		.ascii	"result\000"
 11768      6C7400
 11769              	.LASF55:
 11770 0894 57353130 		.ascii	"W5100_W51_ReadBlock\000"
 11770      305F5735 
 11770      315F5265 
 11770      6164426C 
 11770      6F636B00 
 11771              		.ident	"GCC: (GNU Tools for ARM Embedded Processors) 4.7.3 20130312 (release) [ARM/embedded-4_7-br
