ARM GAS  C:\Users\CHUCK~1.ERH\AppData\Local\Temp\ccDBgGs7.s 			page 1


   1              		.syntax unified
   2              		.cpu cortex-m3
   3              		.fpu softvfp
   4              		.eabi_attribute 20, 1
   5              		.eabi_attribute 21, 1
   6              		.eabi_attribute 23, 3
   7              		.eabi_attribute 24, 1
   8              		.eabi_attribute 25, 1
   9              		.eabi_attribute 26, 1
  10              		.eabi_attribute 30, 4
  11              		.eabi_attribute 34, 1
  12              		.eabi_attribute 18, 4
  13              		.thumb
  14              		.file	"cyfitter_cfg.c"
  15              		.text
  16              	.Ltext0:
  17              		.cfi_sections	.debug_frame
  18              		.section	.text.SetAnalogRoutingPumps,"ax",%progbits
  19              		.align	1
  20              		.global	SetAnalogRoutingPumps
  21              		.thumb
  22              		.thumb_func
  23              		.type	SetAnalogRoutingPumps, %function
  24              	SetAnalogRoutingPumps:
  25              	.LFB7:
  26              		.file 1 ".\\Generated_Source\\PSoC5\\cyfitter_cfg.c"
   1:.\Generated_Source\PSoC5/cyfitter_cfg.c **** /*******************************************************************************
   2:.\Generated_Source\PSoC5/cyfitter_cfg.c **** * FILENAME: cyfitter_cfg.c
   3:.\Generated_Source\PSoC5/cyfitter_cfg.c **** * PSoC Creator 3.0 SP1
   4:.\Generated_Source\PSoC5/cyfitter_cfg.c **** *
   5:.\Generated_Source\PSoC5/cyfitter_cfg.c **** * Description:
   6:.\Generated_Source\PSoC5/cyfitter_cfg.c **** * This file is automatically generated by PSoC Creator with device 
   7:.\Generated_Source\PSoC5/cyfitter_cfg.c **** * initialization code.  Except for the user defined sections in
   8:.\Generated_Source\PSoC5/cyfitter_cfg.c **** * CyClockStartupError(), this file should not be modified.
   9:.\Generated_Source\PSoC5/cyfitter_cfg.c **** *
  10:.\Generated_Source\PSoC5/cyfitter_cfg.c **** ********************************************************************************
  11:.\Generated_Source\PSoC5/cyfitter_cfg.c **** * Copyright 2013, Cypress Semiconductor Corporation.  All rights reserved.
  12:.\Generated_Source\PSoC5/cyfitter_cfg.c **** * You may use this file only in accordance with the license, terms, conditions, 
  13:.\Generated_Source\PSoC5/cyfitter_cfg.c **** * disclaimers, and limitations in the end user license agreement accompanying 
  14:.\Generated_Source\PSoC5/cyfitter_cfg.c **** * the software package with which this file was provided.
  15:.\Generated_Source\PSoC5/cyfitter_cfg.c **** ********************************************************************************/
  16:.\Generated_Source\PSoC5/cyfitter_cfg.c **** 
  17:.\Generated_Source\PSoC5/cyfitter_cfg.c **** #include <string.h>
  18:.\Generated_Source\PSoC5/cyfitter_cfg.c **** #include <cytypes.h>
  19:.\Generated_Source\PSoC5/cyfitter_cfg.c **** #include <cydevice_trm.h>
  20:.\Generated_Source\PSoC5/cyfitter_cfg.c **** #include <cyfitter.h>
  21:.\Generated_Source\PSoC5/cyfitter_cfg.c **** #include <CyLib.h>
  22:.\Generated_Source\PSoC5/cyfitter_cfg.c **** #include <cyfitter_cfg.h>
  23:.\Generated_Source\PSoC5/cyfitter_cfg.c **** 
  24:.\Generated_Source\PSoC5/cyfitter_cfg.c **** #define CY_NEED_CYCLOCKSTARTUPERROR 1
  25:.\Generated_Source\PSoC5/cyfitter_cfg.c **** 
  26:.\Generated_Source\PSoC5/cyfitter_cfg.c **** 
  27:.\Generated_Source\PSoC5/cyfitter_cfg.c **** #if defined(__GNUC__) || defined(__ARMCC_VERSION)
  28:.\Generated_Source\PSoC5/cyfitter_cfg.c ****     #define CYPACKED 
  29:.\Generated_Source\PSoC5/cyfitter_cfg.c ****     #define CYPACKED_ATTR __attribute__ ((packed))
  30:.\Generated_Source\PSoC5/cyfitter_cfg.c ****     #define CYALIGNED __attribute__ ((aligned))
  31:.\Generated_Source\PSoC5/cyfitter_cfg.c ****     #define CY_CFG_UNUSED __attribute__ ((unused))
ARM GAS  C:\Users\CHUCK~1.ERH\AppData\Local\Temp\ccDBgGs7.s 			page 2


  32:.\Generated_Source\PSoC5/cyfitter_cfg.c ****     #define CY_CFG_SECTION __attribute__ ((section(".psocinit")))
  33:.\Generated_Source\PSoC5/cyfitter_cfg.c ****     
  34:.\Generated_Source\PSoC5/cyfitter_cfg.c ****     #if defined(__ARMCC_VERSION)
  35:.\Generated_Source\PSoC5/cyfitter_cfg.c ****         #define CY_CFG_MEMORY_BARRIER() __memory_changed()
  36:.\Generated_Source\PSoC5/cyfitter_cfg.c ****     #else
  37:.\Generated_Source\PSoC5/cyfitter_cfg.c ****         #define CY_CFG_MEMORY_BARRIER() __sync_synchronize()
  38:.\Generated_Source\PSoC5/cyfitter_cfg.c ****     #endif
  39:.\Generated_Source\PSoC5/cyfitter_cfg.c ****     
  40:.\Generated_Source\PSoC5/cyfitter_cfg.c **** #elif defined(__ICCARM__)
  41:.\Generated_Source\PSoC5/cyfitter_cfg.c ****     #include <intrinsics.h>
  42:.\Generated_Source\PSoC5/cyfitter_cfg.c **** 
  43:.\Generated_Source\PSoC5/cyfitter_cfg.c ****     #define CYPACKED __packed
  44:.\Generated_Source\PSoC5/cyfitter_cfg.c ****     #define CYPACKED_ATTR 
  45:.\Generated_Source\PSoC5/cyfitter_cfg.c ****     #define CYALIGNED _Pragma("data_alignment=4")
  46:.\Generated_Source\PSoC5/cyfitter_cfg.c ****     #define CY_CFG_UNUSED _Pragma("diag_suppress=Pe177")
  47:.\Generated_Source\PSoC5/cyfitter_cfg.c ****     #define CY_CFG_SECTION _Pragma("location=\".psocinit\"")
  48:.\Generated_Source\PSoC5/cyfitter_cfg.c ****     
  49:.\Generated_Source\PSoC5/cyfitter_cfg.c ****     #define CY_CFG_MEMORY_BARRIER() __DMB()
  50:.\Generated_Source\PSoC5/cyfitter_cfg.c ****     
  51:.\Generated_Source\PSoC5/cyfitter_cfg.c **** #else
  52:.\Generated_Source\PSoC5/cyfitter_cfg.c ****     #error Unsupported toolchain
  53:.\Generated_Source\PSoC5/cyfitter_cfg.c **** #endif
  54:.\Generated_Source\PSoC5/cyfitter_cfg.c **** 
  55:.\Generated_Source\PSoC5/cyfitter_cfg.c **** 
  56:.\Generated_Source\PSoC5/cyfitter_cfg.c **** CY_CFG_UNUSED
  57:.\Generated_Source\PSoC5/cyfitter_cfg.c **** static void CYMEMZERO(void *s, size_t n);
  58:.\Generated_Source\PSoC5/cyfitter_cfg.c **** CY_CFG_UNUSED
  59:.\Generated_Source\PSoC5/cyfitter_cfg.c **** static void CYMEMZERO(void *s, size_t n)
  60:.\Generated_Source\PSoC5/cyfitter_cfg.c **** {
  61:.\Generated_Source\PSoC5/cyfitter_cfg.c **** 	(void)memset(s, 0, n);
  62:.\Generated_Source\PSoC5/cyfitter_cfg.c **** }
  63:.\Generated_Source\PSoC5/cyfitter_cfg.c **** CY_CFG_UNUSED
  64:.\Generated_Source\PSoC5/cyfitter_cfg.c **** static void CYCONFIGCPY(void *dest, const void *src, size_t n);
  65:.\Generated_Source\PSoC5/cyfitter_cfg.c **** CY_CFG_UNUSED
  66:.\Generated_Source\PSoC5/cyfitter_cfg.c **** static void CYCONFIGCPY(void *dest, const void *src, size_t n)
  67:.\Generated_Source\PSoC5/cyfitter_cfg.c **** {
  68:.\Generated_Source\PSoC5/cyfitter_cfg.c **** 	(void)memcpy(dest, src, n);
  69:.\Generated_Source\PSoC5/cyfitter_cfg.c **** }
  70:.\Generated_Source\PSoC5/cyfitter_cfg.c **** CY_CFG_UNUSED
  71:.\Generated_Source\PSoC5/cyfitter_cfg.c **** static void CYCONFIGCPYCODE(void *dest, const void *src, size_t n);
  72:.\Generated_Source\PSoC5/cyfitter_cfg.c **** CY_CFG_UNUSED
  73:.\Generated_Source\PSoC5/cyfitter_cfg.c **** static void CYCONFIGCPYCODE(void *dest, const void *src, size_t n)
  74:.\Generated_Source\PSoC5/cyfitter_cfg.c **** {
  75:.\Generated_Source\PSoC5/cyfitter_cfg.c **** 	(void)memcpy(dest, src, n);
  76:.\Generated_Source\PSoC5/cyfitter_cfg.c **** }
  77:.\Generated_Source\PSoC5/cyfitter_cfg.c **** 
  78:.\Generated_Source\PSoC5/cyfitter_cfg.c **** 
  79:.\Generated_Source\PSoC5/cyfitter_cfg.c **** 
  80:.\Generated_Source\PSoC5/cyfitter_cfg.c **** /* Clock startup error codes                                                   */
  81:.\Generated_Source\PSoC5/cyfitter_cfg.c **** #define CYCLOCKSTART_NO_ERROR    0u
  82:.\Generated_Source\PSoC5/cyfitter_cfg.c **** #define CYCLOCKSTART_XTAL_ERROR  1u
  83:.\Generated_Source\PSoC5/cyfitter_cfg.c **** #define CYCLOCKSTART_32KHZ_ERROR 2u
  84:.\Generated_Source\PSoC5/cyfitter_cfg.c **** #define CYCLOCKSTART_PLL_ERROR   3u
  85:.\Generated_Source\PSoC5/cyfitter_cfg.c **** 
  86:.\Generated_Source\PSoC5/cyfitter_cfg.c **** #ifdef CY_NEED_CYCLOCKSTARTUPERROR
  87:.\Generated_Source\PSoC5/cyfitter_cfg.c **** /*******************************************************************************
  88:.\Generated_Source\PSoC5/cyfitter_cfg.c **** * Function Name: CyClockStartupError
ARM GAS  C:\Users\CHUCK~1.ERH\AppData\Local\Temp\ccDBgGs7.s 			page 3


  89:.\Generated_Source\PSoC5/cyfitter_cfg.c **** ********************************************************************************
  90:.\Generated_Source\PSoC5/cyfitter_cfg.c **** * Summary:
  91:.\Generated_Source\PSoC5/cyfitter_cfg.c **** *  If an error is encountered during clock configuration (crystal startup error,
  92:.\Generated_Source\PSoC5/cyfitter_cfg.c **** *  PLL lock error, etc.), the system will end up here.  Unless reimplemented by
  93:.\Generated_Source\PSoC5/cyfitter_cfg.c **** *  the customer, this function will stop in an infinite loop.
  94:.\Generated_Source\PSoC5/cyfitter_cfg.c **** *
  95:.\Generated_Source\PSoC5/cyfitter_cfg.c **** * Parameters:
  96:.\Generated_Source\PSoC5/cyfitter_cfg.c **** *   void
  97:.\Generated_Source\PSoC5/cyfitter_cfg.c **** *
  98:.\Generated_Source\PSoC5/cyfitter_cfg.c **** * Return:
  99:.\Generated_Source\PSoC5/cyfitter_cfg.c **** *   void
 100:.\Generated_Source\PSoC5/cyfitter_cfg.c **** *
 101:.\Generated_Source\PSoC5/cyfitter_cfg.c **** *******************************************************************************/
 102:.\Generated_Source\PSoC5/cyfitter_cfg.c **** CY_CFG_UNUSED
 103:.\Generated_Source\PSoC5/cyfitter_cfg.c **** static void CyClockStartupError(uint8 errorCode);
 104:.\Generated_Source\PSoC5/cyfitter_cfg.c **** CY_CFG_UNUSED
 105:.\Generated_Source\PSoC5/cyfitter_cfg.c **** static void CyClockStartupError(uint8 errorCode)
 106:.\Generated_Source\PSoC5/cyfitter_cfg.c **** {
 107:.\Generated_Source\PSoC5/cyfitter_cfg.c ****     /* To remove the compiler warning if errorCode not used.                */
 108:.\Generated_Source\PSoC5/cyfitter_cfg.c ****     errorCode = errorCode;
 109:.\Generated_Source\PSoC5/cyfitter_cfg.c **** 
 110:.\Generated_Source\PSoC5/cyfitter_cfg.c ****     /* `#START CyClockStartupError` */
 111:.\Generated_Source\PSoC5/cyfitter_cfg.c **** 
 112:.\Generated_Source\PSoC5/cyfitter_cfg.c ****     /* If we have a clock startup error (bad MHz crystal, PLL lock, etc.),  */
 113:.\Generated_Source\PSoC5/cyfitter_cfg.c ****     /* we will end up here to allow the customer to implement something to  */
 114:.\Generated_Source\PSoC5/cyfitter_cfg.c ****     /* deal with the clock condition.                                       */
 115:.\Generated_Source\PSoC5/cyfitter_cfg.c **** 
 116:.\Generated_Source\PSoC5/cyfitter_cfg.c ****     /* `#END` */
 117:.\Generated_Source\PSoC5/cyfitter_cfg.c **** 
 118:.\Generated_Source\PSoC5/cyfitter_cfg.c ****     /* If nothing else, stop here since the clocks have not started         */
 119:.\Generated_Source\PSoC5/cyfitter_cfg.c ****     /* correctly.                                                           */
 120:.\Generated_Source\PSoC5/cyfitter_cfg.c ****     while(1) {}
 121:.\Generated_Source\PSoC5/cyfitter_cfg.c **** }
 122:.\Generated_Source\PSoC5/cyfitter_cfg.c **** #endif
 123:.\Generated_Source\PSoC5/cyfitter_cfg.c **** 
 124:.\Generated_Source\PSoC5/cyfitter_cfg.c **** #define CY_CFG_BASE_ADDR_COUNT 15u
 125:.\Generated_Source\PSoC5/cyfitter_cfg.c **** CYPACKED typedef struct
 126:.\Generated_Source\PSoC5/cyfitter_cfg.c **** {
 127:.\Generated_Source\PSoC5/cyfitter_cfg.c **** 	uint8 offset;
 128:.\Generated_Source\PSoC5/cyfitter_cfg.c **** 	uint8 value;
 129:.\Generated_Source\PSoC5/cyfitter_cfg.c **** } CYPACKED_ATTR cy_cfg_addrvalue_t;
 130:.\Generated_Source\PSoC5/cyfitter_cfg.c **** 
 131:.\Generated_Source\PSoC5/cyfitter_cfg.c **** #define cy_cfg_addr_table ((const uint32 CYFAR *)0x48000000u)
 132:.\Generated_Source\PSoC5/cyfitter_cfg.c **** #define cy_cfg_data_table ((const cy_cfg_addrvalue_t CYFAR *)0x4800003Cu)
 133:.\Generated_Source\PSoC5/cyfitter_cfg.c **** 
 134:.\Generated_Source\PSoC5/cyfitter_cfg.c **** /* UDB_1_1_0_CONFIG Address: CYDEV_UCFG_B1_P3_U1_BASE Size (bytes): 128 */
 135:.\Generated_Source\PSoC5/cyfitter_cfg.c **** #define BS_UDB_1_1_0_CONFIG_VAL ((const uint8 CYFAR *)0x4800025Cu)
 136:.\Generated_Source\PSoC5/cyfitter_cfg.c **** 
 137:.\Generated_Source\PSoC5/cyfitter_cfg.c **** /* IOPINS0_0 Address: CYREG_PRT0_DM0 Size (bytes): 8 */
 138:.\Generated_Source\PSoC5/cyfitter_cfg.c **** #define BS_IOPINS0_0_VAL ((const uint8 CYFAR *)0x480002DCu)
 139:.\Generated_Source\PSoC5/cyfitter_cfg.c **** 
 140:.\Generated_Source\PSoC5/cyfitter_cfg.c **** /* IOPINS0_3 Address: CYREG_PRT3_DM0 Size (bytes): 8 */
 141:.\Generated_Source\PSoC5/cyfitter_cfg.c **** #define BS_IOPINS0_3_VAL ((const uint8 CYFAR *)0x480002E4u)
 142:.\Generated_Source\PSoC5/cyfitter_cfg.c **** 
 143:.\Generated_Source\PSoC5/cyfitter_cfg.c **** /* IOPINS0_5 Address: CYREG_PRT5_DM0 Size (bytes): 8 */
 144:.\Generated_Source\PSoC5/cyfitter_cfg.c **** #define BS_IOPINS0_5_VAL ((const uint8 CYFAR *)0x480002ECu)
 145:.\Generated_Source\PSoC5/cyfitter_cfg.c **** 
ARM GAS  C:\Users\CHUCK~1.ERH\AppData\Local\Temp\ccDBgGs7.s 			page 4


 146:.\Generated_Source\PSoC5/cyfitter_cfg.c **** 
 147:.\Generated_Source\PSoC5/cyfitter_cfg.c **** /*******************************************************************************
 148:.\Generated_Source\PSoC5/cyfitter_cfg.c **** * Function Name: cfg_write_bytes32
 149:.\Generated_Source\PSoC5/cyfitter_cfg.c **** ********************************************************************************
 150:.\Generated_Source\PSoC5/cyfitter_cfg.c **** * Summary:
 151:.\Generated_Source\PSoC5/cyfitter_cfg.c **** *  This function is used for setting up the chip configuration areas that
 152:.\Generated_Source\PSoC5/cyfitter_cfg.c **** *  contain relatively sparse data.
 153:.\Generated_Source\PSoC5/cyfitter_cfg.c **** *
 154:.\Generated_Source\PSoC5/cyfitter_cfg.c **** * Parameters:
 155:.\Generated_Source\PSoC5/cyfitter_cfg.c **** *   void
 156:.\Generated_Source\PSoC5/cyfitter_cfg.c **** *
 157:.\Generated_Source\PSoC5/cyfitter_cfg.c **** * Return:
 158:.\Generated_Source\PSoC5/cyfitter_cfg.c **** *   void
 159:.\Generated_Source\PSoC5/cyfitter_cfg.c **** *
 160:.\Generated_Source\PSoC5/cyfitter_cfg.c **** *******************************************************************************/
 161:.\Generated_Source\PSoC5/cyfitter_cfg.c **** static void cfg_write_bytes32(const uint32 addr_table[], const cy_cfg_addrvalue_t data_table[]);
 162:.\Generated_Source\PSoC5/cyfitter_cfg.c **** static void cfg_write_bytes32(const uint32 addr_table[], const cy_cfg_addrvalue_t data_table[])
 163:.\Generated_Source\PSoC5/cyfitter_cfg.c **** {
 164:.\Generated_Source\PSoC5/cyfitter_cfg.c **** 	/* For 32-bit little-endian architectures */
 165:.\Generated_Source\PSoC5/cyfitter_cfg.c **** 	uint32 i, j = 0u;
 166:.\Generated_Source\PSoC5/cyfitter_cfg.c **** 	for (i = 0u; i < CY_CFG_BASE_ADDR_COUNT; i++)
 167:.\Generated_Source\PSoC5/cyfitter_cfg.c **** 	{
 168:.\Generated_Source\PSoC5/cyfitter_cfg.c **** 		uint32 baseAddr = addr_table[i];
 169:.\Generated_Source\PSoC5/cyfitter_cfg.c **** 		uint8 count = (uint8)baseAddr;
 170:.\Generated_Source\PSoC5/cyfitter_cfg.c **** 		baseAddr &= 0xFFFFFF00u;
 171:.\Generated_Source\PSoC5/cyfitter_cfg.c **** 		while (count != 0u)
 172:.\Generated_Source\PSoC5/cyfitter_cfg.c **** 		{
 173:.\Generated_Source\PSoC5/cyfitter_cfg.c **** 			CY_SET_XTND_REG8((void CYFAR *)(baseAddr + data_table[j].offset), data_table[j].value);
 174:.\Generated_Source\PSoC5/cyfitter_cfg.c **** 			j++;
 175:.\Generated_Source\PSoC5/cyfitter_cfg.c **** 			count--;
 176:.\Generated_Source\PSoC5/cyfitter_cfg.c **** 		}
 177:.\Generated_Source\PSoC5/cyfitter_cfg.c **** 	}
 178:.\Generated_Source\PSoC5/cyfitter_cfg.c **** }
 179:.\Generated_Source\PSoC5/cyfitter_cfg.c **** 
 180:.\Generated_Source\PSoC5/cyfitter_cfg.c **** /*******************************************************************************
 181:.\Generated_Source\PSoC5/cyfitter_cfg.c **** * Function Name: ClockSetup
 182:.\Generated_Source\PSoC5/cyfitter_cfg.c **** ********************************************************************************
 183:.\Generated_Source\PSoC5/cyfitter_cfg.c **** *
 184:.\Generated_Source\PSoC5/cyfitter_cfg.c **** * Summary:
 185:.\Generated_Source\PSoC5/cyfitter_cfg.c **** *  Performs the initialization of all of the clocks in the device based on the
 186:.\Generated_Source\PSoC5/cyfitter_cfg.c **** *  settings in the Clock tab of the DWR.  This includes enabling the requested
 187:.\Generated_Source\PSoC5/cyfitter_cfg.c **** *  clocks and setting the necessary dividers to produce the desired frequency. 
 188:.\Generated_Source\PSoC5/cyfitter_cfg.c **** *
 189:.\Generated_Source\PSoC5/cyfitter_cfg.c **** * Parameters:
 190:.\Generated_Source\PSoC5/cyfitter_cfg.c **** *  void
 191:.\Generated_Source\PSoC5/cyfitter_cfg.c **** *
 192:.\Generated_Source\PSoC5/cyfitter_cfg.c **** * Return:
 193:.\Generated_Source\PSoC5/cyfitter_cfg.c **** *  void
 194:.\Generated_Source\PSoC5/cyfitter_cfg.c **** *
 195:.\Generated_Source\PSoC5/cyfitter_cfg.c **** *******************************************************************************/
 196:.\Generated_Source\PSoC5/cyfitter_cfg.c **** static void ClockSetup(void);
 197:.\Generated_Source\PSoC5/cyfitter_cfg.c **** static void ClockSetup(void)
 198:.\Generated_Source\PSoC5/cyfitter_cfg.c **** {
 199:.\Generated_Source\PSoC5/cyfitter_cfg.c **** 	uint32 timeout;
 200:.\Generated_Source\PSoC5/cyfitter_cfg.c **** 	uint8 pllLock;
 201:.\Generated_Source\PSoC5/cyfitter_cfg.c **** 
 202:.\Generated_Source\PSoC5/cyfitter_cfg.c **** 
ARM GAS  C:\Users\CHUCK~1.ERH\AppData\Local\Temp\ccDBgGs7.s 			page 5


 203:.\Generated_Source\PSoC5/cyfitter_cfg.c **** 	/* Configure Digital Clocks based on settings from Clock DWR */
 204:.\Generated_Source\PSoC5/cyfitter_cfg.c **** 	CY_SET_XTND_REG16((void CYFAR *)(CYREG_CLKDIST_DCFG0_CFG0), 0x0003u);
 205:.\Generated_Source\PSoC5/cyfitter_cfg.c **** 	CY_SET_XTND_REG8((void CYFAR *)(CYREG_CLKDIST_DCFG0_CFG0 + 0x2u), 0x18u);
 206:.\Generated_Source\PSoC5/cyfitter_cfg.c **** 
 207:.\Generated_Source\PSoC5/cyfitter_cfg.c **** 	/* Configure ILO based on settings from Clock DWR */
 208:.\Generated_Source\PSoC5/cyfitter_cfg.c **** 	CY_SET_XTND_REG8((void CYFAR *)(CYREG_SLOWCLK_ILO_CR0), 0x02u);
 209:.\Generated_Source\PSoC5/cyfitter_cfg.c **** 	CY_SET_XTND_REG8((void CYFAR *)(CYREG_CLKDIST_CR), 0x08u);
 210:.\Generated_Source\PSoC5/cyfitter_cfg.c **** 
 211:.\Generated_Source\PSoC5/cyfitter_cfg.c **** 	/* Configure IMO based on settings from Clock DWR */
 212:.\Generated_Source\PSoC5/cyfitter_cfg.c **** 	CY_SET_XTND_REG8((void CYFAR *)(CYREG_FASTCLK_IMO_CR), 0x03u);
 213:.\Generated_Source\PSoC5/cyfitter_cfg.c **** 	CY_SET_XTND_REG8((void CYFAR *)(CYREG_IMO_TR1), (CY_GET_XTND_REG8((void CYFAR *)CYREG_FLSHID_CUST_
 214:.\Generated_Source\PSoC5/cyfitter_cfg.c **** 
 215:.\Generated_Source\PSoC5/cyfitter_cfg.c **** 	/* Configure PLL based on settings from Clock DWR */
 216:.\Generated_Source\PSoC5/cyfitter_cfg.c **** 	CY_SET_XTND_REG16((void CYFAR *)(CYREG_FASTCLK_PLL_P), 0x0242u);
 217:.\Generated_Source\PSoC5/cyfitter_cfg.c **** 	CY_SET_XTND_REG16((void CYFAR *)(CYREG_FASTCLK_PLL_CFG0), 0x1251u);
 218:.\Generated_Source\PSoC5/cyfitter_cfg.c **** 	/* Wait up to 250us for the PLL to lock */
 219:.\Generated_Source\PSoC5/cyfitter_cfg.c **** 	pllLock = 0u;
 220:.\Generated_Source\PSoC5/cyfitter_cfg.c **** 	for (timeout = 250u / 10u; (timeout > 0u) && (pllLock != 0x03u); timeout--)
 221:.\Generated_Source\PSoC5/cyfitter_cfg.c **** 	{ 
 222:.\Generated_Source\PSoC5/cyfitter_cfg.c **** 		pllLock = 0x03u & ((uint8)((uint8)pllLock << 1) | ((CY_GET_XTND_REG8((void CYFAR *)CYREG_FASTCLK_
 223:.\Generated_Source\PSoC5/cyfitter_cfg.c **** 		CyDelayCycles(10u * 48u); /* Delay 10us based on 48MHz clock */
 224:.\Generated_Source\PSoC5/cyfitter_cfg.c **** 	}
 225:.\Generated_Source\PSoC5/cyfitter_cfg.c **** 	/* If we ran out of time the PLL didn't lock so go to the error function */
 226:.\Generated_Source\PSoC5/cyfitter_cfg.c **** 	if (timeout == 0u)
 227:.\Generated_Source\PSoC5/cyfitter_cfg.c **** 	{
 228:.\Generated_Source\PSoC5/cyfitter_cfg.c **** 		CyClockStartupError(CYCLOCKSTART_PLL_ERROR);
 229:.\Generated_Source\PSoC5/cyfitter_cfg.c **** 	}
 230:.\Generated_Source\PSoC5/cyfitter_cfg.c **** 
 231:.\Generated_Source\PSoC5/cyfitter_cfg.c **** 	/* Configure Bus/Master Clock based on settings from Clock DWR */
 232:.\Generated_Source\PSoC5/cyfitter_cfg.c **** 	CY_SET_XTND_REG16((void CYFAR *)(CYREG_CLKDIST_MSTR0), 0x0100u);
 233:.\Generated_Source\PSoC5/cyfitter_cfg.c **** 	CY_SET_XTND_REG8((void CYFAR *)(CYREG_CLKDIST_MSTR0), 0x07u);
 234:.\Generated_Source\PSoC5/cyfitter_cfg.c **** 	CY_SET_XTND_REG8((void CYFAR *)(CYREG_CLKDIST_BCFG0), 0x00u);
 235:.\Generated_Source\PSoC5/cyfitter_cfg.c **** 	CY_SET_XTND_REG8((void CYFAR *)(CYREG_CLKDIST_BCFG2), 0x48u);
 236:.\Generated_Source\PSoC5/cyfitter_cfg.c **** 	CY_SET_XTND_REG8((void CYFAR *)(CYREG_CLKDIST_MSTR0), 0x00u);
 237:.\Generated_Source\PSoC5/cyfitter_cfg.c **** 	CY_SET_XTND_REG8((void CYFAR *)(CYREG_CLKDIST_LD), 0x02u);
 238:.\Generated_Source\PSoC5/cyfitter_cfg.c **** 
 239:.\Generated_Source\PSoC5/cyfitter_cfg.c **** 	CY_SET_XTND_REG8((void CYFAR *)(CYREG_PM_ACT_CFG2), ((CY_GET_XTND_REG8((void CYFAR *)CYREG_PM_ACT_
 240:.\Generated_Source\PSoC5/cyfitter_cfg.c **** }
 241:.\Generated_Source\PSoC5/cyfitter_cfg.c **** 
 242:.\Generated_Source\PSoC5/cyfitter_cfg.c **** 
 243:.\Generated_Source\PSoC5/cyfitter_cfg.c **** /* Analog API Functions */
 244:.\Generated_Source\PSoC5/cyfitter_cfg.c **** 
 245:.\Generated_Source\PSoC5/cyfitter_cfg.c **** 
 246:.\Generated_Source\PSoC5/cyfitter_cfg.c **** /*******************************************************************************
 247:.\Generated_Source\PSoC5/cyfitter_cfg.c **** * Function Name: AnalogSetDefault
 248:.\Generated_Source\PSoC5/cyfitter_cfg.c **** ********************************************************************************
 249:.\Generated_Source\PSoC5/cyfitter_cfg.c **** *
 250:.\Generated_Source\PSoC5/cyfitter_cfg.c **** * Summary:
 251:.\Generated_Source\PSoC5/cyfitter_cfg.c **** *  Sets up the analog portions of the chip to default values based on chip
 252:.\Generated_Source\PSoC5/cyfitter_cfg.c **** *  configuration options from the project.
 253:.\Generated_Source\PSoC5/cyfitter_cfg.c **** *
 254:.\Generated_Source\PSoC5/cyfitter_cfg.c **** * Parameters:
 255:.\Generated_Source\PSoC5/cyfitter_cfg.c **** *  void
 256:.\Generated_Source\PSoC5/cyfitter_cfg.c **** *
 257:.\Generated_Source\PSoC5/cyfitter_cfg.c **** * Return:
 258:.\Generated_Source\PSoC5/cyfitter_cfg.c **** *  void
 259:.\Generated_Source\PSoC5/cyfitter_cfg.c **** *
ARM GAS  C:\Users\CHUCK~1.ERH\AppData\Local\Temp\ccDBgGs7.s 			page 6


 260:.\Generated_Source\PSoC5/cyfitter_cfg.c **** *******************************************************************************/
 261:.\Generated_Source\PSoC5/cyfitter_cfg.c **** static void AnalogSetDefault(void);
 262:.\Generated_Source\PSoC5/cyfitter_cfg.c **** static void AnalogSetDefault(void)
 263:.\Generated_Source\PSoC5/cyfitter_cfg.c **** {
 264:.\Generated_Source\PSoC5/cyfitter_cfg.c **** 	uint8 bg_xover_inl_trim = CY_GET_XTND_REG8((void CYFAR *)(CYREG_FLSHID_MFG_CFG_BG_XOVER_INL_TRIM +
 265:.\Generated_Source\PSoC5/cyfitter_cfg.c **** 	CY_SET_XTND_REG8((void CYFAR *)(CYREG_BG_DFT0), (bg_xover_inl_trim & 0x07u));
 266:.\Generated_Source\PSoC5/cyfitter_cfg.c **** 	CY_SET_XTND_REG8((void CYFAR *)(CYREG_BG_DFT1), ((bg_xover_inl_trim >> 4) & 0x0Fu));
 267:.\Generated_Source\PSoC5/cyfitter_cfg.c **** 	CY_SET_XTND_REG8((void CYFAR *)CYREG_PUMP_CR0, 0x44u);
 268:.\Generated_Source\PSoC5/cyfitter_cfg.c **** }
 269:.\Generated_Source\PSoC5/cyfitter_cfg.c **** 
 270:.\Generated_Source\PSoC5/cyfitter_cfg.c **** 
 271:.\Generated_Source\PSoC5/cyfitter_cfg.c **** /*******************************************************************************
 272:.\Generated_Source\PSoC5/cyfitter_cfg.c **** * Function Name: SetAnalogRoutingPumps
 273:.\Generated_Source\PSoC5/cyfitter_cfg.c **** ********************************************************************************
 274:.\Generated_Source\PSoC5/cyfitter_cfg.c **** *
 275:.\Generated_Source\PSoC5/cyfitter_cfg.c **** * Summary:
 276:.\Generated_Source\PSoC5/cyfitter_cfg.c **** * Enables or disables the analog pumps feeding analog routing switches.
 277:.\Generated_Source\PSoC5/cyfitter_cfg.c **** * Intended to be called at startup, based on the Vdda system configuration;
 278:.\Generated_Source\PSoC5/cyfitter_cfg.c **** * may be called during operation when the user informs us that the Vdda voltage
 279:.\Generated_Source\PSoC5/cyfitter_cfg.c **** * crossed the pump threshold.
 280:.\Generated_Source\PSoC5/cyfitter_cfg.c **** *
 281:.\Generated_Source\PSoC5/cyfitter_cfg.c **** * Parameters:
 282:.\Generated_Source\PSoC5/cyfitter_cfg.c **** *  enabled - 1 to enable the pumps, 0 to disable the pumps
 283:.\Generated_Source\PSoC5/cyfitter_cfg.c **** *
 284:.\Generated_Source\PSoC5/cyfitter_cfg.c **** * Return:
 285:.\Generated_Source\PSoC5/cyfitter_cfg.c **** *  void
 286:.\Generated_Source\PSoC5/cyfitter_cfg.c **** *
 287:.\Generated_Source\PSoC5/cyfitter_cfg.c **** *******************************************************************************/
 288:.\Generated_Source\PSoC5/cyfitter_cfg.c **** void SetAnalogRoutingPumps(uint8 enabled)
 289:.\Generated_Source\PSoC5/cyfitter_cfg.c **** {
  27              		.loc 1 289 0
  28              		.cfi_startproc
  29              		@ args = 0, pretend = 0, frame = 0
  30              		@ frame_needed = 0, uses_anonymous_args = 0
  31              		@ link register save eliminated.
  32              	.LVL0:
 290:.\Generated_Source\PSoC5/cyfitter_cfg.c **** 	uint8 regValue = CY_GET_XTND_REG8((void CYFAR *)CYREG_PUMP_CR0);
  33              		.loc 1 290 0
  34 0000 014B     		ldr	r3, .L2
  35 0002 1A78     		ldrb	r2, [r3, #0]	@ zero_extendqisi2
  36              	.LVL1:
 291:.\Generated_Source\PSoC5/cyfitter_cfg.c **** 	if (enabled != 0u)
 292:.\Generated_Source\PSoC5/cyfitter_cfg.c **** 	{
 293:.\Generated_Source\PSoC5/cyfitter_cfg.c **** 		regValue |= 0x00u;
 294:.\Generated_Source\PSoC5/cyfitter_cfg.c **** 	}
 295:.\Generated_Source\PSoC5/cyfitter_cfg.c **** 	else
 296:.\Generated_Source\PSoC5/cyfitter_cfg.c **** 	{
 297:.\Generated_Source\PSoC5/cyfitter_cfg.c **** 		regValue &= (uint8)~0x00u;
 298:.\Generated_Source\PSoC5/cyfitter_cfg.c **** 	}
 299:.\Generated_Source\PSoC5/cyfitter_cfg.c **** 	CY_SET_XTND_REG8((void CYFAR *)CYREG_PUMP_CR0, regValue);
  37              		.loc 1 299 0
  38 0004 1A70     		strb	r2, [r3, #0]
  39 0006 7047     		bx	lr
  40              	.L3:
  41              		.align	2
  42              	.L2:
  43 0008 76580040 		.word	1073764470
ARM GAS  C:\Users\CHUCK~1.ERH\AppData\Local\Temp\ccDBgGs7.s 			page 7


  44              		.cfi_endproc
  45              	.LFE7:
  46              		.size	SetAnalogRoutingPumps, .-SetAnalogRoutingPumps
  47              		.section	.text.cyfitter_cfg,"ax",%progbits
  48              		.align	1
  49              		.global	cyfitter_cfg
  50              		.thumb
  51              		.thumb_func
  52              		.type	cyfitter_cfg, %function
  53              	cyfitter_cfg:
  54              	.LFB8:
 300:.\Generated_Source\PSoC5/cyfitter_cfg.c **** }
 301:.\Generated_Source\PSoC5/cyfitter_cfg.c **** 
 302:.\Generated_Source\PSoC5/cyfitter_cfg.c **** #define CY_AMUX_UNUSED CYREG_BOOST_SR
 303:.\Generated_Source\PSoC5/cyfitter_cfg.c **** 
 304:.\Generated_Source\PSoC5/cyfitter_cfg.c **** 
 305:.\Generated_Source\PSoC5/cyfitter_cfg.c **** /*******************************************************************************
 306:.\Generated_Source\PSoC5/cyfitter_cfg.c **** * Function Name: cyfitter_cfg
 307:.\Generated_Source\PSoC5/cyfitter_cfg.c **** ********************************************************************************
 308:.\Generated_Source\PSoC5/cyfitter_cfg.c **** * Summary:
 309:.\Generated_Source\PSoC5/cyfitter_cfg.c **** *  This function is called by the start-up code for the selected device. It
 310:.\Generated_Source\PSoC5/cyfitter_cfg.c **** *  performs all of the necessary device configuration based on the design
 311:.\Generated_Source\PSoC5/cyfitter_cfg.c **** *  settings.  This includes settings from the Design Wide Resources (DWR) such
 312:.\Generated_Source\PSoC5/cyfitter_cfg.c **** *  as Clocks and Pins as well as any component configuration that is necessary.
 313:.\Generated_Source\PSoC5/cyfitter_cfg.c **** *
 314:.\Generated_Source\PSoC5/cyfitter_cfg.c **** * Parameters:  
 315:.\Generated_Source\PSoC5/cyfitter_cfg.c **** *   void
 316:.\Generated_Source\PSoC5/cyfitter_cfg.c **** *
 317:.\Generated_Source\PSoC5/cyfitter_cfg.c **** * Return:
 318:.\Generated_Source\PSoC5/cyfitter_cfg.c **** *   void
 319:.\Generated_Source\PSoC5/cyfitter_cfg.c **** *
 320:.\Generated_Source\PSoC5/cyfitter_cfg.c **** *******************************************************************************/
 321:.\Generated_Source\PSoC5/cyfitter_cfg.c **** 
 322:.\Generated_Source\PSoC5/cyfitter_cfg.c **** void cyfitter_cfg(void)
 323:.\Generated_Source\PSoC5/cyfitter_cfg.c **** {
  55              		.loc 1 323 0
  56              		.cfi_startproc
  57              		@ args = 0, pretend = 0, frame = 0
  58              		@ frame_needed = 0, uses_anonymous_args = 0
  59 0000 F8B5     		push	{r3, r4, r5, r6, r7, lr}
  60              	.LCFI0:
  61              		.cfi_def_cfa_offset 24
  62              		.cfi_offset 3, -24
  63              		.cfi_offset 4, -20
  64              		.cfi_offset 5, -16
  65              		.cfi_offset 6, -12
  66              		.cfi_offset 7, -8
  67              		.cfi_offset 14, -4
 324:.\Generated_Source\PSoC5/cyfitter_cfg.c **** #ifdef CYGlobalIntDisable
 325:.\Generated_Source\PSoC5/cyfitter_cfg.c **** 	/* Disable interrupts by default. Let user enable if/when they want. */
 326:.\Generated_Source\PSoC5/cyfitter_cfg.c **** 	CYGlobalIntDisable
  68              		.loc 1 326 0
  69              	@ 326 ".\Generated_Source\PSoC5\cyfitter_cfg.c" 1
  70 0002 72B6     		CPSID   i
  71              	@ 0 "" 2
 327:.\Generated_Source\PSoC5/cyfitter_cfg.c **** #endif
 328:.\Generated_Source\PSoC5/cyfitter_cfg.c **** 
ARM GAS  C:\Users\CHUCK~1.ERH\AppData\Local\Temp\ccDBgGs7.s 			page 8


 329:.\Generated_Source\PSoC5/cyfitter_cfg.c **** 
 330:.\Generated_Source\PSoC5/cyfitter_cfg.c **** 	/* Set Flash Cycles based on max possible frequency in case a glitch occurs during ClockSetup(). *
 331:.\Generated_Source\PSoC5/cyfitter_cfg.c **** 	CY_SET_XTND_REG8((void CYFAR *)(CYREG_CACHE_CC_CTL), (((CYDEV_INSTRUCT_CACHE_ENABLED) != 0) ? 0x01
  72              		.loc 1 331 0
  73              		.thumb
  74 0004 604B     		ldr	r3, .L23
  75 0006 0122     		movs	r2, #1
  76              	.LBB40:
  77              	.LBB41:
 204:.\Generated_Source\PSoC5/cyfitter_cfg.c **** 	CY_SET_XTND_REG16((void CYFAR *)(CYREG_CLKDIST_DCFG0_CFG0), 0x0003u);
  78              		.loc 1 204 0
  79 0008 6049     		ldr	r1, .L23+4
  80              	.LBE41:
  81              	.LBE40:
  82              		.loc 1 331 0
  83 000a 1A70     		strb	r2, [r3, #0]
  84              	.LBB44:
  85              	.LBB42:
 204:.\Generated_Source\PSoC5/cyfitter_cfg.c **** 	CY_SET_XTND_REG16((void CYFAR *)(CYREG_CLKDIST_DCFG0_CFG0), 0x0003u);
  86              		.loc 1 204 0
  87 000c 0320     		movs	r0, #3
 205:.\Generated_Source\PSoC5/cyfitter_cfg.c **** 	CY_SET_XTND_REG8((void CYFAR *)(CYREG_CLKDIST_DCFG0_CFG0 + 0x2u), 0x18u);
  88              		.loc 1 205 0
  89 000e 604E     		ldr	r6, .L23+8
 208:.\Generated_Source\PSoC5/cyfitter_cfg.c **** 	CY_SET_XTND_REG8((void CYFAR *)(CYREG_SLOWCLK_ILO_CR0), 0x02u);
  90              		.loc 1 208 0
  91 0010 604A     		ldr	r2, .L23+12
 204:.\Generated_Source\PSoC5/cyfitter_cfg.c **** 	CY_SET_XTND_REG16((void CYFAR *)(CYREG_CLKDIST_DCFG0_CFG0), 0x0003u);
  92              		.loc 1 204 0
  93 0012 0880     		strh	r0, [r1, #0]	@ movhi
  94 0014 0446     		mov	r4, r0	@ movhi
 205:.\Generated_Source\PSoC5/cyfitter_cfg.c **** 	CY_SET_XTND_REG8((void CYFAR *)(CYREG_CLKDIST_DCFG0_CFG0 + 0x2u), 0x18u);
  95              		.loc 1 205 0
  96 0016 1825     		movs	r5, #24
 208:.\Generated_Source\PSoC5/cyfitter_cfg.c **** 	CY_SET_XTND_REG8((void CYFAR *)(CYREG_SLOWCLK_ILO_CR0), 0x02u);
  97              		.loc 1 208 0
  98 0018 0227     		movs	r7, #2
 209:.\Generated_Source\PSoC5/cyfitter_cfg.c **** 	CY_SET_XTND_REG8((void CYFAR *)(CYREG_CLKDIST_CR), 0x08u);
  99              		.loc 1 209 0
 100 001a 4FF04023 		mov	r3, #1073758208
 101 001e 0820     		movs	r0, #8
 205:.\Generated_Source\PSoC5/cyfitter_cfg.c **** 	CY_SET_XTND_REG8((void CYFAR *)(CYREG_CLKDIST_DCFG0_CFG0 + 0x2u), 0x18u);
 102              		.loc 1 205 0
 103 0020 3570     		strb	r5, [r6, #0]
 208:.\Generated_Source\PSoC5/cyfitter_cfg.c **** 	CY_SET_XTND_REG8((void CYFAR *)(CYREG_SLOWCLK_ILO_CR0), 0x02u);
 104              		.loc 1 208 0
 105 0022 1770     		strb	r7, [r2, #0]
 209:.\Generated_Source\PSoC5/cyfitter_cfg.c **** 	CY_SET_XTND_REG8((void CYFAR *)(CYREG_CLKDIST_CR), 0x08u);
 106              		.loc 1 209 0
 107 0024 1870     		strb	r0, [r3, #0]
 212:.\Generated_Source\PSoC5/cyfitter_cfg.c **** 	CY_SET_XTND_REG8((void CYFAR *)(CYREG_FASTCLK_IMO_CR), 0x03u);
 108              		.loc 1 212 0
 109 0026 83F80042 		strb	r4, [r3, #512]
 213:.\Generated_Source\PSoC5/cyfitter_cfg.c **** 	CY_SET_XTND_REG8((void CYFAR *)(CYREG_IMO_TR1), (CY_GET_XTND_REG8((void CYFAR *)CYREG_FLSHID_CUST_
 110              		.loc 1 213 0
 111 002a 5B4C     		ldr	r4, .L23+16
 112 002c 5B4D     		ldr	r5, .L23+20
ARM GAS  C:\Users\CHUCK~1.ERH\AppData\Local\Temp\ccDBgGs7.s 			page 9


 113 002e 2178     		ldrb	r1, [r4, #0]	@ zero_extendqisi2
 216:.\Generated_Source\PSoC5/cyfitter_cfg.c **** 	CY_SET_XTND_REG16((void CYFAR *)(CYREG_FASTCLK_PLL_P), 0x0242u);
 114              		.loc 1 216 0
 115 0030 5B4F     		ldr	r7, .L23+24
 116 0032 40F24226 		movw	r6, #578
 217:.\Generated_Source\PSoC5/cyfitter_cfg.c **** 	CY_SET_XTND_REG16((void CYFAR *)(CYREG_FASTCLK_PLL_CFG0), 0x1251u);
 117              		.loc 1 217 0
 118 0036 41F25122 		movw	r2, #4689
 213:.\Generated_Source\PSoC5/cyfitter_cfg.c **** 	CY_SET_XTND_REG8((void CYFAR *)(CYREG_IMO_TR1), (CY_GET_XTND_REG8((void CYFAR *)CYREG_FLSHID_CUST_
 119              		.loc 1 213 0
 120 003a 2970     		strb	r1, [r5, #0]
 216:.\Generated_Source\PSoC5/cyfitter_cfg.c **** 	CY_SET_XTND_REG16((void CYFAR *)(CYREG_FASTCLK_PLL_P), 0x0242u);
 121              		.loc 1 216 0
 122 003c 3E80     		strh	r6, [r7, #0]	@ movhi
 217:.\Generated_Source\PSoC5/cyfitter_cfg.c **** 	CY_SET_XTND_REG16((void CYFAR *)(CYREG_FASTCLK_PLL_CFG0), 0x1251u);
 123              		.loc 1 217 0
 124 003e 1925     		movs	r5, #25
 125 0040 27F8022C 		strh	r2, [r7, #-2]	@ movhi
 126              	.LVL2:
 219:.\Generated_Source\PSoC5/cyfitter_cfg.c **** 	pllLock = 0u;
 127              		.loc 1 219 0
 128 0044 0026     		movs	r6, #0
 129              	.LVL3:
 130              	.L6:
 222:.\Generated_Source\PSoC5/cyfitter_cfg.c **** 		pllLock = 0x03u & ((uint8)((uint8)pllLock << 1) | ((CY_GET_XTND_REG8((void CYFAR *)CYREG_FASTCLK_
 131              		.loc 1 222 0
 132 0046 5748     		ldr	r0, .L23+28
 133 0048 0378     		ldrb	r3, [r0, #0]	@ zero_extendqisi2
 223:.\Generated_Source\PSoC5/cyfitter_cfg.c **** 		CyDelayCycles(10u * 48u); /* Delay 10us based on 48MHz clock */
 134              		.loc 1 223 0
 135 004a 4FF4F070 		mov	r0, #480
 222:.\Generated_Source\PSoC5/cyfitter_cfg.c **** 		pllLock = 0x03u & ((uint8)((uint8)pllLock << 1) | ((CY_GET_XTND_REG8((void CYFAR *)CYREG_FASTCLK_
 136              		.loc 1 222 0
 137 004e 03F00101 		and	r1, r3, #1
 138 0052 41EA4604 		orr	r4, r1, r6, lsl #1
 223:.\Generated_Source\PSoC5/cyfitter_cfg.c **** 		CyDelayCycles(10u * 48u); /* Delay 10us based on 48MHz clock */
 139              		.loc 1 223 0
 140 0056 FFF7FEFF 		bl	CyDelayCycles
 141              	.LVL4:
 220:.\Generated_Source\PSoC5/cyfitter_cfg.c **** 	for (timeout = 250u / 10u; (timeout > 0u) && (pllLock != 0x03u); timeout--)
 142              		.loc 1 220 0
 143 005a 013D     		subs	r5, r5, #1
 222:.\Generated_Source\PSoC5/cyfitter_cfg.c **** 		pllLock = 0x03u & ((uint8)((uint8)pllLock << 1) | ((CY_GET_XTND_REG8((void CYFAR *)CYREG_FASTCLK_
 144              		.loc 1 222 0
 145 005c 04F00306 		and	r6, r4, #3
 146              	.LVL5:
 220:.\Generated_Source\PSoC5/cyfitter_cfg.c **** 	for (timeout = 250u / 10u; (timeout > 0u) && (pllLock != 0x03u); timeout--)
 147              		.loc 1 220 0
 148 0060 1BD0     		beq	.L5
 149 0062 032E     		cmp	r6, #3
 150 0064 EFD1     		bne	.L6
 232:.\Generated_Source\PSoC5/cyfitter_cfg.c **** 	CY_SET_XTND_REG16((void CYFAR *)(CYREG_CLKDIST_MSTR0), 0x0100u);
 151              		.loc 1 232 0
 152 0066 504F     		ldr	r7, .L23+32
 234:.\Generated_Source\PSoC5/cyfitter_cfg.c **** 	CY_SET_XTND_REG8((void CYFAR *)(CYREG_CLKDIST_BCFG0), 0x00u);
 153              		.loc 1 234 0
 154 0068 504B     		ldr	r3, .L23+36
ARM GAS  C:\Users\CHUCK~1.ERH\AppData\Local\Temp\ccDBgGs7.s 			page 10


 232:.\Generated_Source\PSoC5/cyfitter_cfg.c **** 	CY_SET_XTND_REG16((void CYFAR *)(CYREG_CLKDIST_MSTR0), 0x0100u);
 155              		.loc 1 232 0
 156 006a 4FF48072 		mov	r2, #256
 233:.\Generated_Source\PSoC5/cyfitter_cfg.c **** 	CY_SET_XTND_REG8((void CYFAR *)(CYREG_CLKDIST_MSTR0), 0x07u);
 157              		.loc 1 233 0
 158 006e 0720     		movs	r0, #7
 234:.\Generated_Source\PSoC5/cyfitter_cfg.c **** 	CY_SET_XTND_REG8((void CYFAR *)(CYREG_CLKDIST_BCFG0), 0x00u);
 159              		.loc 1 234 0
 160 0070 0024     		movs	r4, #0
 235:.\Generated_Source\PSoC5/cyfitter_cfg.c **** 	CY_SET_XTND_REG8((void CYFAR *)(CYREG_CLKDIST_BCFG2), 0x48u);
 161              		.loc 1 235 0
 162 0072 4821     		movs	r1, #72
 239:.\Generated_Source\PSoC5/cyfitter_cfg.c **** 	CY_SET_XTND_REG8((void CYFAR *)(CYREG_PM_ACT_CFG2), ((CY_GET_XTND_REG8((void CYFAR *)CYREG_PM_ACT_
 163              		.loc 1 239 0
 164 0074 4E4D     		ldr	r5, .L23+40
 237:.\Generated_Source\PSoC5/cyfitter_cfg.c **** 	CY_SET_XTND_REG8((void CYFAR *)(CYREG_CLKDIST_LD), 0x02u);
 165              		.loc 1 237 0
 166 0076 0226     		movs	r6, #2
 167              	.LVL6:
 232:.\Generated_Source\PSoC5/cyfitter_cfg.c **** 	CY_SET_XTND_REG16((void CYFAR *)(CYREG_CLKDIST_MSTR0), 0x0100u);
 168              		.loc 1 232 0
 169 0078 3A80     		strh	r2, [r7, #0]	@ movhi
 233:.\Generated_Source\PSoC5/cyfitter_cfg.c **** 	CY_SET_XTND_REG8((void CYFAR *)(CYREG_CLKDIST_MSTR0), 0x07u);
 170              		.loc 1 233 0
 171 007a 3870     		strb	r0, [r7, #0]
 234:.\Generated_Source\PSoC5/cyfitter_cfg.c **** 	CY_SET_XTND_REG8((void CYFAR *)(CYREG_CLKDIST_BCFG0), 0x00u);
 172              		.loc 1 234 0
 173 007c 1C70     		strb	r4, [r3, #0]
 235:.\Generated_Source\PSoC5/cyfitter_cfg.c **** 	CY_SET_XTND_REG8((void CYFAR *)(CYREG_CLKDIST_BCFG2), 0x48u);
 174              		.loc 1 235 0
 175 007e 9970     		strb	r1, [r3, #2]
 236:.\Generated_Source\PSoC5/cyfitter_cfg.c **** 	CY_SET_XTND_REG8((void CYFAR *)(CYREG_CLKDIST_MSTR0), 0x00u);
 176              		.loc 1 236 0
 177 0080 3C70     		strb	r4, [r7, #0]
 237:.\Generated_Source\PSoC5/cyfitter_cfg.c **** 	CY_SET_XTND_REG8((void CYFAR *)(CYREG_CLKDIST_LD), 0x02u);
 178              		.loc 1 237 0
 179 0082 07F8036C 		strb	r6, [r7, #-3]
 239:.\Generated_Source\PSoC5/cyfitter_cfg.c **** 	CY_SET_XTND_REG8((void CYFAR *)(CYREG_PM_ACT_CFG2), ((CY_GET_XTND_REG8((void CYFAR *)CYREG_PM_ACT_
 180              		.loc 1 239 0
 181 0086 2F78     		ldrb	r7, [r5, #0]	@ zero_extendqisi2
 182              	.LBE42:
 183              	.LBE44:
 332:.\Generated_Source\PSoC5/cyfitter_cfg.c **** 	/* Setup clocks based on selections from Clock DWR */
 333:.\Generated_Source\PSoC5/cyfitter_cfg.c **** 	ClockSetup();
 334:.\Generated_Source\PSoC5/cyfitter_cfg.c **** 	/* Enable/Disable Debug functionality based on settings from System DWR */
 335:.\Generated_Source\PSoC5/cyfitter_cfg.c **** 	CY_SET_XTND_REG8((void CYFAR *)CYREG_MLOGIC_DEBUG, (CY_GET_XTND_REG8((void CYFAR *)CYREG_MLOGIC_DE
 184              		.loc 1 335 0
 185 0088 4A48     		ldr	r0, .L23+44
 186              	.LBB45:
 187              	.LBB43:
 239:.\Generated_Source\PSoC5/cyfitter_cfg.c **** 	CY_SET_XTND_REG8((void CYFAR *)(CYREG_PM_ACT_CFG2), ((CY_GET_XTND_REG8((void CYFAR *)CYREG_PM_ACT_
 188              		.loc 1 239 0
 189 008a 47F00102 		orr	r2, r7, #1
 190 008e 2A70     		strb	r2, [r5, #0]
 191              	.LBE43:
 192              	.LBE45:
 193              		.loc 1 335 0
ARM GAS  C:\Users\CHUCK~1.ERH\AppData\Local\Temp\ccDBgGs7.s 			page 11


 194 0090 0378     		ldrb	r3, [r0, #0]	@ zero_extendqisi2
 195 0092 43F00401 		orr	r1, r3, #4
 196 0096 0170     		strb	r1, [r0, #0]
 197              	.LVL7:
 198 0098 00E0     		b	.L8
 199              	.LVL8:
 200              	.L5:
 201 009a FEE7     		b	.L5
 202              	.LVL9:
 203              	.L8:
 204              	.LBB46:
 205              	.LBB47:
 336:.\Generated_Source\PSoC5/cyfitter_cfg.c **** 
 337:.\Generated_Source\PSoC5/cyfitter_cfg.c **** 	{
 338:.\Generated_Source\PSoC5/cyfitter_cfg.c **** 
 339:.\Generated_Source\PSoC5/cyfitter_cfg.c **** 		CYPACKED typedef struct {
 340:.\Generated_Source\PSoC5/cyfitter_cfg.c **** 			void CYFAR *address;
 341:.\Generated_Source\PSoC5/cyfitter_cfg.c **** 			uint16 size;
 342:.\Generated_Source\PSoC5/cyfitter_cfg.c **** 		} CYPACKED_ATTR cfg_memset_t;
 343:.\Generated_Source\PSoC5/cyfitter_cfg.c **** 
 344:.\Generated_Source\PSoC5/cyfitter_cfg.c **** 
 345:.\Generated_Source\PSoC5/cyfitter_cfg.c **** 		CYPACKED typedef struct {
 346:.\Generated_Source\PSoC5/cyfitter_cfg.c **** 			void CYFAR *dest;
 347:.\Generated_Source\PSoC5/cyfitter_cfg.c **** 			const void CYFAR *src;
 348:.\Generated_Source\PSoC5/cyfitter_cfg.c **** 			uint16 size;
 349:.\Generated_Source\PSoC5/cyfitter_cfg.c **** 		} CYPACKED_ATTR cfg_memcpy_t;
 350:.\Generated_Source\PSoC5/cyfitter_cfg.c **** 
 351:.\Generated_Source\PSoC5/cyfitter_cfg.c **** 		static const cfg_memset_t CYCODE cfg_memset_list [] = {
 352:.\Generated_Source\PSoC5/cyfitter_cfg.c **** 			/* address, size */
 353:.\Generated_Source\PSoC5/cyfitter_cfg.c **** 			{(void CYFAR *)(CYREG_PRT1_DR), 32u},
 354:.\Generated_Source\PSoC5/cyfitter_cfg.c **** 			{(void CYFAR *)(CYREG_PRT4_DR), 16u},
 355:.\Generated_Source\PSoC5/cyfitter_cfg.c **** 			{(void CYFAR *)(CYREG_PRT6_DR), 16u},
 356:.\Generated_Source\PSoC5/cyfitter_cfg.c **** 			{(void CYFAR *)(CYREG_PRT12_DR), 16u},
 357:.\Generated_Source\PSoC5/cyfitter_cfg.c **** 			{(void CYFAR *)(CYREG_PRT15_DR), 16u},
 358:.\Generated_Source\PSoC5/cyfitter_cfg.c **** 			{(void CYFAR *)(CYDEV_UCFG_B0_P0_U0_BASE), 4096u},
 359:.\Generated_Source\PSoC5/cyfitter_cfg.c **** 			{(void CYFAR *)(CYDEV_UCFG_B1_P2_U0_BASE), 640u},
 360:.\Generated_Source\PSoC5/cyfitter_cfg.c **** 			{(void CYFAR *)(CYDEV_UCFG_B1_P3_ROUTE_BASE), 1280u},
 361:.\Generated_Source\PSoC5/cyfitter_cfg.c **** 			{(void CYFAR *)(CYDEV_UCFG_DSI0_BASE), 2560u},
 362:.\Generated_Source\PSoC5/cyfitter_cfg.c **** 			{(void CYFAR *)(CYDEV_UCFG_DSI12_BASE), 512u},
 363:.\Generated_Source\PSoC5/cyfitter_cfg.c **** 			{(void CYFAR *)(CYREG_BCTL0_MDCLK_EN), 32u},
 364:.\Generated_Source\PSoC5/cyfitter_cfg.c **** 		};
 365:.\Generated_Source\PSoC5/cyfitter_cfg.c **** 
 366:.\Generated_Source\PSoC5/cyfitter_cfg.c **** 		static const cfg_memcpy_t CYCODE cfg_memcpy_list [] = {
 367:.\Generated_Source\PSoC5/cyfitter_cfg.c **** 			/* dest, src, size */
 368:.\Generated_Source\PSoC5/cyfitter_cfg.c **** 			{(void CYFAR *)(CYDEV_UCFG_B1_P3_U1_BASE), BS_UDB_1_1_0_CONFIG_VAL, 128u},
 369:.\Generated_Source\PSoC5/cyfitter_cfg.c **** 		};
 370:.\Generated_Source\PSoC5/cyfitter_cfg.c **** 
 371:.\Generated_Source\PSoC5/cyfitter_cfg.c **** 		uint8 CYDATA i;
 372:.\Generated_Source\PSoC5/cyfitter_cfg.c **** 
 373:.\Generated_Source\PSoC5/cyfitter_cfg.c **** 		/* Zero out critical memory blocks before beginning configuration */
 374:.\Generated_Source\PSoC5/cyfitter_cfg.c **** 		for (i = 0u; i < (sizeof(cfg_memset_list)/sizeof(cfg_memset_list[0])); i++)
 375:.\Generated_Source\PSoC5/cyfitter_cfg.c **** 		{
 376:.\Generated_Source\PSoC5/cyfitter_cfg.c **** 			const cfg_memset_t CYCODE * CYDATA ms = &cfg_memset_list[i];
 206              		.loc 1 376 0 discriminator 2
 207 009c 464D     		ldr	r5, .L23+48
 208 009e 0626     		movs	r6, #6
 209 00a0 06FB0457 		mla	r7, r6, r4, r5
ARM GAS  C:\Users\CHUCK~1.ERH\AppData\Local\Temp\ccDBgGs7.s 			page 12


 210              	.LVL10:
 211              	.LBB48:
 212              	.LBB49:
  61:.\Generated_Source\PSoC5/cyfitter_cfg.c **** 	(void)memset(s, 0, n);
 213              		.loc 1 61 0 discriminator 2
 214 00a4 0021     		movs	r1, #0
 215 00a6 3868     		ldr	r0, [r7, #0]	@ unaligned
 216 00a8 BA88     		ldrh	r2, [r7, #4]	@ unaligned
 217 00aa 0134     		adds	r4, r4, #1
 218              	.LVL11:
 219 00ac FFF7FEFF 		bl	memset
 220              	.LVL12:
 221              	.LBE49:
 222              	.LBE48:
 223              	.LBE47:
 374:.\Generated_Source\PSoC5/cyfitter_cfg.c **** 		for (i = 0u; i < (sizeof(cfg_memset_list)/sizeof(cfg_memset_list[0])); i++)
 224              		.loc 1 374 0 discriminator 2
 225 00b0 0B2C     		cmp	r4, #11
 226 00b2 F3D1     		bne	.L8
 227              	.LVL13:
 228              	.LBB50:
 229              	.LBB51:
 230              	.LBB52:
  68:.\Generated_Source\PSoC5/cyfitter_cfg.c **** 	(void)memcpy(dest, src, n);
 231              		.loc 1 68 0 discriminator 2
 232 00b4 4149     		ldr	r1, .L23+52
 233 00b6 8022     		movs	r2, #128
 234 00b8 4148     		ldr	r0, .L23+56
 235 00ba FFF7FEFF 		bl	memcpy
 236              	.LVL14:
 237 00be 414A     		ldr	r2, .L23+60
 238 00c0 0021     		movs	r1, #0
 239              	.LVL15:
 240              	.L11:
 241              	.LBE52:
 242              	.LBE51:
 243              	.LBE50:
 244              	.LBB55:
 245              	.LBB56:
 246              	.LBB57:
 168:.\Generated_Source\PSoC5/cyfitter_cfg.c **** 		uint32 baseAddr = addr_table[i];
 247              		.loc 1 168 0
 248 00c2 52F8040F 		ldr	r0, [r2, #4]!
 249              	.LVL16:
 322:.\Generated_Source\PSoC5/cyfitter_cfg.c **** void cyfitter_cfg(void)
 250              		.loc 1 322 0
 251 00c6 4F00     		lsls	r7, r1, #1
 169:.\Generated_Source\PSoC5/cyfitter_cfg.c **** 		uint8 count = (uint8)baseAddr;
 252              		.loc 1 169 0
 253 00c8 C5B2     		uxtb	r5, r0
 254              	.LVL17:
 170:.\Generated_Source\PSoC5/cyfitter_cfg.c **** 		baseAddr &= 0xFFFFFF00u;
 255              		.loc 1 170 0
 256 00ca 20F0FF06 		bic	r6, r0, #255
 257              	.LVL18:
 258              	.LBE57:
 259              	.LBE56:
ARM GAS  C:\Users\CHUCK~1.ERH\AppData\Local\Temp\ccDBgGs7.s 			page 13


 260              	.LBE55:
 261              	.LBB61:
 262              	.LBB54:
 263              	.LBB53:
 322:.\Generated_Source\PSoC5/cyfitter_cfg.c **** void cyfitter_cfg(void)
 264              		.loc 1 322 0
 265 00ce 0023     		movs	r3, #0
 266              	.LVL19:
 267              	.L9:
 268              	.LBE53:
 269              	.LBE54:
 270              	.LBE61:
 271              	.LBB62:
 272              	.LBB60:
 273              	.LBB58:
 171:.\Generated_Source\PSoC5/cyfitter_cfg.c **** 		while (count != 0u)
 274              		.loc 1 171 0
 275 00d0 DCB2     		uxtb	r4, r3
 276 00d2 A542     		cmp	r5, r4
 277 00d4 0CD0     		beq	.L22
 278              	.L10:
 322:.\Generated_Source\PSoC5/cyfitter_cfg.c **** void cyfitter_cfg(void)
 279              		.loc 1 322 0
 280 00d6 07F19044 		add	r4, r7, #1207959552
 281 00da 04F13C0C 		add	ip, r4, #60
 282 00de 3D34     		adds	r4, r4, #61
 173:.\Generated_Source\PSoC5/cyfitter_cfg.c **** 			CY_SET_XTND_REG8((void CYFAR *)(baseAddr + data_table[j].offset), data_table[j].value);
 283              		.loc 1 173 0
 284 00e0 1CF813E0 		ldrb	lr, [ip, r3, lsl #1]	@ zero_extendqisi2
 285 00e4 14F81340 		ldrb	r4, [r4, r3, lsl #1]	@ zero_extendqisi2
 286 00e8 0133     		adds	r3, r3, #1
 287 00ea 0EF80640 		strb	r4, [lr, r6]
 288 00ee EFE7     		b	.L9
 289              	.L22:
 290              	.LBE58:
 166:.\Generated_Source\PSoC5/cyfitter_cfg.c **** 	for (i = 0u; i < CY_CFG_BASE_ADDR_COUNT; i++)
 291              		.loc 1 166 0
 292 00f0 354B     		ldr	r3, .L23+64
 293              	.LBB59:
 322:.\Generated_Source\PSoC5/cyfitter_cfg.c **** void cyfitter_cfg(void)
 294              		.loc 1 322 0
 295 00f2 C0B2     		uxtb	r0, r0
 296              	.LBE59:
 166:.\Generated_Source\PSoC5/cyfitter_cfg.c **** 	for (i = 0u; i < CY_CFG_BASE_ADDR_COUNT; i++)
 297              		.loc 1 166 0
 298 00f4 9A42     		cmp	r2, r3
 299 00f6 0144     		add	r1, r1, r0
 300              	.LVL20:
 301 00f8 E3D1     		bne	.L11
 302              	.LBE60:
 303              	.LBE62:
 377:.\Generated_Source\PSoC5/cyfitter_cfg.c **** 			CYMEMZERO(ms->address, (uint32)(ms->size));
 378:.\Generated_Source\PSoC5/cyfitter_cfg.c **** 		}
 379:.\Generated_Source\PSoC5/cyfitter_cfg.c **** 
 380:.\Generated_Source\PSoC5/cyfitter_cfg.c **** 		/* Copy device configuration data into registers */
 381:.\Generated_Source\PSoC5/cyfitter_cfg.c **** 		for (i = 0u; i < (sizeof(cfg_memcpy_list)/sizeof(cfg_memcpy_list[0])); i++)
 382:.\Generated_Source\PSoC5/cyfitter_cfg.c **** 		{
ARM GAS  C:\Users\CHUCK~1.ERH\AppData\Local\Temp\ccDBgGs7.s 			page 14


 383:.\Generated_Source\PSoC5/cyfitter_cfg.c **** 			const cfg_memcpy_t CYCODE * CYDATA mc = &cfg_memcpy_list[i];
 384:.\Generated_Source\PSoC5/cyfitter_cfg.c **** 			void * CYDATA destPtr = mc->dest;
 385:.\Generated_Source\PSoC5/cyfitter_cfg.c **** 			const void * CYDATA srcPtr = mc->src;
 386:.\Generated_Source\PSoC5/cyfitter_cfg.c **** 			uint16 CYDATA numBytes = mc->size;
 387:.\Generated_Source\PSoC5/cyfitter_cfg.c **** 			CYCONFIGCPY(destPtr, srcPtr, numBytes);
 388:.\Generated_Source\PSoC5/cyfitter_cfg.c **** 		}
 389:.\Generated_Source\PSoC5/cyfitter_cfg.c **** 
 390:.\Generated_Source\PSoC5/cyfitter_cfg.c **** 		cfg_write_bytes32(cy_cfg_addr_table, cy_cfg_data_table);
 391:.\Generated_Source\PSoC5/cyfitter_cfg.c **** 
 392:.\Generated_Source\PSoC5/cyfitter_cfg.c **** 		/* Enable digital routing */
 393:.\Generated_Source\PSoC5/cyfitter_cfg.c **** 		CY_SET_XTND_REG8((void CYFAR *)CYREG_BCTL0_BANK_CTL, CY_GET_XTND_REG8((void CYFAR *)CYREG_BCTL0_B
 304              		.loc 1 393 0
 305 00fa 3448     		ldr	r0, .L23+68
 306 00fc 0278     		ldrb	r2, [r0, #0]	@ zero_extendqisi2
 307 00fe 42F00201 		orr	r1, r2, #2
 308              	.LVL21:
 309 0102 0170     		strb	r1, [r0, #0]
 394:.\Generated_Source\PSoC5/cyfitter_cfg.c **** 		CY_SET_XTND_REG8((void CYFAR *)CYREG_BCTL1_BANK_CTL, CY_GET_XTND_REG8((void CYFAR *)CYREG_BCTL1_B
 310              		.loc 1 394 0
 311 0104 037C     		ldrb	r3, [r0, #16]	@ zero_extendqisi2
 312 0106 43F00202 		orr	r2, r3, #2
 395:.\Generated_Source\PSoC5/cyfitter_cfg.c **** 
 396:.\Generated_Source\PSoC5/cyfitter_cfg.c **** 		/* Enable UDB array */
 397:.\Generated_Source\PSoC5/cyfitter_cfg.c **** 		CY_SET_XTND_REG8((void CYFAR *)CYREG_PM_ACT_CFG0, CY_GET_XTND_REG8((void CYFAR *)CYREG_PM_ACT_CFG
 313              		.loc 1 397 0
 314 010a 314B     		ldr	r3, .L23+72
 394:.\Generated_Source\PSoC5/cyfitter_cfg.c **** 		CY_SET_XTND_REG8((void CYFAR *)CYREG_BCTL1_BANK_CTL, CY_GET_XTND_REG8((void CYFAR *)CYREG_BCTL1_B
 315              		.loc 1 394 0
 316 010c 0274     		strb	r2, [r0, #16]
 317              		.loc 1 397 0
 318 010e 1878     		ldrb	r0, [r3, #0]	@ zero_extendqisi2
 398:.\Generated_Source\PSoC5/cyfitter_cfg.c **** 		CY_SET_XTND_REG8((void CYFAR *)CYREG_PM_AVAIL_CR2, CY_GET_XTND_REG8((void CYFAR *)CYREG_PM_AVAIL_
 319              		.loc 1 398 0
 320 0110 304A     		ldr	r2, .L23+76
 397:.\Generated_Source\PSoC5/cyfitter_cfg.c **** 		CY_SET_XTND_REG8((void CYFAR *)CYREG_PM_ACT_CFG0, CY_GET_XTND_REG8((void CYFAR *)CYREG_PM_ACT_CFG
 321              		.loc 1 397 0
 322 0112 40F04001 		orr	r1, r0, #64
 323 0116 1970     		strb	r1, [r3, #0]
 324              		.loc 1 398 0
 325 0118 1078     		ldrb	r0, [r2, #0]	@ zero_extendqisi2
 326 011a 40F01001 		orr	r1, r0, #16
 327 011e 1170     		strb	r1, [r2, #0]
 328              	.LVL22:
 329              	.LBE46:
 330              	.LBB63:
 331              	.LBB64:
  68:.\Generated_Source\PSoC5/cyfitter_cfg.c **** 	(void)memcpy(dest, src, n);
 332              		.loc 1 68 0
 333 0120 2D49     		ldr	r1, .L23+80
 334 0122 0868     		ldr	r0, [r1, #0]	@ unaligned
 335 0124 C2F8400D 		str	r0, [r2, #3392]	@ unaligned
 336 0128 4968     		ldr	r1, [r1, #4]	@ unaligned
 337 012a C2F8441D 		str	r1, [r2, #3396]	@ unaligned
 338              	.LVL23:
 339              	.LBE64:
 340              	.LBE63:
 341              	.LBB66:
ARM GAS  C:\Users\CHUCK~1.ERH\AppData\Local\Temp\ccDBgGs7.s 			page 15


 342              	.LBB67:
 343 012e 2B49     		ldr	r1, .L23+84
 344 0130 0868     		ldr	r0, [r1, #0]	@ unaligned
 345 0132 C2F8700D 		str	r0, [r2, #3440]	@ unaligned
 346 0136 4968     		ldr	r1, [r1, #4]	@ unaligned
 347 0138 C2F8741D 		str	r1, [r2, #3444]	@ unaligned
 348              	.LVL24:
 349              	.LBE67:
 350              	.LBE66:
 351              	.LBB68:
 352              	.LBB69:
 353 013c 2849     		ldr	r1, .L23+88
 354 013e 0868     		ldr	r0, [r1, #0]	@ unaligned
 355 0140 C2F8900D 		str	r0, [r2, #3472]	@ unaligned
 356 0144 4968     		ldr	r1, [r1, #4]	@ unaligned
 357 0146 C2F8941D 		str	r1, [r2, #3476]	@ unaligned
 358              	.LBE69:
 359              	.LBE68:
 360              	.LBB70:
 361              	.LBB65:
 362 014a 02F55462 		add	r2, r2, #3392
 363              	.LBE65:
 364              	.LBE70:
 399:.\Generated_Source\PSoC5/cyfitter_cfg.c **** 	}
 400:.\Generated_Source\PSoC5/cyfitter_cfg.c **** 
 401:.\Generated_Source\PSoC5/cyfitter_cfg.c **** 	/* Perform second pass device configuration. These items must be configured in specific order afte
 402:.\Generated_Source\PSoC5/cyfitter_cfg.c **** 	CYCONFIGCPY((void CYFAR *)(CYREG_PRT0_DM0), (const void CYFAR *)(BS_IOPINS0_0_VAL), 8u);
 403:.\Generated_Source\PSoC5/cyfitter_cfg.c **** 	CYCONFIGCPY((void CYFAR *)(CYREG_PRT3_DM0), (const void CYFAR *)(BS_IOPINS0_3_VAL), 8u);
 404:.\Generated_Source\PSoC5/cyfitter_cfg.c **** 	CYCONFIGCPY((void CYFAR *)(CYREG_PRT5_DM0), (const void CYFAR *)(BS_IOPINS0_5_VAL), 8u);
 405:.\Generated_Source\PSoC5/cyfitter_cfg.c **** 
 406:.\Generated_Source\PSoC5/cyfitter_cfg.c **** 	/* Switch Boost to the precision bandgap reference from its internal reference */
 407:.\Generated_Source\PSoC5/cyfitter_cfg.c **** 	CY_SET_REG8((void CYXDATA *)CYREG_BOOST_CR2, (CY_GET_REG8((void CYXDATA *)CYREG_BOOST_CR2) | 0x08u
 365              		.loc 1 407 0
 366 014e A2F55E60 		sub	r0, r2, #3552
 367 0152 0178     		ldrb	r1, [r0, #0]	@ zero_extendqisi2
 368 0154 41F00802 		orr	r2, r1, #8
 369 0158 0270     		strb	r2, [r0, #0]
 370              	.LBB71:
 371              	.LBB72:
 264:.\Generated_Source\PSoC5/cyfitter_cfg.c **** 	uint8 bg_xover_inl_trim = CY_GET_XTND_REG8((void CYFAR *)(CYREG_FLSHID_MFG_CFG_BG_XOVER_INL_TRIM +
 372              		.loc 1 264 0
 373 015a 2248     		ldr	r0, .L23+92
 265:.\Generated_Source\PSoC5/cyfitter_cfg.c **** 	CY_SET_XTND_REG8((void CYFAR *)(CYREG_BG_DFT0), (bg_xover_inl_trim & 0x07u));
 374              		.loc 1 265 0
 375 015c 2249     		ldr	r1, .L23+96
 264:.\Generated_Source\PSoC5/cyfitter_cfg.c **** 	uint8 bg_xover_inl_trim = CY_GET_XTND_REG8((void CYFAR *)(CYREG_FLSHID_MFG_CFG_BG_XOVER_INL_TRIM +
 376              		.loc 1 264 0
 377 015e 0278     		ldrb	r2, [r0, #0]	@ zero_extendqisi2
 378              	.LVL25:
 265:.\Generated_Source\PSoC5/cyfitter_cfg.c **** 	CY_SET_XTND_REG8((void CYFAR *)(CYREG_BG_DFT0), (bg_xover_inl_trim & 0x07u));
 379              		.loc 1 265 0
 380 0160 02F00700 		and	r0, r2, #7
 266:.\Generated_Source\PSoC5/cyfitter_cfg.c **** 	CY_SET_XTND_REG8((void CYFAR *)(CYREG_BG_DFT1), ((bg_xover_inl_trim >> 4) & 0x0Fu));
 381              		.loc 1 266 0
 382 0164 1209     		lsrs	r2, r2, #4
 383              	.LVL26:
 265:.\Generated_Source\PSoC5/cyfitter_cfg.c **** 	CY_SET_XTND_REG8((void CYFAR *)(CYREG_BG_DFT0), (bg_xover_inl_trim & 0x07u));
ARM GAS  C:\Users\CHUCK~1.ERH\AppData\Local\Temp\ccDBgGs7.s 			page 16


 384              		.loc 1 265 0
 385 0166 0870     		strb	r0, [r1, #0]
 266:.\Generated_Source\PSoC5/cyfitter_cfg.c **** 	CY_SET_XTND_REG8((void CYFAR *)(CYREG_BG_DFT1), ((bg_xover_inl_trim >> 4) & 0x0Fu));
 386              		.loc 1 266 0
 387 0168 4A70     		strb	r2, [r1, #1]
 267:.\Generated_Source\PSoC5/cyfitter_cfg.c **** 	CY_SET_XTND_REG8((void CYFAR *)CYREG_PUMP_CR0, 0x44u);
 388              		.loc 1 267 0
 389 016a 2049     		ldr	r1, .L23+100
 390 016c 4420     		movs	r0, #68
 391 016e 0870     		strb	r0, [r1, #0]
 392              	.LVL27:
 393              	.LBE72:
 394              	.LBE71:
 395              	.LBB73:
 396              	.LBB74:
  68:.\Generated_Source\PSoC5/cyfitter_cfg.c **** 	(void)memcpy(dest, src, n);
 397              		.loc 1 68 0
 398 0170 1F4A     		ldr	r2, .L23+104
 399 0172 2049     		ldr	r1, .L23+108
 400              	.L12:
 401 0174 53F8040B 		ldr	r0, [r3], #4	@ unaligned
 402 0178 8B42     		cmp	r3, r1
 403 017a 42F8040B 		str	r0, [r2], #4	@ unaligned
 404 017e F9D1     		bne	.L12
 405 0180 1B88     		ldrh	r3, [r3, #0]	@ unaligned
 406 0182 1380     		strh	r3, [r2, #0]	@ unaligned
 407 0184 F8BD     		pop	{r3, r4, r5, r6, r7, pc}
 408              	.L24:
 409 0186 00BF     		.align	2
 410              	.L23:
 411 0188 00480040 		.word	1073760256
 412 018c 80400040 		.word	1073758336
 413 0190 82400040 		.word	1073758338
 414 0194 00430040 		.word	1073758976
 415 0198 08010049 		.word	1224737032
 416 019c A1460040 		.word	1073759905
 417 01a0 22420040 		.word	1073758754
 418 01a4 25420040 		.word	1073758757
 419 01a8 04400040 		.word	1073758212
 420 01ac 06400040 		.word	1073758214
 421 01b0 A2430040 		.word	1073759138
 422 01b4 E8460040 		.word	1073759976
 423 01b8 00000000 		.word	.LANCHOR0
 424 01bc 5C020048 		.word	1207960156
 425 01c0 80160140 		.word	1073813120
 426 01c4 FCFFFF47 		.word	1207959548
 427 01c8 38000048 		.word	1207959608
 428 01cc 03500140 		.word	1073827843
 429 01d0 A0430040 		.word	1073759136
 430 01d4 C2430040 		.word	1073759170
 431 01d8 DC020048 		.word	1207960284
 432 01dc E4020048 		.word	1207960292
 433 01e0 EC020048 		.word	1207960300
 434 01e4 CF010049 		.word	1224737231
 435 01e8 6E580040 		.word	1073764462
 436 01ec 76580040 		.word	1073764470
 437 01f0 B0430040 		.word	1073759152
ARM GAS  C:\Users\CHUCK~1.ERH\AppData\Local\Temp\ccDBgGs7.s 			page 17


 438 01f4 AC430040 		.word	1073759148
 439              	.LBE74:
 440              	.LBE73:
 441              		.cfi_endproc
 442              	.LFE8:
 443              		.size	cyfitter_cfg, .-cyfitter_cfg
 444              		.section	.rodata
 445              		.set	.LANCHOR0,. + 0
 446              		.type	cfg_memset_list.4813, %object
 447              		.size	cfg_memset_list.4813, 66
 448              	cfg_memset_list.4813:
 449 0000 10510040 		.4byte	1073762576
 450 0004 2000     		.2byte	32
 451 0006 40510040 		.4byte	1073762624
 452 000a 1000     		.2byte	16
 453 000c 60510040 		.4byte	1073762656
 454 0010 1000     		.2byte	16
 455 0012 C0510040 		.4byte	1073762752
 456 0016 1000     		.2byte	16
 457 0018 F0510040 		.4byte	1073762800
 458 001c 1000     		.2byte	16
 459 001e 00000140 		.4byte	1073807360
 460 0022 0010     		.2byte	4096
 461 0024 00140140 		.4byte	1073812480
 462 0028 8002     		.2byte	640
 463 002a 00170140 		.4byte	1073813248
 464 002e 0005     		.2byte	1280
 465 0030 00400140 		.4byte	1073823744
 466 0034 000A     		.2byte	2560
 467 0036 004C0140 		.4byte	1073826816
 468 003a 0002     		.2byte	512
 469 003c 00500140 		.4byte	1073827840
 470 0040 2000     		.2byte	32
 471              		.text
 472              	.Letext0:
 473              		.file 2 "c:\\program files (x86)\\cypress\\psoc creator\\3.0\\psoc creator\\import\\gnu_cs\\arm\\4
 474              		.file 3 "./Generated_Source/PSoC5/cytypes.h"
 475              		.file 4 "./Generated_Source/PSoC5/CyLib.h"