ARM GAS  C:\Users\CHUCK~1.ERH\AppData\Local\Temp\ccKGUfiE.s 			page 1


   1              		.syntax unified
   2              		.cpu cortex-m3
   3              		.fpu softvfp
   4              		.eabi_attribute 20, 1
   5              		.eabi_attribute 21, 1
   6              		.eabi_attribute 23, 3
   7              		.eabi_attribute 24, 1
   8              		.eabi_attribute 25, 1
   9              		.eabi_attribute 26, 1
  10              		.eabi_attribute 30, 4
  11              		.eabi_attribute 34, 1
  12              		.eabi_attribute 18, 4
  13              		.thumb
  14              		.file	"SPIM.c"
  15              		.text
  16              	.Ltext0:
  17              		.cfi_sections	.debug_frame
  18              		.section	.text.SPIM_Enable,"ax",%progbits
  19              		.align	1
  20              		.global	SPIM_Enable
  21              		.thumb
  22              		.thumb_func
  23              		.type	SPIM_Enable, %function
  24              	SPIM_Enable:
  25              	.LFB1:
  26              		.file 1 ".\\Generated_Source\\PSoC5\\SPIM.c"
   1:.\Generated_Source\PSoC5/SPIM.c **** /*******************************************************************************
   2:.\Generated_Source\PSoC5/SPIM.c **** * File Name: SPIM.c
   3:.\Generated_Source\PSoC5/SPIM.c **** * Version 2.40
   4:.\Generated_Source\PSoC5/SPIM.c **** *
   5:.\Generated_Source\PSoC5/SPIM.c **** * Description:
   6:.\Generated_Source\PSoC5/SPIM.c **** *  This file provides all API functionality of the SPI Master component.
   7:.\Generated_Source\PSoC5/SPIM.c **** *
   8:.\Generated_Source\PSoC5/SPIM.c **** * Note:
   9:.\Generated_Source\PSoC5/SPIM.c **** *  None.
  10:.\Generated_Source\PSoC5/SPIM.c **** *
  11:.\Generated_Source\PSoC5/SPIM.c **** ********************************************************************************
  12:.\Generated_Source\PSoC5/SPIM.c **** * Copyright 2008-2012, Cypress Semiconductor Corporation.  All rights reserved.
  13:.\Generated_Source\PSoC5/SPIM.c **** * You may use this file only in accordance with the license, terms, conditions,
  14:.\Generated_Source\PSoC5/SPIM.c **** * disclaimers, and limitations in the end user license agreement accompanying
  15:.\Generated_Source\PSoC5/SPIM.c **** * the software package with which this file was provided.
  16:.\Generated_Source\PSoC5/SPIM.c **** *******************************************************************************/
  17:.\Generated_Source\PSoC5/SPIM.c **** 
  18:.\Generated_Source\PSoC5/SPIM.c **** #include "SPIM_PVT.h"
  19:.\Generated_Source\PSoC5/SPIM.c **** 
  20:.\Generated_Source\PSoC5/SPIM.c **** #if(SPIM_TX_SOFTWARE_BUF_ENABLED)
  21:.\Generated_Source\PSoC5/SPIM.c ****     volatile uint8 SPIM_txBuffer[SPIM_TX_BUFFER_SIZE] = {0u};
  22:.\Generated_Source\PSoC5/SPIM.c ****     volatile uint8 SPIM_txBufferFull;
  23:.\Generated_Source\PSoC5/SPIM.c ****     volatile uint8 SPIM_txBufferRead;
  24:.\Generated_Source\PSoC5/SPIM.c ****     volatile uint8 SPIM_txBufferWrite;
  25:.\Generated_Source\PSoC5/SPIM.c **** #endif /* (SPIM_TX_SOFTWARE_BUF_ENABLED) */
  26:.\Generated_Source\PSoC5/SPIM.c **** 
  27:.\Generated_Source\PSoC5/SPIM.c **** #if(SPIM_RX_SOFTWARE_BUF_ENABLED)
  28:.\Generated_Source\PSoC5/SPIM.c ****     volatile uint8 SPIM_rxBuffer[SPIM_RX_BUFFER_SIZE] = {0u};
  29:.\Generated_Source\PSoC5/SPIM.c ****     volatile uint8 SPIM_rxBufferFull;
  30:.\Generated_Source\PSoC5/SPIM.c ****     volatile uint8 SPIM_rxBufferRead;
  31:.\Generated_Source\PSoC5/SPIM.c ****     volatile uint8 SPIM_rxBufferWrite;
ARM GAS  C:\Users\CHUCK~1.ERH\AppData\Local\Temp\ccKGUfiE.s 			page 2


  32:.\Generated_Source\PSoC5/SPIM.c **** #endif /* (SPIM_RX_SOFTWARE_BUF_ENABLED) */
  33:.\Generated_Source\PSoC5/SPIM.c **** 
  34:.\Generated_Source\PSoC5/SPIM.c **** uint8 SPIM_initVar = 0u;
  35:.\Generated_Source\PSoC5/SPIM.c **** 
  36:.\Generated_Source\PSoC5/SPIM.c **** volatile uint8 SPIM_swStatusTx;
  37:.\Generated_Source\PSoC5/SPIM.c **** volatile uint8 SPIM_swStatusRx;
  38:.\Generated_Source\PSoC5/SPIM.c **** 
  39:.\Generated_Source\PSoC5/SPIM.c **** 
  40:.\Generated_Source\PSoC5/SPIM.c **** /*******************************************************************************
  41:.\Generated_Source\PSoC5/SPIM.c **** * Function Name: SPIM_Init
  42:.\Generated_Source\PSoC5/SPIM.c **** ********************************************************************************
  43:.\Generated_Source\PSoC5/SPIM.c **** *
  44:.\Generated_Source\PSoC5/SPIM.c **** * Summary:
  45:.\Generated_Source\PSoC5/SPIM.c **** *  Inits/Restores default SPIM configuration provided with customizer.
  46:.\Generated_Source\PSoC5/SPIM.c **** *
  47:.\Generated_Source\PSoC5/SPIM.c **** * Parameters:
  48:.\Generated_Source\PSoC5/SPIM.c **** *  None.
  49:.\Generated_Source\PSoC5/SPIM.c **** *
  50:.\Generated_Source\PSoC5/SPIM.c **** * Return:
  51:.\Generated_Source\PSoC5/SPIM.c **** *  None.
  52:.\Generated_Source\PSoC5/SPIM.c **** *
  53:.\Generated_Source\PSoC5/SPIM.c **** * Side Effects:
  54:.\Generated_Source\PSoC5/SPIM.c **** *  When this function is called it initializes all of the necessary parameters
  55:.\Generated_Source\PSoC5/SPIM.c **** *  for execution. i.e. setting the initial interrupt mask, configuring the
  56:.\Generated_Source\PSoC5/SPIM.c **** *  interrupt service routine, configuring the bit-counter parameters and
  57:.\Generated_Source\PSoC5/SPIM.c **** *  clearing the FIFO and Status Register.
  58:.\Generated_Source\PSoC5/SPIM.c **** *
  59:.\Generated_Source\PSoC5/SPIM.c **** * Reentrant:
  60:.\Generated_Source\PSoC5/SPIM.c **** *  No.
  61:.\Generated_Source\PSoC5/SPIM.c **** *
  62:.\Generated_Source\PSoC5/SPIM.c **** *******************************************************************************/
  63:.\Generated_Source\PSoC5/SPIM.c **** void SPIM_Init(void) 
  64:.\Generated_Source\PSoC5/SPIM.c **** {
  65:.\Generated_Source\PSoC5/SPIM.c ****     /* Initialize the Bit counter */
  66:.\Generated_Source\PSoC5/SPIM.c ****     SPIM_COUNTER_PERIOD_REG = SPIM_BITCTR_INIT;
  67:.\Generated_Source\PSoC5/SPIM.c **** 
  68:.\Generated_Source\PSoC5/SPIM.c ****     /* Init TX ISR  */
  69:.\Generated_Source\PSoC5/SPIM.c ****     #if(0u != SPIM_INTERNAL_TX_INT_ENABLED)
  70:.\Generated_Source\PSoC5/SPIM.c ****         CyIntDisable         (SPIM_TX_ISR_NUMBER);
  71:.\Generated_Source\PSoC5/SPIM.c ****         CyIntSetPriority     (SPIM_TX_ISR_NUMBER,  SPIM_TX_ISR_PRIORITY);
  72:.\Generated_Source\PSoC5/SPIM.c ****         (void) CyIntSetVector(SPIM_TX_ISR_NUMBER, &SPIM_TX_ISR);
  73:.\Generated_Source\PSoC5/SPIM.c ****     #endif /* (0u != SPIM_INTERNAL_TX_INT_ENABLED) */
  74:.\Generated_Source\PSoC5/SPIM.c **** 
  75:.\Generated_Source\PSoC5/SPIM.c ****     /* Init RX ISR  */
  76:.\Generated_Source\PSoC5/SPIM.c ****     #if(0u != SPIM_INTERNAL_RX_INT_ENABLED)
  77:.\Generated_Source\PSoC5/SPIM.c ****         CyIntDisable         (SPIM_RX_ISR_NUMBER);
  78:.\Generated_Source\PSoC5/SPIM.c ****         CyIntSetPriority     (SPIM_RX_ISR_NUMBER,  SPIM_RX_ISR_PRIORITY);
  79:.\Generated_Source\PSoC5/SPIM.c ****         (void) CyIntSetVector(SPIM_RX_ISR_NUMBER, &SPIM_RX_ISR);
  80:.\Generated_Source\PSoC5/SPIM.c ****     #endif /* (0u != SPIM_INTERNAL_RX_INT_ENABLED) */
  81:.\Generated_Source\PSoC5/SPIM.c **** 
  82:.\Generated_Source\PSoC5/SPIM.c ****     /* Clear any stray data from the RX and TX FIFO */
  83:.\Generated_Source\PSoC5/SPIM.c ****     SPIM_ClearFIFO();
  84:.\Generated_Source\PSoC5/SPIM.c **** 
  85:.\Generated_Source\PSoC5/SPIM.c ****     #if(SPIM_RX_SOFTWARE_BUF_ENABLED)
  86:.\Generated_Source\PSoC5/SPIM.c ****         SPIM_rxBufferFull  = 0u;
  87:.\Generated_Source\PSoC5/SPIM.c ****         SPIM_rxBufferRead  = 0u;
  88:.\Generated_Source\PSoC5/SPIM.c ****         SPIM_rxBufferWrite = 0u;
ARM GAS  C:\Users\CHUCK~1.ERH\AppData\Local\Temp\ccKGUfiE.s 			page 3


  89:.\Generated_Source\PSoC5/SPIM.c ****     #endif /* (SPIM_RX_SOFTWARE_BUF_ENABLED) */
  90:.\Generated_Source\PSoC5/SPIM.c **** 
  91:.\Generated_Source\PSoC5/SPIM.c ****     #if(SPIM_TX_SOFTWARE_BUF_ENABLED)
  92:.\Generated_Source\PSoC5/SPIM.c ****         SPIM_txBufferFull  = 0u;
  93:.\Generated_Source\PSoC5/SPIM.c ****         SPIM_txBufferRead  = 0u;
  94:.\Generated_Source\PSoC5/SPIM.c ****         SPIM_txBufferWrite = 0u;
  95:.\Generated_Source\PSoC5/SPIM.c ****     #endif /* (SPIM_TX_SOFTWARE_BUF_ENABLED) */
  96:.\Generated_Source\PSoC5/SPIM.c **** 
  97:.\Generated_Source\PSoC5/SPIM.c ****     (void) SPIM_ReadTxStatus(); /* Clear Tx status and swStatusTx */
  98:.\Generated_Source\PSoC5/SPIM.c ****     (void) SPIM_ReadRxStatus(); /* Clear Rx status and swStatusRx */
  99:.\Generated_Source\PSoC5/SPIM.c **** 
 100:.\Generated_Source\PSoC5/SPIM.c ****     /* Configure TX and RX interrupt mask */
 101:.\Generated_Source\PSoC5/SPIM.c ****     SPIM_TX_STATUS_MASK_REG = SPIM_TX_INIT_INTERRUPTS_MASK;
 102:.\Generated_Source\PSoC5/SPIM.c ****     SPIM_RX_STATUS_MASK_REG = SPIM_RX_INIT_INTERRUPTS_MASK;
 103:.\Generated_Source\PSoC5/SPIM.c **** }
 104:.\Generated_Source\PSoC5/SPIM.c **** 
 105:.\Generated_Source\PSoC5/SPIM.c **** 
 106:.\Generated_Source\PSoC5/SPIM.c **** /*******************************************************************************
 107:.\Generated_Source\PSoC5/SPIM.c **** * Function Name: SPIM_Enable
 108:.\Generated_Source\PSoC5/SPIM.c **** ********************************************************************************
 109:.\Generated_Source\PSoC5/SPIM.c **** *
 110:.\Generated_Source\PSoC5/SPIM.c **** * Summary:
 111:.\Generated_Source\PSoC5/SPIM.c **** *  Enable SPIM component.
 112:.\Generated_Source\PSoC5/SPIM.c **** *
 113:.\Generated_Source\PSoC5/SPIM.c **** * Parameters:
 114:.\Generated_Source\PSoC5/SPIM.c **** *  None.
 115:.\Generated_Source\PSoC5/SPIM.c **** *
 116:.\Generated_Source\PSoC5/SPIM.c **** * Return:
 117:.\Generated_Source\PSoC5/SPIM.c **** *  None.
 118:.\Generated_Source\PSoC5/SPIM.c **** *
 119:.\Generated_Source\PSoC5/SPIM.c **** *******************************************************************************/
 120:.\Generated_Source\PSoC5/SPIM.c **** void SPIM_Enable(void) 
 121:.\Generated_Source\PSoC5/SPIM.c **** {
  27              		.loc 1 121 0
  28              		.cfi_startproc
  29              		@ args = 0, pretend = 0, frame = 0
  30              		@ frame_needed = 0, uses_anonymous_args = 0
  31 0000 08B5     		push	{r3, lr}
  32              	.LCFI0:
  33              		.cfi_def_cfa_offset 8
  34              		.cfi_offset 3, -8
  35              		.cfi_offset 14, -4
 122:.\Generated_Source\PSoC5/SPIM.c ****     uint8 enableInterrupts;
 123:.\Generated_Source\PSoC5/SPIM.c **** 
 124:.\Generated_Source\PSoC5/SPIM.c ****     enableInterrupts = CyEnterCriticalSection();
  36              		.loc 1 124 0
  37 0002 FFF7FEFF 		bl	CyEnterCriticalSection
  38              	.LVL0:
 125:.\Generated_Source\PSoC5/SPIM.c ****     SPIM_COUNTER_CONTROL_REG |= SPIM_CNTR_ENABLE;
  39              		.loc 1 125 0
  40 0006 0B4B     		ldr	r3, .L2
  41 0008 1A78     		ldrb	r2, [r3, #0]	@ zero_extendqisi2
  42 000a 42F02001 		orr	r1, r2, #32
  43 000e 1970     		strb	r1, [r3, #0]
 126:.\Generated_Source\PSoC5/SPIM.c ****     SPIM_TX_STATUS_ACTL_REG  |= SPIM_INT_ENABLE;
  44              		.loc 1 126 0
  45 0010 A3F58073 		sub	r3, r3, #256
ARM GAS  C:\Users\CHUCK~1.ERH\AppData\Local\Temp\ccKGUfiE.s 			page 4


  46 0014 1A78     		ldrb	r2, [r3, #0]	@ zero_extendqisi2
  47 0016 42F01001 		orr	r1, r2, #16
  48 001a 1970     		strb	r1, [r3, #0]
 127:.\Generated_Source\PSoC5/SPIM.c ****     SPIM_RX_STATUS_ACTL_REG  |= SPIM_INT_ENABLE;
  49              		.loc 1 127 0
  50 001c 93F8FD20 		ldrb	r2, [r3, #253]	@ zero_extendqisi2
  51 0020 42F01001 		orr	r1, r2, #16
  52 0024 83F8FD10 		strb	r1, [r3, #253]
 128:.\Generated_Source\PSoC5/SPIM.c ****     CyExitCriticalSection(enableInterrupts);
  53              		.loc 1 128 0
  54 0028 FFF7FEFF 		bl	CyExitCriticalSection
  55              	.LVL1:
 129:.\Generated_Source\PSoC5/SPIM.c **** 
 130:.\Generated_Source\PSoC5/SPIM.c ****     #if(0u != SPIM_INTERNAL_CLOCK)
 131:.\Generated_Source\PSoC5/SPIM.c ****         SPIM_IntClock_Enable();
 132:.\Generated_Source\PSoC5/SPIM.c ****     #endif /* (0u != SPIM_INTERNAL_CLOCK) */
 133:.\Generated_Source\PSoC5/SPIM.c **** 
 134:.\Generated_Source\PSoC5/SPIM.c ****     SPIM_EnableTxInt();
 135:.\Generated_Source\PSoC5/SPIM.c ****     SPIM_EnableRxInt();
 136:.\Generated_Source\PSoC5/SPIM.c **** }
  56              		.loc 1 136 0
  57 002c BDE80840 		pop	{r3, lr}
 131:.\Generated_Source\PSoC5/SPIM.c ****         SPIM_IntClock_Enable();
  58              		.loc 1 131 0
  59 0030 FFF7FEBF 		b	SPIM_IntClock_Start
  60              	.LVL2:
  61              	.L3:
  62              		.align	2
  63              	.L2:
  64 0034 97650040 		.word	1073767831
  65              		.cfi_endproc
  66              	.LFE1:
  67              		.size	SPIM_Enable, .-SPIM_Enable
  68              		.section	.text.SPIM_Stop,"ax",%progbits
  69              		.align	1
  70              		.global	SPIM_Stop
  71              		.thumb
  72              		.thumb_func
  73              		.type	SPIM_Stop, %function
  74              	SPIM_Stop:
  75              	.LFB3:
 137:.\Generated_Source\PSoC5/SPIM.c **** 
 138:.\Generated_Source\PSoC5/SPIM.c **** 
 139:.\Generated_Source\PSoC5/SPIM.c **** /*******************************************************************************
 140:.\Generated_Source\PSoC5/SPIM.c **** * Function Name: SPIM_Start
 141:.\Generated_Source\PSoC5/SPIM.c **** ********************************************************************************
 142:.\Generated_Source\PSoC5/SPIM.c **** *
 143:.\Generated_Source\PSoC5/SPIM.c **** * Summary:
 144:.\Generated_Source\PSoC5/SPIM.c **** *  Initialize and Enable the SPI Master component.
 145:.\Generated_Source\PSoC5/SPIM.c **** *
 146:.\Generated_Source\PSoC5/SPIM.c **** * Parameters:
 147:.\Generated_Source\PSoC5/SPIM.c **** *  None.
 148:.\Generated_Source\PSoC5/SPIM.c **** *
 149:.\Generated_Source\PSoC5/SPIM.c **** * Return:
 150:.\Generated_Source\PSoC5/SPIM.c **** *  None.
 151:.\Generated_Source\PSoC5/SPIM.c **** *
 152:.\Generated_Source\PSoC5/SPIM.c **** * Global variables:
ARM GAS  C:\Users\CHUCK~1.ERH\AppData\Local\Temp\ccKGUfiE.s 			page 5


 153:.\Generated_Source\PSoC5/SPIM.c **** *  SPIM_initVar - used to check initial configuration, modified on
 154:.\Generated_Source\PSoC5/SPIM.c **** *  first function call.
 155:.\Generated_Source\PSoC5/SPIM.c **** *
 156:.\Generated_Source\PSoC5/SPIM.c **** * Theory:
 157:.\Generated_Source\PSoC5/SPIM.c **** *  Enable the clock input to enable operation.
 158:.\Generated_Source\PSoC5/SPIM.c **** *
 159:.\Generated_Source\PSoC5/SPIM.c **** * Reentrant:
 160:.\Generated_Source\PSoC5/SPIM.c **** *  No.
 161:.\Generated_Source\PSoC5/SPIM.c **** *
 162:.\Generated_Source\PSoC5/SPIM.c **** *******************************************************************************/
 163:.\Generated_Source\PSoC5/SPIM.c **** void SPIM_Start(void) 
 164:.\Generated_Source\PSoC5/SPIM.c **** {
 165:.\Generated_Source\PSoC5/SPIM.c ****     if(0u == SPIM_initVar)
 166:.\Generated_Source\PSoC5/SPIM.c ****     {
 167:.\Generated_Source\PSoC5/SPIM.c ****         SPIM_Init();
 168:.\Generated_Source\PSoC5/SPIM.c ****         SPIM_initVar = 1u;
 169:.\Generated_Source\PSoC5/SPIM.c ****     }
 170:.\Generated_Source\PSoC5/SPIM.c **** 
 171:.\Generated_Source\PSoC5/SPIM.c ****     SPIM_Enable();
 172:.\Generated_Source\PSoC5/SPIM.c **** }
 173:.\Generated_Source\PSoC5/SPIM.c **** 
 174:.\Generated_Source\PSoC5/SPIM.c **** 
 175:.\Generated_Source\PSoC5/SPIM.c **** /*******************************************************************************
 176:.\Generated_Source\PSoC5/SPIM.c **** * Function Name: SPIM_Stop
 177:.\Generated_Source\PSoC5/SPIM.c **** ********************************************************************************
 178:.\Generated_Source\PSoC5/SPIM.c **** *
 179:.\Generated_Source\PSoC5/SPIM.c **** * Summary:
 180:.\Generated_Source\PSoC5/SPIM.c **** *  Disable the SPI Master component.
 181:.\Generated_Source\PSoC5/SPIM.c **** *
 182:.\Generated_Source\PSoC5/SPIM.c **** * Parameters:
 183:.\Generated_Source\PSoC5/SPIM.c **** *  None.
 184:.\Generated_Source\PSoC5/SPIM.c **** *
 185:.\Generated_Source\PSoC5/SPIM.c **** * Return:
 186:.\Generated_Source\PSoC5/SPIM.c **** *  None.
 187:.\Generated_Source\PSoC5/SPIM.c **** *
 188:.\Generated_Source\PSoC5/SPIM.c **** * Theory:
 189:.\Generated_Source\PSoC5/SPIM.c **** *  Disable the clock input to enable operation.
 190:.\Generated_Source\PSoC5/SPIM.c **** *
 191:.\Generated_Source\PSoC5/SPIM.c **** *******************************************************************************/
 192:.\Generated_Source\PSoC5/SPIM.c **** void SPIM_Stop(void) 
 193:.\Generated_Source\PSoC5/SPIM.c **** {
  76              		.loc 1 193 0
  77              		.cfi_startproc
  78              		@ args = 0, pretend = 0, frame = 0
  79              		@ frame_needed = 0, uses_anonymous_args = 0
  80 0000 08B5     		push	{r3, lr}
  81              	.LCFI1:
  82              		.cfi_def_cfa_offset 8
  83              		.cfi_offset 3, -8
  84              		.cfi_offset 14, -4
 194:.\Generated_Source\PSoC5/SPIM.c ****     uint8 enableInterrupts;
 195:.\Generated_Source\PSoC5/SPIM.c **** 
 196:.\Generated_Source\PSoC5/SPIM.c ****     enableInterrupts = CyEnterCriticalSection();
  85              		.loc 1 196 0
  86 0002 FFF7FEFF 		bl	CyEnterCriticalSection
  87              	.LVL3:
 197:.\Generated_Source\PSoC5/SPIM.c ****     SPIM_TX_STATUS_ACTL_REG &= ((uint8) ~SPIM_INT_ENABLE);
ARM GAS  C:\Users\CHUCK~1.ERH\AppData\Local\Temp\ccKGUfiE.s 			page 6


  88              		.loc 1 197 0
  89 0006 084B     		ldr	r3, .L5
  90 0008 1A78     		ldrb	r2, [r3, #0]	@ zero_extendqisi2
  91 000a 02F0EF01 		and	r1, r2, #239
  92 000e 1970     		strb	r1, [r3, #0]
 198:.\Generated_Source\PSoC5/SPIM.c ****     SPIM_RX_STATUS_ACTL_REG &= ((uint8) ~SPIM_INT_ENABLE);
  93              		.loc 1 198 0
  94 0010 93F8FD20 		ldrb	r2, [r3, #253]	@ zero_extendqisi2
  95 0014 02F0EF01 		and	r1, r2, #239
  96 0018 83F8FD10 		strb	r1, [r3, #253]
 199:.\Generated_Source\PSoC5/SPIM.c ****     CyExitCriticalSection(enableInterrupts);
  97              		.loc 1 199 0
  98 001c FFF7FEFF 		bl	CyExitCriticalSection
  99              	.LVL4:
 200:.\Generated_Source\PSoC5/SPIM.c **** 
 201:.\Generated_Source\PSoC5/SPIM.c ****     #if(0u != SPIM_INTERNAL_CLOCK)
 202:.\Generated_Source\PSoC5/SPIM.c ****         SPIM_IntClock_Disable();
 203:.\Generated_Source\PSoC5/SPIM.c ****     #endif /* (0u != SPIM_INTERNAL_CLOCK) */
 204:.\Generated_Source\PSoC5/SPIM.c **** 
 205:.\Generated_Source\PSoC5/SPIM.c ****     SPIM_DisableTxInt();
 206:.\Generated_Source\PSoC5/SPIM.c ****     SPIM_DisableRxInt();
 207:.\Generated_Source\PSoC5/SPIM.c **** }
 100              		.loc 1 207 0
 101 0020 BDE80840 		pop	{r3, lr}
 202:.\Generated_Source\PSoC5/SPIM.c ****         SPIM_IntClock_Disable();
 102              		.loc 1 202 0
 103 0024 FFF7FEBF 		b	SPIM_IntClock_Stop
 104              	.LVL5:
 105              	.L6:
 106              		.align	2
 107              	.L5:
 108 0028 97640040 		.word	1073767575
 109              		.cfi_endproc
 110              	.LFE3:
 111              		.size	SPIM_Stop, .-SPIM_Stop
 112              		.section	.text.SPIM_EnableTxInt,"ax",%progbits
 113              		.align	1
 114              		.global	SPIM_EnableTxInt
 115              		.thumb
 116              		.thumb_func
 117              		.type	SPIM_EnableTxInt, %function
 118              	SPIM_EnableTxInt:
 119              	.LFB4:
 208:.\Generated_Source\PSoC5/SPIM.c **** 
 209:.\Generated_Source\PSoC5/SPIM.c **** 
 210:.\Generated_Source\PSoC5/SPIM.c **** /*******************************************************************************
 211:.\Generated_Source\PSoC5/SPIM.c **** * Function Name: SPIM_EnableTxInt
 212:.\Generated_Source\PSoC5/SPIM.c **** ********************************************************************************
 213:.\Generated_Source\PSoC5/SPIM.c **** *
 214:.\Generated_Source\PSoC5/SPIM.c **** * Summary:
 215:.\Generated_Source\PSoC5/SPIM.c **** *  Enable internal Tx interrupt generation.
 216:.\Generated_Source\PSoC5/SPIM.c **** *
 217:.\Generated_Source\PSoC5/SPIM.c **** * Parameters:
 218:.\Generated_Source\PSoC5/SPIM.c **** *  None.
 219:.\Generated_Source\PSoC5/SPIM.c **** *
 220:.\Generated_Source\PSoC5/SPIM.c **** * Return:
 221:.\Generated_Source\PSoC5/SPIM.c **** *  None.
ARM GAS  C:\Users\CHUCK~1.ERH\AppData\Local\Temp\ccKGUfiE.s 			page 7


 222:.\Generated_Source\PSoC5/SPIM.c **** *
 223:.\Generated_Source\PSoC5/SPIM.c **** * Theory:
 224:.\Generated_Source\PSoC5/SPIM.c **** *  Enable the internal Tx interrupt output -or- the interrupt component itself.
 225:.\Generated_Source\PSoC5/SPIM.c **** *
 226:.\Generated_Source\PSoC5/SPIM.c **** *******************************************************************************/
 227:.\Generated_Source\PSoC5/SPIM.c **** void SPIM_EnableTxInt(void) 
 228:.\Generated_Source\PSoC5/SPIM.c **** {
 120              		.loc 1 228 0
 121              		.cfi_startproc
 122              		@ args = 0, pretend = 0, frame = 0
 123              		@ frame_needed = 0, uses_anonymous_args = 0
 124              		@ link register save eliminated.
 125 0000 7047     		bx	lr
 126              		.cfi_endproc
 127              	.LFE4:
 128              		.size	SPIM_EnableTxInt, .-SPIM_EnableTxInt
 129              		.section	.text.SPIM_EnableRxInt,"ax",%progbits
 130              		.align	1
 131              		.global	SPIM_EnableRxInt
 132              		.thumb
 133              		.thumb_func
 134              		.type	SPIM_EnableRxInt, %function
 135              	SPIM_EnableRxInt:
 136              	.LFB5:
 229:.\Generated_Source\PSoC5/SPIM.c ****     #if(0u != SPIM_INTERNAL_TX_INT_ENABLED)
 230:.\Generated_Source\PSoC5/SPIM.c ****         CyIntEnable(SPIM_TX_ISR_NUMBER);
 231:.\Generated_Source\PSoC5/SPIM.c ****     #endif /* (0u != SPIM_INTERNAL_TX_INT_ENABLED) */
 232:.\Generated_Source\PSoC5/SPIM.c **** }
 233:.\Generated_Source\PSoC5/SPIM.c **** 
 234:.\Generated_Source\PSoC5/SPIM.c **** 
 235:.\Generated_Source\PSoC5/SPIM.c **** /*******************************************************************************
 236:.\Generated_Source\PSoC5/SPIM.c **** * Function Name: SPIM_EnableRxInt
 237:.\Generated_Source\PSoC5/SPIM.c **** ********************************************************************************
 238:.\Generated_Source\PSoC5/SPIM.c **** *
 239:.\Generated_Source\PSoC5/SPIM.c **** * Summary:
 240:.\Generated_Source\PSoC5/SPIM.c **** *  Enable internal Rx interrupt generation.
 241:.\Generated_Source\PSoC5/SPIM.c **** *
 242:.\Generated_Source\PSoC5/SPIM.c **** * Parameters:
 243:.\Generated_Source\PSoC5/SPIM.c **** *  None.
 244:.\Generated_Source\PSoC5/SPIM.c **** *
 245:.\Generated_Source\PSoC5/SPIM.c **** * Return:
 246:.\Generated_Source\PSoC5/SPIM.c **** *  None.
 247:.\Generated_Source\PSoC5/SPIM.c **** *
 248:.\Generated_Source\PSoC5/SPIM.c **** * Theory:
 249:.\Generated_Source\PSoC5/SPIM.c **** *  Enable the internal Rx interrupt output -or- the interrupt component itself.
 250:.\Generated_Source\PSoC5/SPIM.c **** *
 251:.\Generated_Source\PSoC5/SPIM.c **** *******************************************************************************/
 252:.\Generated_Source\PSoC5/SPIM.c **** void SPIM_EnableRxInt(void) 
 253:.\Generated_Source\PSoC5/SPIM.c **** {
 137              		.loc 1 253 0
 138              		.cfi_startproc
 139              		@ args = 0, pretend = 0, frame = 0
 140              		@ frame_needed = 0, uses_anonymous_args = 0
 141              		@ link register save eliminated.
 142 0000 7047     		bx	lr
 143              		.cfi_endproc
 144              	.LFE5:
ARM GAS  C:\Users\CHUCK~1.ERH\AppData\Local\Temp\ccKGUfiE.s 			page 8


 145              		.size	SPIM_EnableRxInt, .-SPIM_EnableRxInt
 146              		.section	.text.SPIM_DisableTxInt,"ax",%progbits
 147              		.align	1
 148              		.global	SPIM_DisableTxInt
 149              		.thumb
 150              		.thumb_func
 151              		.type	SPIM_DisableTxInt, %function
 152              	SPIM_DisableTxInt:
 153              	.LFB6:
 254:.\Generated_Source\PSoC5/SPIM.c ****     #if(0u != SPIM_INTERNAL_RX_INT_ENABLED)
 255:.\Generated_Source\PSoC5/SPIM.c ****         CyIntEnable(SPIM_RX_ISR_NUMBER);
 256:.\Generated_Source\PSoC5/SPIM.c ****     #endif /* (0u != SPIM_INTERNAL_RX_INT_ENABLED) */
 257:.\Generated_Source\PSoC5/SPIM.c **** }
 258:.\Generated_Source\PSoC5/SPIM.c **** 
 259:.\Generated_Source\PSoC5/SPIM.c **** 
 260:.\Generated_Source\PSoC5/SPIM.c **** /*******************************************************************************
 261:.\Generated_Source\PSoC5/SPIM.c **** * Function Name: SPIM_DisableTxInt
 262:.\Generated_Source\PSoC5/SPIM.c **** ********************************************************************************
 263:.\Generated_Source\PSoC5/SPIM.c **** *
 264:.\Generated_Source\PSoC5/SPIM.c **** * Summary:
 265:.\Generated_Source\PSoC5/SPIM.c **** *  Disable internal Tx interrupt generation.
 266:.\Generated_Source\PSoC5/SPIM.c **** *
 267:.\Generated_Source\PSoC5/SPIM.c **** * Parameters:
 268:.\Generated_Source\PSoC5/SPIM.c **** *  None.
 269:.\Generated_Source\PSoC5/SPIM.c **** *
 270:.\Generated_Source\PSoC5/SPIM.c **** * Return:
 271:.\Generated_Source\PSoC5/SPIM.c **** *  None.
 272:.\Generated_Source\PSoC5/SPIM.c **** *
 273:.\Generated_Source\PSoC5/SPIM.c **** * Theory:
 274:.\Generated_Source\PSoC5/SPIM.c **** *  Disable the internal Tx interrupt output -or- the interrupt component itself.
 275:.\Generated_Source\PSoC5/SPIM.c **** *
 276:.\Generated_Source\PSoC5/SPIM.c **** *******************************************************************************/
 277:.\Generated_Source\PSoC5/SPIM.c **** void SPIM_DisableTxInt(void) 
 278:.\Generated_Source\PSoC5/SPIM.c **** {
 154              		.loc 1 278 0
 155              		.cfi_startproc
 156              		@ args = 0, pretend = 0, frame = 0
 157              		@ frame_needed = 0, uses_anonymous_args = 0
 158              		@ link register save eliminated.
 159 0000 7047     		bx	lr
 160              		.cfi_endproc
 161              	.LFE6:
 162              		.size	SPIM_DisableTxInt, .-SPIM_DisableTxInt
 163              		.section	.text.SPIM_DisableRxInt,"ax",%progbits
 164              		.align	1
 165              		.global	SPIM_DisableRxInt
 166              		.thumb
 167              		.thumb_func
 168              		.type	SPIM_DisableRxInt, %function
 169              	SPIM_DisableRxInt:
 170              	.LFB7:
 279:.\Generated_Source\PSoC5/SPIM.c ****     #if(0u != SPIM_INTERNAL_TX_INT_ENABLED)
 280:.\Generated_Source\PSoC5/SPIM.c ****         CyIntDisable(SPIM_TX_ISR_NUMBER);
 281:.\Generated_Source\PSoC5/SPIM.c ****     #endif /* (0u != SPIM_INTERNAL_TX_INT_ENABLED) */
 282:.\Generated_Source\PSoC5/SPIM.c **** }
 283:.\Generated_Source\PSoC5/SPIM.c **** 
 284:.\Generated_Source\PSoC5/SPIM.c **** 
ARM GAS  C:\Users\CHUCK~1.ERH\AppData\Local\Temp\ccKGUfiE.s 			page 9


 285:.\Generated_Source\PSoC5/SPIM.c **** /*******************************************************************************
 286:.\Generated_Source\PSoC5/SPIM.c **** * Function Name: SPIM_DisableRxInt
 287:.\Generated_Source\PSoC5/SPIM.c **** ********************************************************************************
 288:.\Generated_Source\PSoC5/SPIM.c **** *
 289:.\Generated_Source\PSoC5/SPIM.c **** * Summary:
 290:.\Generated_Source\PSoC5/SPIM.c **** *  Disable internal Rx interrupt generation.
 291:.\Generated_Source\PSoC5/SPIM.c **** *
 292:.\Generated_Source\PSoC5/SPIM.c **** * Parameters:
 293:.\Generated_Source\PSoC5/SPIM.c **** *  None.
 294:.\Generated_Source\PSoC5/SPIM.c **** *
 295:.\Generated_Source\PSoC5/SPIM.c **** * Return:
 296:.\Generated_Source\PSoC5/SPIM.c **** *  None.
 297:.\Generated_Source\PSoC5/SPIM.c **** *
 298:.\Generated_Source\PSoC5/SPIM.c **** * Theory:
 299:.\Generated_Source\PSoC5/SPIM.c **** *  Disable the internal Rx interrupt output -or- the interrupt component itself.
 300:.\Generated_Source\PSoC5/SPIM.c **** *
 301:.\Generated_Source\PSoC5/SPIM.c **** *******************************************************************************/
 302:.\Generated_Source\PSoC5/SPIM.c **** void SPIM_DisableRxInt(void) 
 303:.\Generated_Source\PSoC5/SPIM.c **** {
 171              		.loc 1 303 0
 172              		.cfi_startproc
 173              		@ args = 0, pretend = 0, frame = 0
 174              		@ frame_needed = 0, uses_anonymous_args = 0
 175              		@ link register save eliminated.
 176 0000 7047     		bx	lr
 177              		.cfi_endproc
 178              	.LFE7:
 179              		.size	SPIM_DisableRxInt, .-SPIM_DisableRxInt
 180              		.section	.text.SPIM_SetTxInterruptMode,"ax",%progbits
 181              		.align	1
 182              		.global	SPIM_SetTxInterruptMode
 183              		.thumb
 184              		.thumb_func
 185              		.type	SPIM_SetTxInterruptMode, %function
 186              	SPIM_SetTxInterruptMode:
 187              	.LFB8:
 304:.\Generated_Source\PSoC5/SPIM.c ****     #if(0u != SPIM_INTERNAL_RX_INT_ENABLED)
 305:.\Generated_Source\PSoC5/SPIM.c ****         CyIntDisable(SPIM_RX_ISR_NUMBER);
 306:.\Generated_Source\PSoC5/SPIM.c ****     #endif /* (0u != SPIM_INTERNAL_RX_INT_ENABLED) */
 307:.\Generated_Source\PSoC5/SPIM.c **** }
 308:.\Generated_Source\PSoC5/SPIM.c **** 
 309:.\Generated_Source\PSoC5/SPIM.c **** 
 310:.\Generated_Source\PSoC5/SPIM.c **** /*******************************************************************************
 311:.\Generated_Source\PSoC5/SPIM.c **** * Function Name: SPIM_SetTxInterruptMode
 312:.\Generated_Source\PSoC5/SPIM.c **** ********************************************************************************
 313:.\Generated_Source\PSoC5/SPIM.c **** *
 314:.\Generated_Source\PSoC5/SPIM.c **** * Summary:
 315:.\Generated_Source\PSoC5/SPIM.c **** *  Configure which status bits trigger an interrupt event.
 316:.\Generated_Source\PSoC5/SPIM.c **** *
 317:.\Generated_Source\PSoC5/SPIM.c **** * Parameters:
 318:.\Generated_Source\PSoC5/SPIM.c **** *  intSrc: An or'd combination of the desired status bit masks (defined in the
 319:.\Generated_Source\PSoC5/SPIM.c **** *  header file).
 320:.\Generated_Source\PSoC5/SPIM.c **** *
 321:.\Generated_Source\PSoC5/SPIM.c **** * Return:
 322:.\Generated_Source\PSoC5/SPIM.c **** *  None.
 323:.\Generated_Source\PSoC5/SPIM.c **** *
 324:.\Generated_Source\PSoC5/SPIM.c **** * Theory:
ARM GAS  C:\Users\CHUCK~1.ERH\AppData\Local\Temp\ccKGUfiE.s 			page 10


 325:.\Generated_Source\PSoC5/SPIM.c **** *  Enables the output of specific status bits to the interrupt controller.
 326:.\Generated_Source\PSoC5/SPIM.c **** *
 327:.\Generated_Source\PSoC5/SPIM.c **** *******************************************************************************/
 328:.\Generated_Source\PSoC5/SPIM.c **** void SPIM_SetTxInterruptMode(uint8 intSrc) 
 329:.\Generated_Source\PSoC5/SPIM.c **** {
 188              		.loc 1 329 0
 189              		.cfi_startproc
 190              		@ args = 0, pretend = 0, frame = 0
 191              		@ frame_needed = 0, uses_anonymous_args = 0
 192              		@ link register save eliminated.
 193              	.LVL6:
 330:.\Generated_Source\PSoC5/SPIM.c ****     SPIM_TX_STATUS_MASK_REG = intSrc;
 194              		.loc 1 330 0
 195 0000 014B     		ldr	r3, .L12
 196 0002 1870     		strb	r0, [r3, #0]
 197 0004 7047     		bx	lr
 198              	.L13:
 199 0006 00BF     		.align	2
 200              	.L12:
 201 0008 87640040 		.word	1073767559
 202              		.cfi_endproc
 203              	.LFE8:
 204              		.size	SPIM_SetTxInterruptMode, .-SPIM_SetTxInterruptMode
 205              		.section	.text.SPIM_SetRxInterruptMode,"ax",%progbits
 206              		.align	1
 207              		.global	SPIM_SetRxInterruptMode
 208              		.thumb
 209              		.thumb_func
 210              		.type	SPIM_SetRxInterruptMode, %function
 211              	SPIM_SetRxInterruptMode:
 212              	.LFB9:
 331:.\Generated_Source\PSoC5/SPIM.c **** }
 332:.\Generated_Source\PSoC5/SPIM.c **** 
 333:.\Generated_Source\PSoC5/SPIM.c **** 
 334:.\Generated_Source\PSoC5/SPIM.c **** /*******************************************************************************
 335:.\Generated_Source\PSoC5/SPIM.c **** * Function Name: SPIM_SetRxInterruptMode
 336:.\Generated_Source\PSoC5/SPIM.c **** ********************************************************************************
 337:.\Generated_Source\PSoC5/SPIM.c **** *
 338:.\Generated_Source\PSoC5/SPIM.c **** * Summary:
 339:.\Generated_Source\PSoC5/SPIM.c **** *  Configure which status bits trigger an interrupt event.
 340:.\Generated_Source\PSoC5/SPIM.c **** *
 341:.\Generated_Source\PSoC5/SPIM.c **** * Parameters:
 342:.\Generated_Source\PSoC5/SPIM.c **** *  intSrc: An or'd combination of the desired status bit masks (defined in the
 343:.\Generated_Source\PSoC5/SPIM.c **** *  header file).
 344:.\Generated_Source\PSoC5/SPIM.c **** *
 345:.\Generated_Source\PSoC5/SPIM.c **** * Return:
 346:.\Generated_Source\PSoC5/SPIM.c **** *  None.
 347:.\Generated_Source\PSoC5/SPIM.c **** *
 348:.\Generated_Source\PSoC5/SPIM.c **** * Theory:
 349:.\Generated_Source\PSoC5/SPIM.c **** *  Enables the output of specific status bits to the interrupt controller.
 350:.\Generated_Source\PSoC5/SPIM.c **** *
 351:.\Generated_Source\PSoC5/SPIM.c **** *******************************************************************************/
 352:.\Generated_Source\PSoC5/SPIM.c **** void SPIM_SetRxInterruptMode(uint8 intSrc) 
 353:.\Generated_Source\PSoC5/SPIM.c **** {
 213              		.loc 1 353 0
 214              		.cfi_startproc
 215              		@ args = 0, pretend = 0, frame = 0
ARM GAS  C:\Users\CHUCK~1.ERH\AppData\Local\Temp\ccKGUfiE.s 			page 11


 216              		@ frame_needed = 0, uses_anonymous_args = 0
 217              		@ link register save eliminated.
 218              	.LVL7:
 354:.\Generated_Source\PSoC5/SPIM.c ****     SPIM_RX_STATUS_MASK_REG  = intSrc;
 219              		.loc 1 354 0
 220 0000 014B     		ldr	r3, .L15
 221 0002 1870     		strb	r0, [r3, #0]
 222 0004 7047     		bx	lr
 223              	.L16:
 224 0006 00BF     		.align	2
 225              	.L15:
 226 0008 84650040 		.word	1073767812
 227              		.cfi_endproc
 228              	.LFE9:
 229              		.size	SPIM_SetRxInterruptMode, .-SPIM_SetRxInterruptMode
 230              		.section	.text.SPIM_ReadTxStatus,"ax",%progbits
 231              		.align	1
 232              		.global	SPIM_ReadTxStatus
 233              		.thumb
 234              		.thumb_func
 235              		.type	SPIM_ReadTxStatus, %function
 236              	SPIM_ReadTxStatus:
 237              	.LFB10:
 355:.\Generated_Source\PSoC5/SPIM.c **** }
 356:.\Generated_Source\PSoC5/SPIM.c **** 
 357:.\Generated_Source\PSoC5/SPIM.c **** 
 358:.\Generated_Source\PSoC5/SPIM.c **** /*******************************************************************************
 359:.\Generated_Source\PSoC5/SPIM.c **** * Function Name: SPIM_ReadTxStatus
 360:.\Generated_Source\PSoC5/SPIM.c **** ********************************************************************************
 361:.\Generated_Source\PSoC5/SPIM.c **** *
 362:.\Generated_Source\PSoC5/SPIM.c **** * Summary:
 363:.\Generated_Source\PSoC5/SPIM.c **** *  Read the Tx status register for the component.
 364:.\Generated_Source\PSoC5/SPIM.c **** *
 365:.\Generated_Source\PSoC5/SPIM.c **** * Parameters:
 366:.\Generated_Source\PSoC5/SPIM.c **** *  None.
 367:.\Generated_Source\PSoC5/SPIM.c **** *
 368:.\Generated_Source\PSoC5/SPIM.c **** * Return:
 369:.\Generated_Source\PSoC5/SPIM.c **** *  Contents of the Tx status register.
 370:.\Generated_Source\PSoC5/SPIM.c **** *
 371:.\Generated_Source\PSoC5/SPIM.c **** * Global variables:
 372:.\Generated_Source\PSoC5/SPIM.c **** *  SPIM_swStatusTx - used to store in software status register,
 373:.\Generated_Source\PSoC5/SPIM.c **** *  modified every function call - resets to zero.
 374:.\Generated_Source\PSoC5/SPIM.c **** *
 375:.\Generated_Source\PSoC5/SPIM.c **** * Theory:
 376:.\Generated_Source\PSoC5/SPIM.c **** *  Allows the user and the API to read the Tx status register for error
 377:.\Generated_Source\PSoC5/SPIM.c **** *  detection and flow control.
 378:.\Generated_Source\PSoC5/SPIM.c **** *
 379:.\Generated_Source\PSoC5/SPIM.c **** * Side Effects:
 380:.\Generated_Source\PSoC5/SPIM.c **** *  Clear Tx status register of the component.
 381:.\Generated_Source\PSoC5/SPIM.c **** *
 382:.\Generated_Source\PSoC5/SPIM.c **** * Reentrant:
 383:.\Generated_Source\PSoC5/SPIM.c **** *  No.
 384:.\Generated_Source\PSoC5/SPIM.c **** *
 385:.\Generated_Source\PSoC5/SPIM.c **** *******************************************************************************/
 386:.\Generated_Source\PSoC5/SPIM.c **** uint8 SPIM_ReadTxStatus(void) 
 387:.\Generated_Source\PSoC5/SPIM.c **** {
 238              		.loc 1 387 0
ARM GAS  C:\Users\CHUCK~1.ERH\AppData\Local\Temp\ccKGUfiE.s 			page 12


 239              		.cfi_startproc
 240              		@ args = 0, pretend = 0, frame = 0
 241              		@ frame_needed = 0, uses_anonymous_args = 0
 242              		@ link register save eliminated.
 388:.\Generated_Source\PSoC5/SPIM.c ****     uint8 tmpStatus;
 389:.\Generated_Source\PSoC5/SPIM.c **** 
 390:.\Generated_Source\PSoC5/SPIM.c ****     #if(SPIM_TX_SOFTWARE_BUF_ENABLED)
 391:.\Generated_Source\PSoC5/SPIM.c ****         /* Disable TX interrupt to protect global veriables */
 392:.\Generated_Source\PSoC5/SPIM.c ****         SPIM_DisableTxInt();
 393:.\Generated_Source\PSoC5/SPIM.c **** 
 394:.\Generated_Source\PSoC5/SPIM.c ****         tmpStatus = SPIM_GET_STATUS_TX(SPIM_swStatusTx);
 395:.\Generated_Source\PSoC5/SPIM.c ****         SPIM_swStatusTx = 0u;
 396:.\Generated_Source\PSoC5/SPIM.c **** 
 397:.\Generated_Source\PSoC5/SPIM.c ****         SPIM_EnableTxInt();
 398:.\Generated_Source\PSoC5/SPIM.c **** 
 399:.\Generated_Source\PSoC5/SPIM.c ****     #else
 400:.\Generated_Source\PSoC5/SPIM.c **** 
 401:.\Generated_Source\PSoC5/SPIM.c ****         tmpStatus = SPIM_TX_STATUS_REG;
 243              		.loc 1 401 0
 244 0000 014B     		ldr	r3, .L18
 245 0002 1878     		ldrb	r0, [r3, #0]	@ zero_extendqisi2
 246              	.LVL8:
 402:.\Generated_Source\PSoC5/SPIM.c **** 
 403:.\Generated_Source\PSoC5/SPIM.c ****     #endif /* (SPIM_TX_SOFTWARE_BUF_ENABLED) */
 404:.\Generated_Source\PSoC5/SPIM.c **** 
 405:.\Generated_Source\PSoC5/SPIM.c ****     return(tmpStatus);
 406:.\Generated_Source\PSoC5/SPIM.c **** }
 247              		.loc 1 406 0
 248 0004 7047     		bx	lr
 249              	.L19:
 250 0006 00BF     		.align	2
 251              	.L18:
 252 0008 67640040 		.word	1073767527
 253              		.cfi_endproc
 254              	.LFE10:
 255              		.size	SPIM_ReadTxStatus, .-SPIM_ReadTxStatus
 256              		.section	.text.SPIM_ReadRxStatus,"ax",%progbits
 257              		.align	1
 258              		.global	SPIM_ReadRxStatus
 259              		.thumb
 260              		.thumb_func
 261              		.type	SPIM_ReadRxStatus, %function
 262              	SPIM_ReadRxStatus:
 263              	.LFB11:
 407:.\Generated_Source\PSoC5/SPIM.c **** 
 408:.\Generated_Source\PSoC5/SPIM.c **** 
 409:.\Generated_Source\PSoC5/SPIM.c **** /*******************************************************************************
 410:.\Generated_Source\PSoC5/SPIM.c **** * Function Name: SPIM_ReadRxStatus
 411:.\Generated_Source\PSoC5/SPIM.c **** ********************************************************************************
 412:.\Generated_Source\PSoC5/SPIM.c **** *
 413:.\Generated_Source\PSoC5/SPIM.c **** * Summary:
 414:.\Generated_Source\PSoC5/SPIM.c **** *  Read the Rx status register for the component.
 415:.\Generated_Source\PSoC5/SPIM.c **** *
 416:.\Generated_Source\PSoC5/SPIM.c **** * Parameters:
 417:.\Generated_Source\PSoC5/SPIM.c **** *  None.
 418:.\Generated_Source\PSoC5/SPIM.c **** *
 419:.\Generated_Source\PSoC5/SPIM.c **** * Return:
ARM GAS  C:\Users\CHUCK~1.ERH\AppData\Local\Temp\ccKGUfiE.s 			page 13


 420:.\Generated_Source\PSoC5/SPIM.c **** *  Contents of the Rx status register.
 421:.\Generated_Source\PSoC5/SPIM.c **** *
 422:.\Generated_Source\PSoC5/SPIM.c **** * Global variables:
 423:.\Generated_Source\PSoC5/SPIM.c **** *  SPIM_swStatusRx - used to store in software Rx status register,
 424:.\Generated_Source\PSoC5/SPIM.c **** *  modified every function call - resets to zero.
 425:.\Generated_Source\PSoC5/SPIM.c **** *
 426:.\Generated_Source\PSoC5/SPIM.c **** * Theory:
 427:.\Generated_Source\PSoC5/SPIM.c **** *  Allows the user and the API to read the Rx status register for error
 428:.\Generated_Source\PSoC5/SPIM.c **** *  detection and flow control.
 429:.\Generated_Source\PSoC5/SPIM.c **** *
 430:.\Generated_Source\PSoC5/SPIM.c **** * Side Effects:
 431:.\Generated_Source\PSoC5/SPIM.c **** *  Clear Rx status register of the component.
 432:.\Generated_Source\PSoC5/SPIM.c **** *
 433:.\Generated_Source\PSoC5/SPIM.c **** * Reentrant:
 434:.\Generated_Source\PSoC5/SPIM.c **** *  No.
 435:.\Generated_Source\PSoC5/SPIM.c **** *
 436:.\Generated_Source\PSoC5/SPIM.c **** *******************************************************************************/
 437:.\Generated_Source\PSoC5/SPIM.c **** uint8 SPIM_ReadRxStatus(void) 
 438:.\Generated_Source\PSoC5/SPIM.c **** {
 264              		.loc 1 438 0
 265              		.cfi_startproc
 266              		@ args = 0, pretend = 0, frame = 0
 267              		@ frame_needed = 0, uses_anonymous_args = 0
 268              		@ link register save eliminated.
 439:.\Generated_Source\PSoC5/SPIM.c ****     uint8 tmpStatus;
 440:.\Generated_Source\PSoC5/SPIM.c **** 
 441:.\Generated_Source\PSoC5/SPIM.c ****     #if(SPIM_RX_SOFTWARE_BUF_ENABLED)
 442:.\Generated_Source\PSoC5/SPIM.c ****         /* Disable RX interrupt to protect global veriables */
 443:.\Generated_Source\PSoC5/SPIM.c ****         SPIM_DisableRxInt();
 444:.\Generated_Source\PSoC5/SPIM.c **** 
 445:.\Generated_Source\PSoC5/SPIM.c ****         tmpStatus = SPIM_GET_STATUS_RX(SPIM_swStatusRx);
 446:.\Generated_Source\PSoC5/SPIM.c ****         SPIM_swStatusRx = 0u;
 447:.\Generated_Source\PSoC5/SPIM.c **** 
 448:.\Generated_Source\PSoC5/SPIM.c ****         SPIM_EnableRxInt();
 449:.\Generated_Source\PSoC5/SPIM.c **** 
 450:.\Generated_Source\PSoC5/SPIM.c ****     #else
 451:.\Generated_Source\PSoC5/SPIM.c **** 
 452:.\Generated_Source\PSoC5/SPIM.c ****         tmpStatus = SPIM_RX_STATUS_REG;
 269              		.loc 1 452 0
 270 0000 014B     		ldr	r3, .L21
 271 0002 1878     		ldrb	r0, [r3, #0]	@ zero_extendqisi2
 272              	.LVL9:
 453:.\Generated_Source\PSoC5/SPIM.c **** 
 454:.\Generated_Source\PSoC5/SPIM.c ****     #endif /* (SPIM_RX_SOFTWARE_BUF_ENABLED) */
 455:.\Generated_Source\PSoC5/SPIM.c **** 
 456:.\Generated_Source\PSoC5/SPIM.c ****     return(tmpStatus);
 457:.\Generated_Source\PSoC5/SPIM.c **** }
 273              		.loc 1 457 0
 274 0004 7047     		bx	lr
 275              	.L22:
 276 0006 00BF     		.align	2
 277              	.L21:
 278 0008 64650040 		.word	1073767780
 279              		.cfi_endproc
 280              	.LFE11:
 281              		.size	SPIM_ReadRxStatus, .-SPIM_ReadRxStatus
 282              		.section	.text.SPIM_WriteTxData,"ax",%progbits
ARM GAS  C:\Users\CHUCK~1.ERH\AppData\Local\Temp\ccKGUfiE.s 			page 14


 283              		.align	1
 284              		.global	SPIM_WriteTxData
 285              		.thumb
 286              		.thumb_func
 287              		.type	SPIM_WriteTxData, %function
 288              	SPIM_WriteTxData:
 289              	.LFB12:
 458:.\Generated_Source\PSoC5/SPIM.c **** 
 459:.\Generated_Source\PSoC5/SPIM.c **** 
 460:.\Generated_Source\PSoC5/SPIM.c **** /*******************************************************************************
 461:.\Generated_Source\PSoC5/SPIM.c **** * Function Name: SPIM_WriteTxData
 462:.\Generated_Source\PSoC5/SPIM.c **** ********************************************************************************
 463:.\Generated_Source\PSoC5/SPIM.c **** *
 464:.\Generated_Source\PSoC5/SPIM.c **** * Summary:
 465:.\Generated_Source\PSoC5/SPIM.c **** *  Write a byte of data to be sent across the SPI.
 466:.\Generated_Source\PSoC5/SPIM.c **** *
 467:.\Generated_Source\PSoC5/SPIM.c **** * Parameters:
 468:.\Generated_Source\PSoC5/SPIM.c **** *  txDataByte: The data value to send across the SPI.
 469:.\Generated_Source\PSoC5/SPIM.c **** *
 470:.\Generated_Source\PSoC5/SPIM.c **** * Return:
 471:.\Generated_Source\PSoC5/SPIM.c **** *  None.
 472:.\Generated_Source\PSoC5/SPIM.c **** *
 473:.\Generated_Source\PSoC5/SPIM.c **** * Global variables:
 474:.\Generated_Source\PSoC5/SPIM.c **** *  SPIM_txBufferWrite - used for the account of the bytes which
 475:.\Generated_Source\PSoC5/SPIM.c **** *  have been written down in the TX software buffer, modified every function
 476:.\Generated_Source\PSoC5/SPIM.c **** *  call if TX Software Buffer is used.
 477:.\Generated_Source\PSoC5/SPIM.c **** *  SPIM_txBufferRead - used for the account of the bytes which
 478:.\Generated_Source\PSoC5/SPIM.c **** *  have been read from the TX software buffer.
 479:.\Generated_Source\PSoC5/SPIM.c **** *  SPIM_txBuffer[SPIM_TX_BUFFER_SIZE] - used to store
 480:.\Generated_Source\PSoC5/SPIM.c **** *  data to sending, modified every function call if TX Software Buffer is used.
 481:.\Generated_Source\PSoC5/SPIM.c **** *
 482:.\Generated_Source\PSoC5/SPIM.c **** * Theory:
 483:.\Generated_Source\PSoC5/SPIM.c **** *  Allows the user to transmit any byte of data in a single transfer.
 484:.\Generated_Source\PSoC5/SPIM.c **** *
 485:.\Generated_Source\PSoC5/SPIM.c **** * Side Effects:
 486:.\Generated_Source\PSoC5/SPIM.c **** *  If this function is called again before the previous byte is finished then
 487:.\Generated_Source\PSoC5/SPIM.c **** *  the next byte will be appended to the transfer with no time between
 488:.\Generated_Source\PSoC5/SPIM.c **** *  the byte transfers. Clear Tx status register of the component.
 489:.\Generated_Source\PSoC5/SPIM.c **** *
 490:.\Generated_Source\PSoC5/SPIM.c **** * Reentrant:
 491:.\Generated_Source\PSoC5/SPIM.c **** *  No.
 492:.\Generated_Source\PSoC5/SPIM.c **** *
 493:.\Generated_Source\PSoC5/SPIM.c **** *******************************************************************************/
 494:.\Generated_Source\PSoC5/SPIM.c **** void SPIM_WriteTxData(uint8 txData) 
 495:.\Generated_Source\PSoC5/SPIM.c **** {
 290              		.loc 1 495 0
 291              		.cfi_startproc
 292              		@ args = 0, pretend = 0, frame = 0
 293              		@ frame_needed = 0, uses_anonymous_args = 0
 294              		@ link register save eliminated.
 295              	.LVL10:
 296              	.L24:
 496:.\Generated_Source\PSoC5/SPIM.c ****     #if(SPIM_TX_SOFTWARE_BUF_ENABLED)
 497:.\Generated_Source\PSoC5/SPIM.c **** 
 498:.\Generated_Source\PSoC5/SPIM.c ****         uint8 tempStatus;
 499:.\Generated_Source\PSoC5/SPIM.c ****         uint8 tmpTxBufferRead;
 500:.\Generated_Source\PSoC5/SPIM.c **** 
ARM GAS  C:\Users\CHUCK~1.ERH\AppData\Local\Temp\ccKGUfiE.s 			page 15


 501:.\Generated_Source\PSoC5/SPIM.c ****         /* Block if TX buffer is FULL: don't overwrite */
 502:.\Generated_Source\PSoC5/SPIM.c ****         do
 503:.\Generated_Source\PSoC5/SPIM.c ****         {
 504:.\Generated_Source\PSoC5/SPIM.c ****             tmpTxBufferRead = SPIM_txBufferRead;
 505:.\Generated_Source\PSoC5/SPIM.c ****             if(0u == tmpTxBufferRead)
 506:.\Generated_Source\PSoC5/SPIM.c ****             {
 507:.\Generated_Source\PSoC5/SPIM.c ****                 tmpTxBufferRead = (SPIM_TX_BUFFER_SIZE - 1u);
 508:.\Generated_Source\PSoC5/SPIM.c ****             }
 509:.\Generated_Source\PSoC5/SPIM.c ****             else
 510:.\Generated_Source\PSoC5/SPIM.c ****             {
 511:.\Generated_Source\PSoC5/SPIM.c ****                 tmpTxBufferRead--;
 512:.\Generated_Source\PSoC5/SPIM.c ****             }
 513:.\Generated_Source\PSoC5/SPIM.c **** 
 514:.\Generated_Source\PSoC5/SPIM.c ****         }while(tmpTxBufferRead == SPIM_txBufferWrite);
 515:.\Generated_Source\PSoC5/SPIM.c **** 
 516:.\Generated_Source\PSoC5/SPIM.c ****         /* Disable TX interrupt to protect global veriables */
 517:.\Generated_Source\PSoC5/SPIM.c ****         SPIM_DisableTxInt();
 518:.\Generated_Source\PSoC5/SPIM.c **** 
 519:.\Generated_Source\PSoC5/SPIM.c ****         tempStatus = SPIM_GET_STATUS_TX(SPIM_swStatusTx);
 520:.\Generated_Source\PSoC5/SPIM.c ****         SPIM_swStatusTx = tempStatus;
 521:.\Generated_Source\PSoC5/SPIM.c **** 
 522:.\Generated_Source\PSoC5/SPIM.c **** 
 523:.\Generated_Source\PSoC5/SPIM.c ****         if((SPIM_txBufferRead == SPIM_txBufferWrite) &&
 524:.\Generated_Source\PSoC5/SPIM.c ****            (0u != (SPIM_swStatusTx & SPIM_STS_TX_FIFO_NOT_FULL)))
 525:.\Generated_Source\PSoC5/SPIM.c ****         {
 526:.\Generated_Source\PSoC5/SPIM.c ****             /* Add directly to the TX FIFO */
 527:.\Generated_Source\PSoC5/SPIM.c ****             CY_SET_REG8(SPIM_TXDATA_PTR, txData);
 528:.\Generated_Source\PSoC5/SPIM.c ****         }
 529:.\Generated_Source\PSoC5/SPIM.c ****         else
 530:.\Generated_Source\PSoC5/SPIM.c ****         {
 531:.\Generated_Source\PSoC5/SPIM.c ****             /* Add to the TX software buffer */
 532:.\Generated_Source\PSoC5/SPIM.c ****             SPIM_txBufferWrite++;
 533:.\Generated_Source\PSoC5/SPIM.c ****             if(SPIM_txBufferWrite >= SPIM_TX_BUFFER_SIZE)
 534:.\Generated_Source\PSoC5/SPIM.c ****             {
 535:.\Generated_Source\PSoC5/SPIM.c ****                 SPIM_txBufferWrite = 0u;
 536:.\Generated_Source\PSoC5/SPIM.c ****             }
 537:.\Generated_Source\PSoC5/SPIM.c **** 
 538:.\Generated_Source\PSoC5/SPIM.c ****             if(SPIM_txBufferWrite == SPIM_txBufferRead)
 539:.\Generated_Source\PSoC5/SPIM.c ****             {
 540:.\Generated_Source\PSoC5/SPIM.c ****                 SPIM_txBufferRead++;
 541:.\Generated_Source\PSoC5/SPIM.c ****                 if(SPIM_txBufferRead >= SPIM_TX_BUFFER_SIZE)
 542:.\Generated_Source\PSoC5/SPIM.c ****                 {
 543:.\Generated_Source\PSoC5/SPIM.c ****                     SPIM_txBufferRead = 0u;
 544:.\Generated_Source\PSoC5/SPIM.c ****                 }
 545:.\Generated_Source\PSoC5/SPIM.c ****                 SPIM_txBufferFull = 1u;
 546:.\Generated_Source\PSoC5/SPIM.c ****             }
 547:.\Generated_Source\PSoC5/SPIM.c **** 
 548:.\Generated_Source\PSoC5/SPIM.c ****             SPIM_txBuffer[SPIM_txBufferWrite] = txData;
 549:.\Generated_Source\PSoC5/SPIM.c **** 
 550:.\Generated_Source\PSoC5/SPIM.c ****             SPIM_TX_STATUS_MASK_REG |= SPIM_STS_TX_FIFO_NOT_FULL;
 551:.\Generated_Source\PSoC5/SPIM.c ****         }
 552:.\Generated_Source\PSoC5/SPIM.c **** 
 553:.\Generated_Source\PSoC5/SPIM.c ****         SPIM_EnableTxInt();
 554:.\Generated_Source\PSoC5/SPIM.c **** 
 555:.\Generated_Source\PSoC5/SPIM.c ****     #else
 556:.\Generated_Source\PSoC5/SPIM.c **** 
 557:.\Generated_Source\PSoC5/SPIM.c ****         while(0u == (SPIM_TX_STATUS_REG & SPIM_STS_TX_FIFO_NOT_FULL))
ARM GAS  C:\Users\CHUCK~1.ERH\AppData\Local\Temp\ccKGUfiE.s 			page 16


 297              		.loc 1 557 0 discriminator 1
 298 0000 044B     		ldr	r3, .L30
 299 0002 1978     		ldrb	r1, [r3, #0]	@ zero_extendqisi2
 300 0004 01F00402 		and	r2, r1, #4
 301 0008 D3B2     		uxtb	r3, r2
 302 000a 002B     		cmp	r3, #0
 303 000c F8D0     		beq	.L24
 558:.\Generated_Source\PSoC5/SPIM.c ****         {
 559:.\Generated_Source\PSoC5/SPIM.c ****             ; /* Wait for room in FIFO */
 560:.\Generated_Source\PSoC5/SPIM.c ****         }
 561:.\Generated_Source\PSoC5/SPIM.c **** 
 562:.\Generated_Source\PSoC5/SPIM.c ****         /* Put byte in TX FIFO */
 563:.\Generated_Source\PSoC5/SPIM.c ****         CY_SET_REG8(SPIM_TXDATA_PTR, txData);
 304              		.loc 1 563 0
 305 000e 0249     		ldr	r1, .L30+4
 306 0010 0870     		strb	r0, [r1, #0]
 307 0012 7047     		bx	lr
 308              	.L31:
 309              		.align	2
 310              	.L30:
 311 0014 67640040 		.word	1073767527
 312 0018 47650040 		.word	1073767751
 313              		.cfi_endproc
 314              	.LFE12:
 315              		.size	SPIM_WriteTxData, .-SPIM_WriteTxData
 316              		.section	.text.SPIM_ReadRxData,"ax",%progbits
 317              		.align	1
 318              		.global	SPIM_ReadRxData
 319              		.thumb
 320              		.thumb_func
 321              		.type	SPIM_ReadRxData, %function
 322              	SPIM_ReadRxData:
 323              	.LFB13:
 564:.\Generated_Source\PSoC5/SPIM.c **** 
 565:.\Generated_Source\PSoC5/SPIM.c ****     #endif /* (SPIM_TX_SOFTWARE_BUF_ENABLED) */
 566:.\Generated_Source\PSoC5/SPIM.c **** }
 567:.\Generated_Source\PSoC5/SPIM.c **** 
 568:.\Generated_Source\PSoC5/SPIM.c **** 
 569:.\Generated_Source\PSoC5/SPIM.c **** /*******************************************************************************
 570:.\Generated_Source\PSoC5/SPIM.c **** * Function Name: SPIM_ReadRxData
 571:.\Generated_Source\PSoC5/SPIM.c **** ********************************************************************************
 572:.\Generated_Source\PSoC5/SPIM.c **** *
 573:.\Generated_Source\PSoC5/SPIM.c **** * Summary:
 574:.\Generated_Source\PSoC5/SPIM.c **** *  Read the next byte of data received across the SPI.
 575:.\Generated_Source\PSoC5/SPIM.c **** *
 576:.\Generated_Source\PSoC5/SPIM.c **** * Parameters:
 577:.\Generated_Source\PSoC5/SPIM.c **** *  None.
 578:.\Generated_Source\PSoC5/SPIM.c **** *
 579:.\Generated_Source\PSoC5/SPIM.c **** * Return:
 580:.\Generated_Source\PSoC5/SPIM.c **** *  The next byte of data read from the FIFO.
 581:.\Generated_Source\PSoC5/SPIM.c **** *
 582:.\Generated_Source\PSoC5/SPIM.c **** * Global variables:
 583:.\Generated_Source\PSoC5/SPIM.c **** *  SPIM_rxBufferWrite - used for the account of the bytes which
 584:.\Generated_Source\PSoC5/SPIM.c **** *  have been written down in the RX software buffer.
 585:.\Generated_Source\PSoC5/SPIM.c **** *  SPIM_rxBufferRead - used for the account of the bytes which
 586:.\Generated_Source\PSoC5/SPIM.c **** *  have been read from the RX software buffer, modified every function
 587:.\Generated_Source\PSoC5/SPIM.c **** *  call if RX Software Buffer is used.
ARM GAS  C:\Users\CHUCK~1.ERH\AppData\Local\Temp\ccKGUfiE.s 			page 17


 588:.\Generated_Source\PSoC5/SPIM.c **** *  SPIM_rxBuffer[SPIM_RX_BUFFER_SIZE] - used to store
 589:.\Generated_Source\PSoC5/SPIM.c **** *  received data.
 590:.\Generated_Source\PSoC5/SPIM.c **** *
 591:.\Generated_Source\PSoC5/SPIM.c **** * Theory:
 592:.\Generated_Source\PSoC5/SPIM.c **** *  Allows the user to read a byte of data received.
 593:.\Generated_Source\PSoC5/SPIM.c **** *
 594:.\Generated_Source\PSoC5/SPIM.c **** * Side Effects:
 595:.\Generated_Source\PSoC5/SPIM.c **** *  Will return invalid data if the FIFO is empty. The user should Call
 596:.\Generated_Source\PSoC5/SPIM.c **** *  GetRxBufferSize() and if it returns a non-zero value then it is safe to call
 597:.\Generated_Source\PSoC5/SPIM.c **** *  ReadByte() function.
 598:.\Generated_Source\PSoC5/SPIM.c **** *
 599:.\Generated_Source\PSoC5/SPIM.c **** * Reentrant:
 600:.\Generated_Source\PSoC5/SPIM.c **** *  No.
 601:.\Generated_Source\PSoC5/SPIM.c **** *
 602:.\Generated_Source\PSoC5/SPIM.c **** *******************************************************************************/
 603:.\Generated_Source\PSoC5/SPIM.c **** uint8 SPIM_ReadRxData(void) 
 604:.\Generated_Source\PSoC5/SPIM.c **** {
 324              		.loc 1 604 0
 325              		.cfi_startproc
 326              		@ args = 0, pretend = 0, frame = 0
 327              		@ frame_needed = 0, uses_anonymous_args = 0
 328              		@ link register save eliminated.
 605:.\Generated_Source\PSoC5/SPIM.c ****     uint8 rxData;
 606:.\Generated_Source\PSoC5/SPIM.c **** 
 607:.\Generated_Source\PSoC5/SPIM.c ****     #if(SPIM_RX_SOFTWARE_BUF_ENABLED)
 608:.\Generated_Source\PSoC5/SPIM.c **** 
 609:.\Generated_Source\PSoC5/SPIM.c ****         /* Disable RX interrupt to protect global veriables */
 610:.\Generated_Source\PSoC5/SPIM.c ****         SPIM_DisableRxInt();
 611:.\Generated_Source\PSoC5/SPIM.c **** 
 612:.\Generated_Source\PSoC5/SPIM.c ****         if(SPIM_rxBufferRead != SPIM_rxBufferWrite)
 613:.\Generated_Source\PSoC5/SPIM.c ****         {
 614:.\Generated_Source\PSoC5/SPIM.c ****             if(0u == SPIM_rxBufferFull)
 615:.\Generated_Source\PSoC5/SPIM.c ****             {
 616:.\Generated_Source\PSoC5/SPIM.c ****                 SPIM_rxBufferRead++;
 617:.\Generated_Source\PSoC5/SPIM.c ****                 if(SPIM_rxBufferRead >= SPIM_RX_BUFFER_SIZE)
 618:.\Generated_Source\PSoC5/SPIM.c ****                 {
 619:.\Generated_Source\PSoC5/SPIM.c ****                     SPIM_rxBufferRead = 0u;
 620:.\Generated_Source\PSoC5/SPIM.c ****                 }
 621:.\Generated_Source\PSoC5/SPIM.c ****             }
 622:.\Generated_Source\PSoC5/SPIM.c ****             else
 623:.\Generated_Source\PSoC5/SPIM.c ****             {
 624:.\Generated_Source\PSoC5/SPIM.c ****                 SPIM_rxBufferFull = 0u;
 625:.\Generated_Source\PSoC5/SPIM.c ****             }
 626:.\Generated_Source\PSoC5/SPIM.c ****         }
 627:.\Generated_Source\PSoC5/SPIM.c **** 
 628:.\Generated_Source\PSoC5/SPIM.c ****         rxData = SPIM_rxBuffer[SPIM_rxBufferRead];
 629:.\Generated_Source\PSoC5/SPIM.c **** 
 630:.\Generated_Source\PSoC5/SPIM.c ****         SPIM_EnableRxInt();
 631:.\Generated_Source\PSoC5/SPIM.c **** 
 632:.\Generated_Source\PSoC5/SPIM.c ****     #else
 633:.\Generated_Source\PSoC5/SPIM.c **** 
 634:.\Generated_Source\PSoC5/SPIM.c ****         rxData = CY_GET_REG8(SPIM_RXDATA_PTR);
 329              		.loc 1 634 0
 330 0000 014B     		ldr	r3, .L33
 331 0002 1878     		ldrb	r0, [r3, #0]	@ zero_extendqisi2
 332              	.LVL11:
 635:.\Generated_Source\PSoC5/SPIM.c **** 
ARM GAS  C:\Users\CHUCK~1.ERH\AppData\Local\Temp\ccKGUfiE.s 			page 18


 636:.\Generated_Source\PSoC5/SPIM.c ****     #endif /* (SPIM_RX_SOFTWARE_BUF_ENABLED) */
 637:.\Generated_Source\PSoC5/SPIM.c **** 
 638:.\Generated_Source\PSoC5/SPIM.c ****     return(rxData);
 639:.\Generated_Source\PSoC5/SPIM.c **** }
 333              		.loc 1 639 0
 334 0004 7047     		bx	lr
 335              	.L34:
 336 0006 00BF     		.align	2
 337              	.L33:
 338 0008 57650040 		.word	1073767767
 339              		.cfi_endproc
 340              	.LFE13:
 341              		.size	SPIM_ReadRxData, .-SPIM_ReadRxData
 342              		.section	.text.SPIM_GetRxBufferSize,"ax",%progbits
 343              		.align	1
 344              		.global	SPIM_GetRxBufferSize
 345              		.thumb
 346              		.thumb_func
 347              		.type	SPIM_GetRxBufferSize, %function
 348              	SPIM_GetRxBufferSize:
 349              	.LFB14:
 640:.\Generated_Source\PSoC5/SPIM.c **** 
 641:.\Generated_Source\PSoC5/SPIM.c **** 
 642:.\Generated_Source\PSoC5/SPIM.c **** /*******************************************************************************
 643:.\Generated_Source\PSoC5/SPIM.c **** * Function Name: SPIM_GetRxBufferSize
 644:.\Generated_Source\PSoC5/SPIM.c **** ********************************************************************************
 645:.\Generated_Source\PSoC5/SPIM.c **** *
 646:.\Generated_Source\PSoC5/SPIM.c **** * Summary:
 647:.\Generated_Source\PSoC5/SPIM.c **** *  Returns the number of bytes/words of data currently held in the RX buffer.
 648:.\Generated_Source\PSoC5/SPIM.c **** *  If RX Software Buffer not used then function return 0 if FIFO empty or 1 if
 649:.\Generated_Source\PSoC5/SPIM.c **** *  FIFO not empty. In another case function return size of RX Software Buffer.
 650:.\Generated_Source\PSoC5/SPIM.c **** *
 651:.\Generated_Source\PSoC5/SPIM.c **** * Parameters:
 652:.\Generated_Source\PSoC5/SPIM.c **** *  None.
 653:.\Generated_Source\PSoC5/SPIM.c **** *
 654:.\Generated_Source\PSoC5/SPIM.c **** * Return:
 655:.\Generated_Source\PSoC5/SPIM.c **** *  Integer count of the number of bytes/words in the RX buffer.
 656:.\Generated_Source\PSoC5/SPIM.c **** *
 657:.\Generated_Source\PSoC5/SPIM.c **** * Global variables:
 658:.\Generated_Source\PSoC5/SPIM.c **** *  SPIM_rxBufferWrite - used for the account of the bytes which
 659:.\Generated_Source\PSoC5/SPIM.c **** *  have been written down in the RX software buffer.
 660:.\Generated_Source\PSoC5/SPIM.c **** *  SPIM_rxBufferRead - used for the account of the bytes which
 661:.\Generated_Source\PSoC5/SPIM.c **** *  have been read from the RX software buffer.
 662:.\Generated_Source\PSoC5/SPIM.c **** *
 663:.\Generated_Source\PSoC5/SPIM.c **** * Side Effects:
 664:.\Generated_Source\PSoC5/SPIM.c **** *  Clear status register of the component.
 665:.\Generated_Source\PSoC5/SPIM.c **** *
 666:.\Generated_Source\PSoC5/SPIM.c **** *******************************************************************************/
 667:.\Generated_Source\PSoC5/SPIM.c **** uint8 SPIM_GetRxBufferSize(void) 
 668:.\Generated_Source\PSoC5/SPIM.c **** {
 350              		.loc 1 668 0
 351              		.cfi_startproc
 352              		@ args = 0, pretend = 0, frame = 0
 353              		@ frame_needed = 0, uses_anonymous_args = 0
 354              		@ link register save eliminated.
 669:.\Generated_Source\PSoC5/SPIM.c ****     uint8 size;
 670:.\Generated_Source\PSoC5/SPIM.c **** 
ARM GAS  C:\Users\CHUCK~1.ERH\AppData\Local\Temp\ccKGUfiE.s 			page 19


 671:.\Generated_Source\PSoC5/SPIM.c ****     #if(SPIM_RX_SOFTWARE_BUF_ENABLED)
 672:.\Generated_Source\PSoC5/SPIM.c **** 
 673:.\Generated_Source\PSoC5/SPIM.c ****         /* Disable RX interrupt to protect global veriables */
 674:.\Generated_Source\PSoC5/SPIM.c ****         SPIM_DisableRxInt();
 675:.\Generated_Source\PSoC5/SPIM.c **** 
 676:.\Generated_Source\PSoC5/SPIM.c ****         if(SPIM_rxBufferRead == SPIM_rxBufferWrite)
 677:.\Generated_Source\PSoC5/SPIM.c ****         {
 678:.\Generated_Source\PSoC5/SPIM.c ****             size = 0u;
 679:.\Generated_Source\PSoC5/SPIM.c ****         }
 680:.\Generated_Source\PSoC5/SPIM.c ****         else if(SPIM_rxBufferRead < SPIM_rxBufferWrite)
 681:.\Generated_Source\PSoC5/SPIM.c ****         {
 682:.\Generated_Source\PSoC5/SPIM.c ****             size = (SPIM_rxBufferWrite - SPIM_rxBufferRead);
 683:.\Generated_Source\PSoC5/SPIM.c ****         }
 684:.\Generated_Source\PSoC5/SPIM.c ****         else
 685:.\Generated_Source\PSoC5/SPIM.c ****         {
 686:.\Generated_Source\PSoC5/SPIM.c ****             size = (SPIM_RX_BUFFER_SIZE - SPIM_rxBufferRead) + SPIM_rxBufferWrite;
 687:.\Generated_Source\PSoC5/SPIM.c ****         }
 688:.\Generated_Source\PSoC5/SPIM.c **** 
 689:.\Generated_Source\PSoC5/SPIM.c ****         SPIM_EnableRxInt();
 690:.\Generated_Source\PSoC5/SPIM.c **** 
 691:.\Generated_Source\PSoC5/SPIM.c ****     #else
 692:.\Generated_Source\PSoC5/SPIM.c **** 
 693:.\Generated_Source\PSoC5/SPIM.c ****         /* We can only know if there is data in the RX FIFO */
 694:.\Generated_Source\PSoC5/SPIM.c ****         size = (0u != (SPIM_RX_STATUS_REG & SPIM_STS_RX_FIFO_NOT_EMPTY)) ? 1u : 0u;
 355              		.loc 1 694 0
 356 0000 024B     		ldr	r3, .L36
 357 0002 1878     		ldrb	r0, [r3, #0]	@ zero_extendqisi2
 358              	.LVL12:
 695:.\Generated_Source\PSoC5/SPIM.c **** 
 696:.\Generated_Source\PSoC5/SPIM.c ****     #endif /* (SPIM_TX_SOFTWARE_BUF_ENABLED) */
 697:.\Generated_Source\PSoC5/SPIM.c **** 
 698:.\Generated_Source\PSoC5/SPIM.c ****     return(size);
 699:.\Generated_Source\PSoC5/SPIM.c **** }
 359              		.loc 1 699 0
 360 0004 C0F34010 		ubfx	r0, r0, #5, #1
 361              	.LVL13:
 362 0008 7047     		bx	lr
 363              	.L37:
 364 000a 00BF     		.align	2
 365              	.L36:
 366 000c 64650040 		.word	1073767780
 367              		.cfi_endproc
 368              	.LFE14:
 369              		.size	SPIM_GetRxBufferSize, .-SPIM_GetRxBufferSize
 370              		.section	.text.SPIM_GetTxBufferSize,"ax",%progbits
 371              		.align	1
 372              		.global	SPIM_GetTxBufferSize
 373              		.thumb
 374              		.thumb_func
 375              		.type	SPIM_GetTxBufferSize, %function
 376              	SPIM_GetTxBufferSize:
 377              	.LFB15:
 700:.\Generated_Source\PSoC5/SPIM.c **** 
 701:.\Generated_Source\PSoC5/SPIM.c **** 
 702:.\Generated_Source\PSoC5/SPIM.c **** /*******************************************************************************
 703:.\Generated_Source\PSoC5/SPIM.c **** * Function Name: SPIM_GetTxBufferSize
 704:.\Generated_Source\PSoC5/SPIM.c **** ********************************************************************************
ARM GAS  C:\Users\CHUCK~1.ERH\AppData\Local\Temp\ccKGUfiE.s 			page 20


 705:.\Generated_Source\PSoC5/SPIM.c **** *
 706:.\Generated_Source\PSoC5/SPIM.c **** * Summary:
 707:.\Generated_Source\PSoC5/SPIM.c **** *  Returns the number of bytes/words of data currently held in the TX buffer.
 708:.\Generated_Source\PSoC5/SPIM.c **** *  If TX Software Buffer not used then function return 0 - if FIFO empty, 1 - if
 709:.\Generated_Source\PSoC5/SPIM.c **** *  FIFO not full, 4 - if FIFO full. In another case function return size of TX
 710:.\Generated_Source\PSoC5/SPIM.c **** *  Software Buffer.
 711:.\Generated_Source\PSoC5/SPIM.c **** *
 712:.\Generated_Source\PSoC5/SPIM.c **** * Parameters:
 713:.\Generated_Source\PSoC5/SPIM.c **** *  None.
 714:.\Generated_Source\PSoC5/SPIM.c **** *
 715:.\Generated_Source\PSoC5/SPIM.c **** * Return:
 716:.\Generated_Source\PSoC5/SPIM.c **** *  Integer count of the number of bytes/words in the TX buffer.
 717:.\Generated_Source\PSoC5/SPIM.c **** *
 718:.\Generated_Source\PSoC5/SPIM.c **** * Global variables:
 719:.\Generated_Source\PSoC5/SPIM.c **** *  SPIM_txBufferWrite - used for the account of the bytes which
 720:.\Generated_Source\PSoC5/SPIM.c **** *  have been written down in the TX software buffer.
 721:.\Generated_Source\PSoC5/SPIM.c **** *  SPIM_txBufferRead - used for the account of the bytes which
 722:.\Generated_Source\PSoC5/SPIM.c **** *  have been read from the TX software buffer.
 723:.\Generated_Source\PSoC5/SPIM.c **** *
 724:.\Generated_Source\PSoC5/SPIM.c **** * Side Effects:
 725:.\Generated_Source\PSoC5/SPIM.c **** *  Clear status register of the component.
 726:.\Generated_Source\PSoC5/SPIM.c **** *
 727:.\Generated_Source\PSoC5/SPIM.c **** *******************************************************************************/
 728:.\Generated_Source\PSoC5/SPIM.c **** uint8  SPIM_GetTxBufferSize(void) 
 729:.\Generated_Source\PSoC5/SPIM.c **** {
 378              		.loc 1 729 0
 379              		.cfi_startproc
 380              		@ args = 0, pretend = 0, frame = 0
 381              		@ frame_needed = 0, uses_anonymous_args = 0
 382              		@ link register save eliminated.
 730:.\Generated_Source\PSoC5/SPIM.c ****     uint8 size;
 731:.\Generated_Source\PSoC5/SPIM.c **** 
 732:.\Generated_Source\PSoC5/SPIM.c ****     #if(SPIM_TX_SOFTWARE_BUF_ENABLED)
 733:.\Generated_Source\PSoC5/SPIM.c ****         /* Disable TX interrupt to protect global veriables */
 734:.\Generated_Source\PSoC5/SPIM.c ****         SPIM_DisableTxInt();
 735:.\Generated_Source\PSoC5/SPIM.c **** 
 736:.\Generated_Source\PSoC5/SPIM.c ****         if(SPIM_txBufferRead == SPIM_txBufferWrite)
 737:.\Generated_Source\PSoC5/SPIM.c ****         {
 738:.\Generated_Source\PSoC5/SPIM.c ****             size = 0u;
 739:.\Generated_Source\PSoC5/SPIM.c ****         }
 740:.\Generated_Source\PSoC5/SPIM.c ****         else if(SPIM_txBufferRead < SPIM_txBufferWrite)
 741:.\Generated_Source\PSoC5/SPIM.c ****         {
 742:.\Generated_Source\PSoC5/SPIM.c ****             size = (SPIM_txBufferWrite - SPIM_txBufferRead);
 743:.\Generated_Source\PSoC5/SPIM.c ****         }
 744:.\Generated_Source\PSoC5/SPIM.c ****         else
 745:.\Generated_Source\PSoC5/SPIM.c ****         {
 746:.\Generated_Source\PSoC5/SPIM.c ****             size = (SPIM_TX_BUFFER_SIZE - SPIM_txBufferRead) + SPIM_txBufferWrite;
 747:.\Generated_Source\PSoC5/SPIM.c ****         }
 748:.\Generated_Source\PSoC5/SPIM.c **** 
 749:.\Generated_Source\PSoC5/SPIM.c ****         SPIM_EnableTxInt();
 750:.\Generated_Source\PSoC5/SPIM.c **** 
 751:.\Generated_Source\PSoC5/SPIM.c ****     #else
 752:.\Generated_Source\PSoC5/SPIM.c **** 
 753:.\Generated_Source\PSoC5/SPIM.c ****         size = SPIM_TX_STATUS_REG;
 383              		.loc 1 753 0
 384 0000 074B     		ldr	r3, .L42
 385 0002 1878     		ldrb	r0, [r3, #0]	@ zero_extendqisi2
ARM GAS  C:\Users\CHUCK~1.ERH\AppData\Local\Temp\ccKGUfiE.s 			page 21


 386              	.LVL14:
 754:.\Generated_Source\PSoC5/SPIM.c **** 
 755:.\Generated_Source\PSoC5/SPIM.c ****         if(0u != (size & SPIM_STS_TX_FIFO_EMPTY))
 387              		.loc 1 755 0
 388 0004 00F00201 		and	r1, r0, #2
 389 0008 CAB2     		uxtb	r2, r1
 390 000a 3AB9     		cbnz	r2, .L40
 756:.\Generated_Source\PSoC5/SPIM.c ****         {
 757:.\Generated_Source\PSoC5/SPIM.c ****             size = 0u;
 758:.\Generated_Source\PSoC5/SPIM.c ****         }
 759:.\Generated_Source\PSoC5/SPIM.c ****         else if(0u != (size & SPIM_STS_TX_FIFO_NOT_FULL))
 391              		.loc 1 759 0
 392 000c 00F00403 		and	r3, r0, #4
 393 0010 D8B2     		uxtb	r0, r3
 394              	.LVL15:
 760:.\Generated_Source\PSoC5/SPIM.c ****         {
 761:.\Generated_Source\PSoC5/SPIM.c ****             size = 1u;
 395              		.loc 1 761 0
 396 0012 0028     		cmp	r0, #0
 397 0014 0CBF     		ite	eq
 398 0016 0420     		moveq	r0, #4
 399 0018 0120     		movne	r0, #1
 400 001a 7047     		bx	lr
 401              	.LVL16:
 402              	.L40:
 757:.\Generated_Source\PSoC5/SPIM.c ****             size = 0u;
 403              		.loc 1 757 0
 404 001c 0020     		movs	r0, #0
 405              	.LVL17:
 762:.\Generated_Source\PSoC5/SPIM.c ****         }
 763:.\Generated_Source\PSoC5/SPIM.c ****         else
 764:.\Generated_Source\PSoC5/SPIM.c ****         {
 765:.\Generated_Source\PSoC5/SPIM.c ****             size = SPIM_FIFO_SIZE;
 766:.\Generated_Source\PSoC5/SPIM.c ****         }
 767:.\Generated_Source\PSoC5/SPIM.c **** 
 768:.\Generated_Source\PSoC5/SPIM.c ****     #endif /* (SPIM_TX_SOFTWARE_BUF_ENABLED) */
 769:.\Generated_Source\PSoC5/SPIM.c **** 
 770:.\Generated_Source\PSoC5/SPIM.c ****     return(size);
 771:.\Generated_Source\PSoC5/SPIM.c **** }
 406              		.loc 1 771 0
 407 001e 7047     		bx	lr
 408              	.L43:
 409              		.align	2
 410              	.L42:
 411 0020 67640040 		.word	1073767527
 412              		.cfi_endproc
 413              	.LFE15:
 414              		.size	SPIM_GetTxBufferSize, .-SPIM_GetTxBufferSize
 415              		.section	.text.SPIM_ClearRxBuffer,"ax",%progbits
 416              		.align	1
 417              		.global	SPIM_ClearRxBuffer
 418              		.thumb
 419              		.thumb_func
 420              		.type	SPIM_ClearRxBuffer, %function
 421              	SPIM_ClearRxBuffer:
 422              	.LFB16:
 772:.\Generated_Source\PSoC5/SPIM.c **** 
ARM GAS  C:\Users\CHUCK~1.ERH\AppData\Local\Temp\ccKGUfiE.s 			page 22


 773:.\Generated_Source\PSoC5/SPIM.c **** 
 774:.\Generated_Source\PSoC5/SPIM.c **** /*******************************************************************************
 775:.\Generated_Source\PSoC5/SPIM.c **** * Function Name: SPIM_ClearRxBuffer
 776:.\Generated_Source\PSoC5/SPIM.c **** ********************************************************************************
 777:.\Generated_Source\PSoC5/SPIM.c **** *
 778:.\Generated_Source\PSoC5/SPIM.c **** * Summary:
 779:.\Generated_Source\PSoC5/SPIM.c **** *  Clear the RX RAM buffer by setting the read and write pointers both to zero.
 780:.\Generated_Source\PSoC5/SPIM.c **** *
 781:.\Generated_Source\PSoC5/SPIM.c **** * Parameters:
 782:.\Generated_Source\PSoC5/SPIM.c **** *  None.
 783:.\Generated_Source\PSoC5/SPIM.c **** *
 784:.\Generated_Source\PSoC5/SPIM.c **** * Return:
 785:.\Generated_Source\PSoC5/SPIM.c **** *  None.
 786:.\Generated_Source\PSoC5/SPIM.c **** *
 787:.\Generated_Source\PSoC5/SPIM.c **** * Global variables:
 788:.\Generated_Source\PSoC5/SPIM.c **** *  SPIM_rxBufferWrite - used for the account of the bytes which
 789:.\Generated_Source\PSoC5/SPIM.c **** *  have been written down in the RX software buffer, modified every function
 790:.\Generated_Source\PSoC5/SPIM.c **** *  call - resets to zero.
 791:.\Generated_Source\PSoC5/SPIM.c **** *  SPIM_rxBufferRead - used for the account of the bytes which
 792:.\Generated_Source\PSoC5/SPIM.c **** *  have been read from the RX software buffer, modified every function call -
 793:.\Generated_Source\PSoC5/SPIM.c **** *  resets to zero.
 794:.\Generated_Source\PSoC5/SPIM.c **** *
 795:.\Generated_Source\PSoC5/SPIM.c **** * Theory:
 796:.\Generated_Source\PSoC5/SPIM.c **** *  Setting the pointers to zero makes the system believe there is no data to
 797:.\Generated_Source\PSoC5/SPIM.c **** *  read and writing will resume at address 0 overwriting any data that may have
 798:.\Generated_Source\PSoC5/SPIM.c **** *  remained in the RAM.
 799:.\Generated_Source\PSoC5/SPIM.c **** *
 800:.\Generated_Source\PSoC5/SPIM.c **** * Side Effects:
 801:.\Generated_Source\PSoC5/SPIM.c **** *  Any received data not read from the RAM buffer will be lost when overwritten.
 802:.\Generated_Source\PSoC5/SPIM.c **** *
 803:.\Generated_Source\PSoC5/SPIM.c **** * Reentrant:
 804:.\Generated_Source\PSoC5/SPIM.c **** *  No.
 805:.\Generated_Source\PSoC5/SPIM.c **** *
 806:.\Generated_Source\PSoC5/SPIM.c **** *******************************************************************************/
 807:.\Generated_Source\PSoC5/SPIM.c **** void SPIM_ClearRxBuffer(void) 
 808:.\Generated_Source\PSoC5/SPIM.c **** {
 423              		.loc 1 808 0
 424              		.cfi_startproc
 425              		@ args = 0, pretend = 0, frame = 0
 426              		@ frame_needed = 0, uses_anonymous_args = 0
 427              		@ link register save eliminated.
 428              	.L45:
 809:.\Generated_Source\PSoC5/SPIM.c ****     /* Clear Hardware RX FIFO */
 810:.\Generated_Source\PSoC5/SPIM.c ****     while(0u !=(SPIM_RX_STATUS_REG & SPIM_STS_RX_FIFO_NOT_EMPTY))
 429              		.loc 1 810 0 discriminator 1
 430 0000 044B     		ldr	r3, .L48
 431 0002 1878     		ldrb	r0, [r3, #0]	@ zero_extendqisi2
 432 0004 00F02001 		and	r1, r0, #32
 433 0008 CAB2     		uxtb	r2, r1
 434 000a 12B1     		cbz	r2, .L47
 435              	.L46:
 811:.\Generated_Source\PSoC5/SPIM.c ****     {
 812:.\Generated_Source\PSoC5/SPIM.c ****         (void) CY_GET_REG8(SPIM_RXDATA_PTR);
 436              		.loc 1 812 0
 437 000c 024B     		ldr	r3, .L48+4
 438 000e 1B78     		ldrb	r3, [r3, #0]	@ zero_extendqisi2
 439 0010 F6E7     		b	.L45
ARM GAS  C:\Users\CHUCK~1.ERH\AppData\Local\Temp\ccKGUfiE.s 			page 23


 440              	.L47:
 813:.\Generated_Source\PSoC5/SPIM.c ****     }
 814:.\Generated_Source\PSoC5/SPIM.c **** 
 815:.\Generated_Source\PSoC5/SPIM.c ****     #if(SPIM_RX_SOFTWARE_BUF_ENABLED)
 816:.\Generated_Source\PSoC5/SPIM.c ****         /* Disable RX interrupt to protect global veriables */
 817:.\Generated_Source\PSoC5/SPIM.c ****         SPIM_DisableRxInt();
 818:.\Generated_Source\PSoC5/SPIM.c **** 
 819:.\Generated_Source\PSoC5/SPIM.c ****         SPIM_rxBufferFull  = 0u;
 820:.\Generated_Source\PSoC5/SPIM.c ****         SPIM_rxBufferRead  = 0u;
 821:.\Generated_Source\PSoC5/SPIM.c ****         SPIM_rxBufferWrite = 0u;
 822:.\Generated_Source\PSoC5/SPIM.c **** 
 823:.\Generated_Source\PSoC5/SPIM.c ****         SPIM_EnableRxInt();
 824:.\Generated_Source\PSoC5/SPIM.c ****     #endif /* (SPIM_RX_SOFTWARE_BUF_ENABLED) */
 825:.\Generated_Source\PSoC5/SPIM.c **** }
 441              		.loc 1 825 0
 442 0012 7047     		bx	lr
 443              	.L49:
 444              		.align	2
 445              	.L48:
 446 0014 64650040 		.word	1073767780
 447 0018 57650040 		.word	1073767767
 448              		.cfi_endproc
 449              	.LFE16:
 450              		.size	SPIM_ClearRxBuffer, .-SPIM_ClearRxBuffer
 451              		.section	.text.SPIM_ClearTxBuffer,"ax",%progbits
 452              		.align	1
 453              		.global	SPIM_ClearTxBuffer
 454              		.thumb
 455              		.thumb_func
 456              		.type	SPIM_ClearTxBuffer, %function
 457              	SPIM_ClearTxBuffer:
 458              	.LFB17:
 826:.\Generated_Source\PSoC5/SPIM.c **** 
 827:.\Generated_Source\PSoC5/SPIM.c **** 
 828:.\Generated_Source\PSoC5/SPIM.c **** /*******************************************************************************
 829:.\Generated_Source\PSoC5/SPIM.c **** * Function Name: SPIM_ClearTxBuffer
 830:.\Generated_Source\PSoC5/SPIM.c **** ********************************************************************************
 831:.\Generated_Source\PSoC5/SPIM.c **** *
 832:.\Generated_Source\PSoC5/SPIM.c **** * Summary:
 833:.\Generated_Source\PSoC5/SPIM.c **** *  Clear the TX RAM buffer by setting the read and write pointers both to zero.
 834:.\Generated_Source\PSoC5/SPIM.c **** *
 835:.\Generated_Source\PSoC5/SPIM.c **** * Parameters:
 836:.\Generated_Source\PSoC5/SPIM.c **** *  None.
 837:.\Generated_Source\PSoC5/SPIM.c **** *
 838:.\Generated_Source\PSoC5/SPIM.c **** * Return:
 839:.\Generated_Source\PSoC5/SPIM.c **** *  None.
 840:.\Generated_Source\PSoC5/SPIM.c **** *
 841:.\Generated_Source\PSoC5/SPIM.c **** * Global variables:
 842:.\Generated_Source\PSoC5/SPIM.c **** *  SPIM_txBufferWrite - used for the account of the bytes which
 843:.\Generated_Source\PSoC5/SPIM.c **** *  have been written down in the TX software buffer, modified every function
 844:.\Generated_Source\PSoC5/SPIM.c **** *  call - resets to zero.
 845:.\Generated_Source\PSoC5/SPIM.c **** *  SPIM_txBufferRead - used for the account of the bytes which
 846:.\Generated_Source\PSoC5/SPIM.c **** *  have been read from the TX software buffer, modified every function call -
 847:.\Generated_Source\PSoC5/SPIM.c **** *  resets to zero.
 848:.\Generated_Source\PSoC5/SPIM.c **** *
 849:.\Generated_Source\PSoC5/SPIM.c **** * Theory:
 850:.\Generated_Source\PSoC5/SPIM.c **** *  Setting the pointers to zero makes the system believe there is no data to
ARM GAS  C:\Users\CHUCK~1.ERH\AppData\Local\Temp\ccKGUfiE.s 			page 24


 851:.\Generated_Source\PSoC5/SPIM.c **** *  read and writing will resume at address 0 overwriting any data that may have
 852:.\Generated_Source\PSoC5/SPIM.c **** *  remained in the RAM.
 853:.\Generated_Source\PSoC5/SPIM.c **** *
 854:.\Generated_Source\PSoC5/SPIM.c **** * Side Effects:
 855:.\Generated_Source\PSoC5/SPIM.c **** *  Any data not yet transmitted from the RAM buffer will be lost when
 856:.\Generated_Source\PSoC5/SPIM.c **** *  overwritten.
 857:.\Generated_Source\PSoC5/SPIM.c **** *
 858:.\Generated_Source\PSoC5/SPIM.c **** * Reentrant:
 859:.\Generated_Source\PSoC5/SPIM.c **** *  No.
 860:.\Generated_Source\PSoC5/SPIM.c **** *
 861:.\Generated_Source\PSoC5/SPIM.c **** *******************************************************************************/
 862:.\Generated_Source\PSoC5/SPIM.c **** void SPIM_ClearTxBuffer(void) 
 863:.\Generated_Source\PSoC5/SPIM.c **** {
 459              		.loc 1 863 0
 460              		.cfi_startproc
 461              		@ args = 0, pretend = 0, frame = 0
 462              		@ frame_needed = 0, uses_anonymous_args = 0
 463 0000 08B5     		push	{r3, lr}
 464              	.LCFI2:
 465              		.cfi_def_cfa_offset 8
 466              		.cfi_offset 3, -8
 467              		.cfi_offset 14, -4
 864:.\Generated_Source\PSoC5/SPIM.c ****     uint8 enableInterrupts;
 865:.\Generated_Source\PSoC5/SPIM.c **** 
 866:.\Generated_Source\PSoC5/SPIM.c ****     enableInterrupts = CyEnterCriticalSection();
 468              		.loc 1 866 0
 469 0002 FFF7FEFF 		bl	CyEnterCriticalSection
 470              	.LVL18:
 867:.\Generated_Source\PSoC5/SPIM.c ****     /* Clear TX FIFO */
 868:.\Generated_Source\PSoC5/SPIM.c ****     SPIM_AUX_CONTROL_DP0_REG |= ((uint8)  SPIM_TX_FIFO_CLR);
 471              		.loc 1 868 0
 472 0006 064B     		ldr	r3, .L51
 473 0008 1A78     		ldrb	r2, [r3, #0]	@ zero_extendqisi2
 474 000a 42F00101 		orr	r1, r2, #1
 475 000e 1970     		strb	r1, [r3, #0]
 869:.\Generated_Source\PSoC5/SPIM.c ****     SPIM_AUX_CONTROL_DP0_REG &= ((uint8) ~SPIM_TX_FIFO_CLR);
 476              		.loc 1 869 0
 477 0010 1A78     		ldrb	r2, [r3, #0]	@ zero_extendqisi2
 478 0012 02F0FE01 		and	r1, r2, #254
 479 0016 1970     		strb	r1, [r3, #0]
 870:.\Generated_Source\PSoC5/SPIM.c **** 
 871:.\Generated_Source\PSoC5/SPIM.c ****     #if(SPIM_USE_SECOND_DATAPATH)
 872:.\Generated_Source\PSoC5/SPIM.c ****         /* Clear TX FIFO for 2nd Datapath */
 873:.\Generated_Source\PSoC5/SPIM.c ****         SPIM_AUX_CONTROL_DP1_REG |= ((uint8)  SPIM_TX_FIFO_CLR);
 874:.\Generated_Source\PSoC5/SPIM.c ****         SPIM_AUX_CONTROL_DP1_REG &= ((uint8) ~SPIM_TX_FIFO_CLR);
 875:.\Generated_Source\PSoC5/SPIM.c ****     #endif /* (SPIM_USE_SECOND_DATAPATH) */
 876:.\Generated_Source\PSoC5/SPIM.c ****     CyExitCriticalSection(enableInterrupts);
 877:.\Generated_Source\PSoC5/SPIM.c **** 
 878:.\Generated_Source\PSoC5/SPIM.c ****     #if(SPIM_TX_SOFTWARE_BUF_ENABLED)
 879:.\Generated_Source\PSoC5/SPIM.c ****         /* Disable TX interrupt to protect global veriables */
 880:.\Generated_Source\PSoC5/SPIM.c ****         SPIM_DisableTxInt();
 881:.\Generated_Source\PSoC5/SPIM.c **** 
 882:.\Generated_Source\PSoC5/SPIM.c ****         SPIM_txBufferFull  = 0u;
 883:.\Generated_Source\PSoC5/SPIM.c ****         SPIM_txBufferRead  = 0u;
 884:.\Generated_Source\PSoC5/SPIM.c ****         SPIM_txBufferWrite = 0u;
 885:.\Generated_Source\PSoC5/SPIM.c **** 
 886:.\Generated_Source\PSoC5/SPIM.c ****         /* Buffer is EMPTY: disable TX FIFO NOT FULL interrupt */
ARM GAS  C:\Users\CHUCK~1.ERH\AppData\Local\Temp\ccKGUfiE.s 			page 25


 887:.\Generated_Source\PSoC5/SPIM.c ****         SPIM_TX_STATUS_MASK_REG &= ((uint8) ~SPIM_STS_TX_FIFO_NOT_FULL);
 888:.\Generated_Source\PSoC5/SPIM.c **** 
 889:.\Generated_Source\PSoC5/SPIM.c ****         SPIM_EnableTxInt();
 890:.\Generated_Source\PSoC5/SPIM.c ****     #endif /* (SPIM_TX_SOFTWARE_BUF_ENABLED) */
 891:.\Generated_Source\PSoC5/SPIM.c **** }
 480              		.loc 1 891 0
 481 0018 BDE80840 		pop	{r3, lr}
 876:.\Generated_Source\PSoC5/SPIM.c ****     CyExitCriticalSection(enableInterrupts);
 482              		.loc 1 876 0
 483 001c FFF7FEBF 		b	CyExitCriticalSection
 484              	.LVL19:
 485              	.L52:
 486              		.align	2
 487              	.L51:
 488 0020 97650040 		.word	1073767831
 489              		.cfi_endproc
 490              	.LFE17:
 491              		.size	SPIM_ClearTxBuffer, .-SPIM_ClearTxBuffer
 492              		.section	.text.SPIM_PutArray,"ax",%progbits
 493              		.align	1
 494              		.global	SPIM_PutArray
 495              		.thumb
 496              		.thumb_func
 497              		.type	SPIM_PutArray, %function
 498              	SPIM_PutArray:
 499              	.LFB18:
 892:.\Generated_Source\PSoC5/SPIM.c **** 
 893:.\Generated_Source\PSoC5/SPIM.c **** 
 894:.\Generated_Source\PSoC5/SPIM.c **** #if(0u != SPIM_BIDIRECTIONAL_MODE)
 895:.\Generated_Source\PSoC5/SPIM.c ****     /*******************************************************************************
 896:.\Generated_Source\PSoC5/SPIM.c ****     * Function Name: SPIM_TxEnable
 897:.\Generated_Source\PSoC5/SPIM.c ****     ********************************************************************************
 898:.\Generated_Source\PSoC5/SPIM.c ****     *
 899:.\Generated_Source\PSoC5/SPIM.c ****     * Summary:
 900:.\Generated_Source\PSoC5/SPIM.c ****     *  If the SPI master is configured to use a single bi-directional pin then this
 901:.\Generated_Source\PSoC5/SPIM.c ****     *  will set the bi-directional pin to transmit.
 902:.\Generated_Source\PSoC5/SPIM.c ****     *
 903:.\Generated_Source\PSoC5/SPIM.c ****     * Parameters:
 904:.\Generated_Source\PSoC5/SPIM.c ****     *  None.
 905:.\Generated_Source\PSoC5/SPIM.c ****     *
 906:.\Generated_Source\PSoC5/SPIM.c ****     * Return:
 907:.\Generated_Source\PSoC5/SPIM.c ****     *  None.
 908:.\Generated_Source\PSoC5/SPIM.c ****     *
 909:.\Generated_Source\PSoC5/SPIM.c ****     *******************************************************************************/
 910:.\Generated_Source\PSoC5/SPIM.c ****     void SPIM_TxEnable(void) 
 911:.\Generated_Source\PSoC5/SPIM.c ****     {
 912:.\Generated_Source\PSoC5/SPIM.c ****         SPIM_CONTROL_REG |= SPIM_CTRL_TX_SIGNAL_EN;
 913:.\Generated_Source\PSoC5/SPIM.c ****     }
 914:.\Generated_Source\PSoC5/SPIM.c **** 
 915:.\Generated_Source\PSoC5/SPIM.c **** 
 916:.\Generated_Source\PSoC5/SPIM.c ****     /*******************************************************************************
 917:.\Generated_Source\PSoC5/SPIM.c ****     * Function Name: SPIM_TxDisable
 918:.\Generated_Source\PSoC5/SPIM.c ****     ********************************************************************************
 919:.\Generated_Source\PSoC5/SPIM.c ****     *
 920:.\Generated_Source\PSoC5/SPIM.c ****     * Summary:
 921:.\Generated_Source\PSoC5/SPIM.c ****     *  If the SPI master is configured to use a single bi-directional pin then this
 922:.\Generated_Source\PSoC5/SPIM.c ****     *  will set the bi-directional pin to receive.
ARM GAS  C:\Users\CHUCK~1.ERH\AppData\Local\Temp\ccKGUfiE.s 			page 26


 923:.\Generated_Source\PSoC5/SPIM.c ****     *
 924:.\Generated_Source\PSoC5/SPIM.c ****     * Parameters:
 925:.\Generated_Source\PSoC5/SPIM.c ****     *  None.
 926:.\Generated_Source\PSoC5/SPIM.c ****     *
 927:.\Generated_Source\PSoC5/SPIM.c ****     * Return:
 928:.\Generated_Source\PSoC5/SPIM.c ****     *  None.
 929:.\Generated_Source\PSoC5/SPIM.c ****     *
 930:.\Generated_Source\PSoC5/SPIM.c ****     *******************************************************************************/
 931:.\Generated_Source\PSoC5/SPIM.c ****     void SPIM_TxDisable(void) 
 932:.\Generated_Source\PSoC5/SPIM.c ****     {
 933:.\Generated_Source\PSoC5/SPIM.c ****         SPIM_CONTROL_REG &= ((uint8) ~SPIM_CTRL_TX_SIGNAL_EN);
 934:.\Generated_Source\PSoC5/SPIM.c ****     }
 935:.\Generated_Source\PSoC5/SPIM.c **** 
 936:.\Generated_Source\PSoC5/SPIM.c **** #endif /* (0u != SPIM_BIDIRECTIONAL_MODE) */
 937:.\Generated_Source\PSoC5/SPIM.c **** 
 938:.\Generated_Source\PSoC5/SPIM.c **** 
 939:.\Generated_Source\PSoC5/SPIM.c **** /*******************************************************************************
 940:.\Generated_Source\PSoC5/SPIM.c **** * Function Name: SPIM_PutArray
 941:.\Generated_Source\PSoC5/SPIM.c **** ********************************************************************************
 942:.\Generated_Source\PSoC5/SPIM.c **** *
 943:.\Generated_Source\PSoC5/SPIM.c **** * Summary:
 944:.\Generated_Source\PSoC5/SPIM.c **** *  Write available data from ROM/RAM to the TX buffer while space is available
 945:.\Generated_Source\PSoC5/SPIM.c **** *  in the TX buffer. Keep trying until all data is passed to the TX buffer.
 946:.\Generated_Source\PSoC5/SPIM.c **** *
 947:.\Generated_Source\PSoC5/SPIM.c **** * Parameters:
 948:.\Generated_Source\PSoC5/SPIM.c **** *  *buffer: Pointer to the location in RAM containing the data to send
 949:.\Generated_Source\PSoC5/SPIM.c **** *  byteCount: The number of bytes to move to the transmit buffer.
 950:.\Generated_Source\PSoC5/SPIM.c **** *
 951:.\Generated_Source\PSoC5/SPIM.c **** * Return:
 952:.\Generated_Source\PSoC5/SPIM.c **** *  None.
 953:.\Generated_Source\PSoC5/SPIM.c **** *
 954:.\Generated_Source\PSoC5/SPIM.c **** * Side Effects:
 955:.\Generated_Source\PSoC5/SPIM.c **** *  Will stay in this routine until all data has been sent.  May get locked in
 956:.\Generated_Source\PSoC5/SPIM.c **** *  this loop if data is not being initiated by the master if there is not
 957:.\Generated_Source\PSoC5/SPIM.c **** *  enough room in the TX FIFO.
 958:.\Generated_Source\PSoC5/SPIM.c **** *
 959:.\Generated_Source\PSoC5/SPIM.c **** * Reentrant:
 960:.\Generated_Source\PSoC5/SPIM.c **** *  No.
 961:.\Generated_Source\PSoC5/SPIM.c **** *
 962:.\Generated_Source\PSoC5/SPIM.c **** *******************************************************************************/
 963:.\Generated_Source\PSoC5/SPIM.c **** void SPIM_PutArray(const uint8 buffer[], uint8 byteCount)
 964:.\Generated_Source\PSoC5/SPIM.c ****                                                                           
 965:.\Generated_Source\PSoC5/SPIM.c **** {
 500              		.loc 1 965 0
 501              		.cfi_startproc
 502              		@ args = 0, pretend = 0, frame = 0
 503              		@ frame_needed = 0, uses_anonymous_args = 0
 504              	.LVL20:
 505 0000 70B5     		push	{r4, r5, r6, lr}
 506              	.LCFI3:
 507              		.cfi_def_cfa_offset 16
 508              		.cfi_offset 4, -16
 509              		.cfi_offset 5, -12
 510              		.cfi_offset 6, -8
 511              		.cfi_offset 14, -4
 512              		.loc 1 965 0
 513 0002 0546     		mov	r5, r0
ARM GAS  C:\Users\CHUCK~1.ERH\AppData\Local\Temp\ccKGUfiE.s 			page 27


 514 0004 0E46     		mov	r6, r1
 966:.\Generated_Source\PSoC5/SPIM.c ****     uint8 bufIndex;
 967:.\Generated_Source\PSoC5/SPIM.c **** 
 968:.\Generated_Source\PSoC5/SPIM.c ****     bufIndex = 0u;
 969:.\Generated_Source\PSoC5/SPIM.c **** 
 970:.\Generated_Source\PSoC5/SPIM.c ****     while(byteCount > 0u)
 515              		.loc 1 970 0
 516 0006 0024     		movs	r4, #0
 517              	.LVL21:
 518              	.L54:
 519              		.loc 1 970 0 is_stmt 0 discriminator 1
 520 0008 E3B2     		uxtb	r3, r4
 521 000a 9E42     		cmp	r6, r3
 522 000c 04D0     		beq	.L56
 523              	.L55:
 971:.\Generated_Source\PSoC5/SPIM.c ****     {
 972:.\Generated_Source\PSoC5/SPIM.c ****         SPIM_WriteTxData(buffer[bufIndex]);
 524              		.loc 1 972 0 is_stmt 1
 525 000e 285D     		ldrb	r0, [r5, r4]	@ zero_extendqisi2
 526 0010 FFF7FEFF 		bl	SPIM_WriteTxData
 527              	.LVL22:
 528 0014 0134     		adds	r4, r4, #1
 529 0016 F7E7     		b	.L54
 530              	.L56:
 973:.\Generated_Source\PSoC5/SPIM.c ****         bufIndex++;
 974:.\Generated_Source\PSoC5/SPIM.c ****         byteCount--;
 975:.\Generated_Source\PSoC5/SPIM.c ****     }
 976:.\Generated_Source\PSoC5/SPIM.c **** }
 531              		.loc 1 976 0
 532 0018 70BD     		pop	{r4, r5, r6, pc}
 533              		.cfi_endproc
 534              	.LFE18:
 535              		.size	SPIM_PutArray, .-SPIM_PutArray
 536              		.section	.text.SPIM_ClearFIFO,"ax",%progbits
 537              		.align	1
 538              		.global	SPIM_ClearFIFO
 539              		.thumb
 540              		.thumb_func
 541              		.type	SPIM_ClearFIFO, %function
 542              	SPIM_ClearFIFO:
 543              	.LFB19:
 977:.\Generated_Source\PSoC5/SPIM.c **** 
 978:.\Generated_Source\PSoC5/SPIM.c **** 
 979:.\Generated_Source\PSoC5/SPIM.c **** /*******************************************************************************
 980:.\Generated_Source\PSoC5/SPIM.c **** * Function Name: SPIM_ClearFIFO
 981:.\Generated_Source\PSoC5/SPIM.c **** ********************************************************************************
 982:.\Generated_Source\PSoC5/SPIM.c **** *
 983:.\Generated_Source\PSoC5/SPIM.c **** * Summary:
 984:.\Generated_Source\PSoC5/SPIM.c **** *  Clear the RX and TX FIFO's of all data for a fresh start.
 985:.\Generated_Source\PSoC5/SPIM.c **** *
 986:.\Generated_Source\PSoC5/SPIM.c **** * Parameters:
 987:.\Generated_Source\PSoC5/SPIM.c **** *  None.
 988:.\Generated_Source\PSoC5/SPIM.c **** *
 989:.\Generated_Source\PSoC5/SPIM.c **** * Return:
 990:.\Generated_Source\PSoC5/SPIM.c **** *  None.
 991:.\Generated_Source\PSoC5/SPIM.c **** *
 992:.\Generated_Source\PSoC5/SPIM.c **** * Side Effects:
ARM GAS  C:\Users\CHUCK~1.ERH\AppData\Local\Temp\ccKGUfiE.s 			page 28


 993:.\Generated_Source\PSoC5/SPIM.c **** *  Clear status register of the component.
 994:.\Generated_Source\PSoC5/SPIM.c **** *
 995:.\Generated_Source\PSoC5/SPIM.c **** *******************************************************************************/
 996:.\Generated_Source\PSoC5/SPIM.c **** void SPIM_ClearFIFO(void) 
 997:.\Generated_Source\PSoC5/SPIM.c **** {
 544              		.loc 1 997 0
 545              		.cfi_startproc
 546              		@ args = 0, pretend = 0, frame = 0
 547              		@ frame_needed = 0, uses_anonymous_args = 0
 548 0000 08B5     		push	{r3, lr}
 549              	.LCFI4:
 550              		.cfi_def_cfa_offset 8
 551              		.cfi_offset 3, -8
 552              		.cfi_offset 14, -4
 553              	.L58:
 998:.\Generated_Source\PSoC5/SPIM.c ****     uint8 enableInterrupts;
 999:.\Generated_Source\PSoC5/SPIM.c **** 
1000:.\Generated_Source\PSoC5/SPIM.c ****     /* Clear Hardware RX FIFO */
1001:.\Generated_Source\PSoC5/SPIM.c ****     while(0u !=(SPIM_RX_STATUS_REG & SPIM_STS_RX_FIFO_NOT_EMPTY))
 554              		.loc 1 1001 0 discriminator 1
 555 0002 0C4B     		ldr	r3, .L61
 556 0004 1878     		ldrb	r0, [r3, #0]	@ zero_extendqisi2
 557 0006 00F02001 		and	r1, r0, #32
 558 000a CAB2     		uxtb	r2, r1
 559 000c 12B1     		cbz	r2, .L60
 560              	.L59:
1002:.\Generated_Source\PSoC5/SPIM.c ****     {
1003:.\Generated_Source\PSoC5/SPIM.c ****         (void) CY_GET_REG8(SPIM_RXDATA_PTR);
 561              		.loc 1 1003 0
 562 000e 0A48     		ldr	r0, .L61+4
 563 0010 0378     		ldrb	r3, [r0, #0]	@ zero_extendqisi2
 564 0012 F6E7     		b	.L58
 565              	.L60:
1004:.\Generated_Source\PSoC5/SPIM.c ****     }
1005:.\Generated_Source\PSoC5/SPIM.c **** 
1006:.\Generated_Source\PSoC5/SPIM.c ****     enableInterrupts = CyEnterCriticalSection();
 566              		.loc 1 1006 0
 567 0014 FFF7FEFF 		bl	CyEnterCriticalSection
 568              	.LVL23:
1007:.\Generated_Source\PSoC5/SPIM.c ****     /* Clear TX FIFO */
1008:.\Generated_Source\PSoC5/SPIM.c ****     SPIM_AUX_CONTROL_DP0_REG |= ((uint8)  SPIM_TX_FIFO_CLR);
 569              		.loc 1 1008 0
 570 0018 084B     		ldr	r3, .L61+8
 571 001a 1978     		ldrb	r1, [r3, #0]	@ zero_extendqisi2
 572 001c 41F00102 		orr	r2, r1, #1
 573 0020 1A70     		strb	r2, [r3, #0]
1009:.\Generated_Source\PSoC5/SPIM.c ****     SPIM_AUX_CONTROL_DP0_REG &= ((uint8) ~SPIM_TX_FIFO_CLR);
 574              		.loc 1 1009 0
 575 0022 1978     		ldrb	r1, [r3, #0]	@ zero_extendqisi2
 576 0024 01F0FE02 		and	r2, r1, #254
 577 0028 1A70     		strb	r2, [r3, #0]
1010:.\Generated_Source\PSoC5/SPIM.c **** 
1011:.\Generated_Source\PSoC5/SPIM.c ****     #if(SPIM_USE_SECOND_DATAPATH)
1012:.\Generated_Source\PSoC5/SPIM.c ****         /* Clear TX FIFO for 2nd Datapath */
1013:.\Generated_Source\PSoC5/SPIM.c ****         SPIM_AUX_CONTROL_DP1_REG |= ((uint8)  SPIM_TX_FIFO_CLR);
1014:.\Generated_Source\PSoC5/SPIM.c ****         SPIM_AUX_CONTROL_DP1_REG &= ((uint8) ~SPIM_TX_FIFO_CLR);
1015:.\Generated_Source\PSoC5/SPIM.c ****     #endif /* (SPIM_USE_SECOND_DATAPATH) */
ARM GAS  C:\Users\CHUCK~1.ERH\AppData\Local\Temp\ccKGUfiE.s 			page 29


1016:.\Generated_Source\PSoC5/SPIM.c ****     CyExitCriticalSection(enableInterrupts);
1017:.\Generated_Source\PSoC5/SPIM.c **** }
 578              		.loc 1 1017 0
 579 002a BDE80840 		pop	{r3, lr}
1016:.\Generated_Source\PSoC5/SPIM.c ****     CyExitCriticalSection(enableInterrupts);
 580              		.loc 1 1016 0
 581 002e FFF7FEBF 		b	CyExitCriticalSection
 582              	.LVL24:
 583              	.L62:
 584 0032 00BF     		.align	2
 585              	.L61:
 586 0034 64650040 		.word	1073767780
 587 0038 57650040 		.word	1073767767
 588 003c 97650040 		.word	1073767831
 589              		.cfi_endproc
 590              	.LFE19:
 591              		.size	SPIM_ClearFIFO, .-SPIM_ClearFIFO
 592              		.section	.text.SPIM_Init,"ax",%progbits
 593              		.align	1
 594              		.global	SPIM_Init
 595              		.thumb
 596              		.thumb_func
 597              		.type	SPIM_Init, %function
 598              	SPIM_Init:
 599              	.LFB0:
  64:.\Generated_Source\PSoC5/SPIM.c **** {
 600              		.loc 1 64 0
 601              		.cfi_startproc
 602              		@ args = 0, pretend = 0, frame = 0
 603              		@ frame_needed = 0, uses_anonymous_args = 0
 604 0000 08B5     		push	{r3, lr}
 605              	.LCFI5:
 606              		.cfi_def_cfa_offset 8
 607              		.cfi_offset 3, -8
 608              		.cfi_offset 14, -4
  66:.\Generated_Source\PSoC5/SPIM.c ****     SPIM_COUNTER_PERIOD_REG = SPIM_BITCTR_INIT;
 609              		.loc 1 66 0
 610 0002 074B     		ldr	r3, .L64
 611 0004 0F22     		movs	r2, #15
 612 0006 1A70     		strb	r2, [r3, #0]
  83:.\Generated_Source\PSoC5/SPIM.c ****     SPIM_ClearFIFO();
 613              		.loc 1 83 0
 614 0008 FFF7FEFF 		bl	SPIM_ClearFIFO
 615              	.LVL25:
 616              	.LBB22:
 617              	.LBB23:
 401:.\Generated_Source\PSoC5/SPIM.c ****         tmpStatus = SPIM_TX_STATUS_REG;
 618              		.loc 1 401 0
 619 000c 0548     		ldr	r0, .L64+4
 620              	.LBE23:
 621              	.LBE22:
 622              	.LBB25:
 623              	.LBB26:
 452:.\Generated_Source\PSoC5/SPIM.c ****         tmpStatus = SPIM_RX_STATUS_REG;
 624              		.loc 1 452 0
 625 000e 0649     		ldr	r1, .L64+8
 626              	.LBE26:
ARM GAS  C:\Users\CHUCK~1.ERH\AppData\Local\Temp\ccKGUfiE.s 			page 30


 627              	.LBE25:
 101:.\Generated_Source\PSoC5/SPIM.c ****     SPIM_TX_STATUS_MASK_REG = SPIM_TX_INIT_INTERRUPTS_MASK;
 628              		.loc 1 101 0
 629 0010 064A     		ldr	r2, .L64+12
 630              	.LBB28:
 631              	.LBB24:
 401:.\Generated_Source\PSoC5/SPIM.c ****         tmpStatus = SPIM_TX_STATUS_REG;
 632              		.loc 1 401 0
 633 0012 0378     		ldrb	r3, [r0, #0]	@ zero_extendqisi2
 634              	.LVL26:
 635              	.LBE24:
 636              	.LBE28:
 637              	.LBB29:
 638              	.LBB27:
 452:.\Generated_Source\PSoC5/SPIM.c ****         tmpStatus = SPIM_RX_STATUS_REG;
 639              		.loc 1 452 0
 640 0014 0B78     		ldrb	r3, [r1, #0]	@ zero_extendqisi2
 641              	.LVL27:
 642              	.LBE27:
 643              	.LBE29:
 101:.\Generated_Source\PSoC5/SPIM.c ****     SPIM_TX_STATUS_MASK_REG = SPIM_TX_INIT_INTERRUPTS_MASK;
 644              		.loc 1 101 0
 645 0016 0023     		movs	r3, #0
 646 0018 1370     		strb	r3, [r2, #0]
 102:.\Generated_Source\PSoC5/SPIM.c ****     SPIM_RX_STATUS_MASK_REG = SPIM_RX_INIT_INTERRUPTS_MASK;
 647              		.loc 1 102 0
 648 001a 82F8FD30 		strb	r3, [r2, #253]
 649 001e 08BD     		pop	{r3, pc}
 650              	.L65:
 651              		.align	2
 652              	.L64:
 653 0020 87650040 		.word	1073767815
 654 0024 67640040 		.word	1073767527
 655 0028 64650040 		.word	1073767780
 656 002c 87640040 		.word	1073767559
 657              		.cfi_endproc
 658              	.LFE0:
 659              		.size	SPIM_Init, .-SPIM_Init
 660              		.section	.text.SPIM_Start,"ax",%progbits
 661              		.align	1
 662              		.global	SPIM_Start
 663              		.thumb
 664              		.thumb_func
 665              		.type	SPIM_Start, %function
 666              	SPIM_Start:
 667              	.LFB2:
 164:.\Generated_Source\PSoC5/SPIM.c **** {
 668              		.loc 1 164 0
 669              		.cfi_startproc
 670              		@ args = 0, pretend = 0, frame = 0
 671              		@ frame_needed = 0, uses_anonymous_args = 0
 672 0000 10B5     		push	{r4, lr}
 673              	.LCFI6:
 674              		.cfi_def_cfa_offset 8
 675              		.cfi_offset 4, -8
 676              		.cfi_offset 14, -4
 165:.\Generated_Source\PSoC5/SPIM.c ****     if(0u == SPIM_initVar)
ARM GAS  C:\Users\CHUCK~1.ERH\AppData\Local\Temp\ccKGUfiE.s 			page 31


 677              		.loc 1 165 0
 678 0002 054C     		ldr	r4, .L68
 679 0004 2378     		ldrb	r3, [r4, #0]	@ zero_extendqisi2
 680 0006 1BB9     		cbnz	r3, .L67
 167:.\Generated_Source\PSoC5/SPIM.c ****         SPIM_Init();
 681              		.loc 1 167 0
 682 0008 FFF7FEFF 		bl	SPIM_Init
 683              	.LVL28:
 168:.\Generated_Source\PSoC5/SPIM.c ****         SPIM_initVar = 1u;
 684              		.loc 1 168 0
 685 000c 0120     		movs	r0, #1
 686 000e 2070     		strb	r0, [r4, #0]
 687              	.L67:
 172:.\Generated_Source\PSoC5/SPIM.c **** }
 688              		.loc 1 172 0
 689 0010 BDE81040 		pop	{r4, lr}
 171:.\Generated_Source\PSoC5/SPIM.c ****     SPIM_Enable();
 690              		.loc 1 171 0
 691 0014 FFF7FEBF 		b	SPIM_Enable
 692              	.LVL29:
 693              	.L69:
 694              		.align	2
 695              	.L68:
 696 0018 00000000 		.word	.LANCHOR0
 697              		.cfi_endproc
 698              	.LFE2:
 699              		.size	SPIM_Start, .-SPIM_Start
 700              		.section	.text.SPIM_EnableInt,"ax",%progbits
 701              		.align	1
 702              		.global	SPIM_EnableInt
 703              		.thumb
 704              		.thumb_func
 705              		.type	SPIM_EnableInt, %function
 706              	SPIM_EnableInt:
 707              	.LFB20:
1018:.\Generated_Source\PSoC5/SPIM.c **** 
1019:.\Generated_Source\PSoC5/SPIM.c **** 
1020:.\Generated_Source\PSoC5/SPIM.c **** /* Following functions are for version Compatibility, they are obsolete.
1021:.\Generated_Source\PSoC5/SPIM.c **** *  Please do not use it in new projects.
1022:.\Generated_Source\PSoC5/SPIM.c **** */
1023:.\Generated_Source\PSoC5/SPIM.c **** 
1024:.\Generated_Source\PSoC5/SPIM.c **** 
1025:.\Generated_Source\PSoC5/SPIM.c **** /*******************************************************************************
1026:.\Generated_Source\PSoC5/SPIM.c **** * Function Name: SPIM_EnableInt
1027:.\Generated_Source\PSoC5/SPIM.c **** ********************************************************************************
1028:.\Generated_Source\PSoC5/SPIM.c **** *
1029:.\Generated_Source\PSoC5/SPIM.c **** * Summary:
1030:.\Generated_Source\PSoC5/SPIM.c **** *  Enable internal interrupt generation.
1031:.\Generated_Source\PSoC5/SPIM.c **** *
1032:.\Generated_Source\PSoC5/SPIM.c **** * Parameters:
1033:.\Generated_Source\PSoC5/SPIM.c **** *  None.
1034:.\Generated_Source\PSoC5/SPIM.c **** *
1035:.\Generated_Source\PSoC5/SPIM.c **** * Return:
1036:.\Generated_Source\PSoC5/SPIM.c **** *  None.
1037:.\Generated_Source\PSoC5/SPIM.c **** *
1038:.\Generated_Source\PSoC5/SPIM.c **** * Theory:
1039:.\Generated_Source\PSoC5/SPIM.c **** *  Enable the internal interrupt output -or- the interrupt component itself.
ARM GAS  C:\Users\CHUCK~1.ERH\AppData\Local\Temp\ccKGUfiE.s 			page 32


1040:.\Generated_Source\PSoC5/SPIM.c **** *
1041:.\Generated_Source\PSoC5/SPIM.c **** *******************************************************************************/
1042:.\Generated_Source\PSoC5/SPIM.c **** void SPIM_EnableInt(void) 
1043:.\Generated_Source\PSoC5/SPIM.c **** {
 708              		.loc 1 1043 0
 709              		.cfi_startproc
 710              		@ args = 0, pretend = 0, frame = 0
 711              		@ frame_needed = 0, uses_anonymous_args = 0
 712              		@ link register save eliminated.
 713 0000 7047     		bx	lr
 714              		.cfi_endproc
 715              	.LFE20:
 716              		.size	SPIM_EnableInt, .-SPIM_EnableInt
 717              		.section	.text.SPIM_DisableInt,"ax",%progbits
 718              		.align	1
 719              		.global	SPIM_DisableInt
 720              		.thumb
 721              		.thumb_func
 722              		.type	SPIM_DisableInt, %function
 723              	SPIM_DisableInt:
 724              	.LFB21:
1044:.\Generated_Source\PSoC5/SPIM.c ****     SPIM_EnableRxInt();
1045:.\Generated_Source\PSoC5/SPIM.c ****     SPIM_EnableTxInt();
1046:.\Generated_Source\PSoC5/SPIM.c **** }
1047:.\Generated_Source\PSoC5/SPIM.c **** 
1048:.\Generated_Source\PSoC5/SPIM.c **** 
1049:.\Generated_Source\PSoC5/SPIM.c **** /*******************************************************************************
1050:.\Generated_Source\PSoC5/SPIM.c **** * Function Name: SPIM_DisableInt
1051:.\Generated_Source\PSoC5/SPIM.c **** ********************************************************************************
1052:.\Generated_Source\PSoC5/SPIM.c **** *
1053:.\Generated_Source\PSoC5/SPIM.c **** * Summary:
1054:.\Generated_Source\PSoC5/SPIM.c **** *  Disable internal interrupt generation.
1055:.\Generated_Source\PSoC5/SPIM.c **** *
1056:.\Generated_Source\PSoC5/SPIM.c **** * Parameters:
1057:.\Generated_Source\PSoC5/SPIM.c **** *  None.
1058:.\Generated_Source\PSoC5/SPIM.c **** *
1059:.\Generated_Source\PSoC5/SPIM.c **** * Return:
1060:.\Generated_Source\PSoC5/SPIM.c **** *  None.
1061:.\Generated_Source\PSoC5/SPIM.c **** *
1062:.\Generated_Source\PSoC5/SPIM.c **** * Theory:
1063:.\Generated_Source\PSoC5/SPIM.c **** *  Disable the internal interrupt output -or- the interrupt component itself.
1064:.\Generated_Source\PSoC5/SPIM.c **** *
1065:.\Generated_Source\PSoC5/SPIM.c **** *******************************************************************************/
1066:.\Generated_Source\PSoC5/SPIM.c **** void SPIM_DisableInt(void) 
1067:.\Generated_Source\PSoC5/SPIM.c **** {
 725              		.loc 1 1067 0
 726              		.cfi_startproc
 727              		@ args = 0, pretend = 0, frame = 0
 728              		@ frame_needed = 0, uses_anonymous_args = 0
 729              		@ link register save eliminated.
 730 0000 7047     		bx	lr
 731              		.cfi_endproc
 732              	.LFE21:
 733              		.size	SPIM_DisableInt, .-SPIM_DisableInt
 734              		.section	.text.SPIM_SetInterruptMode,"ax",%progbits
 735              		.align	1
 736              		.global	SPIM_SetInterruptMode
ARM GAS  C:\Users\CHUCK~1.ERH\AppData\Local\Temp\ccKGUfiE.s 			page 33


 737              		.thumb
 738              		.thumb_func
 739              		.type	SPIM_SetInterruptMode, %function
 740              	SPIM_SetInterruptMode:
 741              	.LFB22:
1068:.\Generated_Source\PSoC5/SPIM.c ****     SPIM_DisableTxInt();
1069:.\Generated_Source\PSoC5/SPIM.c ****     SPIM_DisableRxInt();
1070:.\Generated_Source\PSoC5/SPIM.c **** }
1071:.\Generated_Source\PSoC5/SPIM.c **** 
1072:.\Generated_Source\PSoC5/SPIM.c **** 
1073:.\Generated_Source\PSoC5/SPIM.c **** /*******************************************************************************
1074:.\Generated_Source\PSoC5/SPIM.c **** * Function Name: SPIM_SetInterruptMode
1075:.\Generated_Source\PSoC5/SPIM.c **** ********************************************************************************
1076:.\Generated_Source\PSoC5/SPIM.c **** *
1077:.\Generated_Source\PSoC5/SPIM.c **** * Summary:
1078:.\Generated_Source\PSoC5/SPIM.c **** *  Configure which status bits trigger an interrupt event.
1079:.\Generated_Source\PSoC5/SPIM.c **** *
1080:.\Generated_Source\PSoC5/SPIM.c **** * Parameters:
1081:.\Generated_Source\PSoC5/SPIM.c **** *  intSrc: An or'd combination of the desired status bit masks (defined in the
1082:.\Generated_Source\PSoC5/SPIM.c **** *  header file).
1083:.\Generated_Source\PSoC5/SPIM.c **** *
1084:.\Generated_Source\PSoC5/SPIM.c **** * Return:
1085:.\Generated_Source\PSoC5/SPIM.c **** *  None.
1086:.\Generated_Source\PSoC5/SPIM.c **** *
1087:.\Generated_Source\PSoC5/SPIM.c **** * Theory:
1088:.\Generated_Source\PSoC5/SPIM.c **** *  Enables the output of specific status bits to the interrupt controller.
1089:.\Generated_Source\PSoC5/SPIM.c **** *
1090:.\Generated_Source\PSoC5/SPIM.c **** *******************************************************************************/
1091:.\Generated_Source\PSoC5/SPIM.c **** void SPIM_SetInterruptMode(uint8 intSrc) 
1092:.\Generated_Source\PSoC5/SPIM.c **** {
 742              		.loc 1 1092 0
 743              		.cfi_startproc
 744              		@ args = 0, pretend = 0, frame = 0
 745              		@ frame_needed = 0, uses_anonymous_args = 0
 746              		@ link register save eliminated.
 747              	.LVL30:
1093:.\Generated_Source\PSoC5/SPIM.c ****     SPIM_TX_STATUS_MASK_REG  = (intSrc & ((uint8) ~SPIM_STS_SPI_IDLE));
 748              		.loc 1 1093 0
 749 0000 034B     		ldr	r3, .L73
 750 0002 00F0EF02 		and	r2, r0, #239
 751 0006 1A70     		strb	r2, [r3, #0]
1094:.\Generated_Source\PSoC5/SPIM.c ****     SPIM_RX_STATUS_MASK_REG  =  intSrc;
 752              		.loc 1 1094 0
 753 0008 83F8FD00 		strb	r0, [r3, #253]
 754 000c 7047     		bx	lr
 755              	.L74:
 756 000e 00BF     		.align	2
 757              	.L73:
 758 0010 87640040 		.word	1073767559
 759              		.cfi_endproc
 760              	.LFE22:
 761              		.size	SPIM_SetInterruptMode, .-SPIM_SetInterruptMode
 762              		.section	.text.SPIM_ReadStatus,"ax",%progbits
 763              		.align	1
 764              		.global	SPIM_ReadStatus
 765              		.thumb
 766              		.thumb_func
ARM GAS  C:\Users\CHUCK~1.ERH\AppData\Local\Temp\ccKGUfiE.s 			page 34


 767              		.type	SPIM_ReadStatus, %function
 768              	SPIM_ReadStatus:
 769              	.LFB23:
1095:.\Generated_Source\PSoC5/SPIM.c **** }
1096:.\Generated_Source\PSoC5/SPIM.c **** 
1097:.\Generated_Source\PSoC5/SPIM.c **** 
1098:.\Generated_Source\PSoC5/SPIM.c **** /*******************************************************************************
1099:.\Generated_Source\PSoC5/SPIM.c **** * Function Name: SPIM_ReadStatus
1100:.\Generated_Source\PSoC5/SPIM.c **** ********************************************************************************
1101:.\Generated_Source\PSoC5/SPIM.c **** *
1102:.\Generated_Source\PSoC5/SPIM.c **** * Summary:
1103:.\Generated_Source\PSoC5/SPIM.c **** *  Read the status register for the component.
1104:.\Generated_Source\PSoC5/SPIM.c **** *
1105:.\Generated_Source\PSoC5/SPIM.c **** * Parameters:
1106:.\Generated_Source\PSoC5/SPIM.c **** *  None.
1107:.\Generated_Source\PSoC5/SPIM.c **** *
1108:.\Generated_Source\PSoC5/SPIM.c **** * Return:
1109:.\Generated_Source\PSoC5/SPIM.c **** *  Contents of the status register.
1110:.\Generated_Source\PSoC5/SPIM.c **** *
1111:.\Generated_Source\PSoC5/SPIM.c **** * Global variables:
1112:.\Generated_Source\PSoC5/SPIM.c **** *  SPIM_swStatus - used to store in software status register,
1113:.\Generated_Source\PSoC5/SPIM.c **** *  modified every function call - resets to zero.
1114:.\Generated_Source\PSoC5/SPIM.c **** *
1115:.\Generated_Source\PSoC5/SPIM.c **** * Theory:
1116:.\Generated_Source\PSoC5/SPIM.c **** *  Allows the user and the API to read the status register for error detection
1117:.\Generated_Source\PSoC5/SPIM.c **** *  and flow control.
1118:.\Generated_Source\PSoC5/SPIM.c **** *
1119:.\Generated_Source\PSoC5/SPIM.c **** * Side Effects:
1120:.\Generated_Source\PSoC5/SPIM.c **** *  Clear status register of the component.
1121:.\Generated_Source\PSoC5/SPIM.c **** *
1122:.\Generated_Source\PSoC5/SPIM.c **** * Reentrant:
1123:.\Generated_Source\PSoC5/SPIM.c **** *  No.
1124:.\Generated_Source\PSoC5/SPIM.c **** *
1125:.\Generated_Source\PSoC5/SPIM.c **** *******************************************************************************/
1126:.\Generated_Source\PSoC5/SPIM.c **** uint8 SPIM_ReadStatus(void) 
1127:.\Generated_Source\PSoC5/SPIM.c **** {
 770              		.loc 1 1127 0
 771              		.cfi_startproc
 772              		@ args = 0, pretend = 0, frame = 0
 773              		@ frame_needed = 0, uses_anonymous_args = 0
 774              		@ link register save eliminated.
1128:.\Generated_Source\PSoC5/SPIM.c ****     uint8 tmpStatus;
1129:.\Generated_Source\PSoC5/SPIM.c **** 
1130:.\Generated_Source\PSoC5/SPIM.c ****     #if(SPIM_TX_SOFTWARE_BUF_ENABLED || SPIM_RX_SOFTWARE_BUF_ENABLED)
1131:.\Generated_Source\PSoC5/SPIM.c **** 
1132:.\Generated_Source\PSoC5/SPIM.c ****         SPIM_DisableInt();
1133:.\Generated_Source\PSoC5/SPIM.c **** 
1134:.\Generated_Source\PSoC5/SPIM.c ****         tmpStatus  = SPIM_GET_STATUS_RX(SPIM_swStatusRx);
1135:.\Generated_Source\PSoC5/SPIM.c ****         tmpStatus |= SPIM_GET_STATUS_TX(SPIM_swStatusTx);
1136:.\Generated_Source\PSoC5/SPIM.c ****         tmpStatus &= ((uint8) ~SPIM_STS_SPI_IDLE);
1137:.\Generated_Source\PSoC5/SPIM.c **** 
1138:.\Generated_Source\PSoC5/SPIM.c ****         SPIM_swStatusTx = 0u;
1139:.\Generated_Source\PSoC5/SPIM.c ****         SPIM_swStatusRx = 0u;
1140:.\Generated_Source\PSoC5/SPIM.c **** 
1141:.\Generated_Source\PSoC5/SPIM.c ****         SPIM_EnableInt();
1142:.\Generated_Source\PSoC5/SPIM.c **** 
1143:.\Generated_Source\PSoC5/SPIM.c ****     #else
ARM GAS  C:\Users\CHUCK~1.ERH\AppData\Local\Temp\ccKGUfiE.s 			page 35


1144:.\Generated_Source\PSoC5/SPIM.c **** 
1145:.\Generated_Source\PSoC5/SPIM.c ****         tmpStatus  = SPIM_RX_STATUS_REG;
 775              		.loc 1 1145 0
 776 0000 034B     		ldr	r3, .L76
1146:.\Generated_Source\PSoC5/SPIM.c ****         tmpStatus |= SPIM_TX_STATUS_REG;
 777              		.loc 1 1146 0
 778 0002 044A     		ldr	r2, .L76+4
1145:.\Generated_Source\PSoC5/SPIM.c ****         tmpStatus  = SPIM_RX_STATUS_REG;
 779              		.loc 1 1145 0
 780 0004 1978     		ldrb	r1, [r3, #0]	@ zero_extendqisi2
 781              	.LVL31:
 782              		.loc 1 1146 0
 783 0006 1078     		ldrb	r0, [r2, #0]	@ zero_extendqisi2
 784 0008 0843     		orrs	r0, r0, r1
 785              	.LVL32:
1147:.\Generated_Source\PSoC5/SPIM.c ****         tmpStatus &= ((uint8) ~SPIM_STS_SPI_IDLE);
1148:.\Generated_Source\PSoC5/SPIM.c **** 
1149:.\Generated_Source\PSoC5/SPIM.c ****     #endif /* (SPIM_TX_SOFTWARE_BUF_ENABLED || SPIM_RX_SOFTWARE_BUF_ENABLED) */
1150:.\Generated_Source\PSoC5/SPIM.c **** 
1151:.\Generated_Source\PSoC5/SPIM.c ****     return(tmpStatus);
1152:.\Generated_Source\PSoC5/SPIM.c **** }
 786              		.loc 1 1152 0
 787 000a 00F0EF00 		and	r0, r0, #239
 788              	.LVL33:
 789 000e 7047     		bx	lr
 790              	.L77:
 791              		.align	2
 792              	.L76:
 793 0010 64650040 		.word	1073767780
 794 0014 67640040 		.word	1073767527
 795              		.cfi_endproc
 796              	.LFE23:
 797              		.size	SPIM_ReadStatus, .-SPIM_ReadStatus
 798              		.comm	SPIM_swStatusRx,1,1
 799              		.comm	SPIM_swStatusTx,1,1
 800              		.global	SPIM_initVar
 801              		.bss
 802              		.set	.LANCHOR0,. + 0
 803              		.type	SPIM_initVar, %object
 804              		.size	SPIM_initVar, 1
 805              	SPIM_initVar:
 806 0000 00       		.space	1
 807              		.text
 808              	.Letext0:
 809              		.file 2 ".\\Generated_Source\\PSoC5\\cytypes.h"
 810              		.file 3 ".\\Generated_Source\\PSoC5\\SPIM_IntClock.h"
 811              		.file 4 ".\\Generated_Source\\PSoC5\\CyLib.h"